

Microchip MPLAB XC8 Assembler V2.46 build 20240104201356 
                                                                                               Mon May 06 23:39:49 2024

Microchip MPLAB XC8 C Compiler v2.46 (Free license) build 20240104201356 Og1 
     1                           	processor	18F47K42
     2                           	fnconf	rparam,??,?,0
     3                           	pagewidth 120
     4                           	opt	flic
     5                           	psect	smallconst,global,reloc=2,class=SMALLCONST,delta=1,noexec
     6                           	psect	nvBANK0,global,class=BANK0,space=1,delta=1,lowdata,noexec
     7                           	psect	cinit,global,reloc=2,class=CODE,delta=1
     8                           	psect	bssCOMRAM,global,class=COMRAM,space=1,delta=1,lowdata,noexec
     9                           	psect	bssBANK0,global,class=BANK0,space=1,delta=1,lowdata,noexec
    10                           	psect	cstackBANK0,global,class=BANK0,space=1,delta=1,lowdata,noexec
    11                           	psect	cstackCOMRAM,global,class=COMRAM,space=1,delta=1,lowdata,noexec
    12                           	psect	text0,global,reloc=2,class=CODE,delta=1
    13                           	psect	text1,global,reloc=2,class=CODE,delta=1,group=3
    14                           	psect	text2,global,reloc=2,class=CODE,delta=1,group=3
    15                           	psect	text3,global,reloc=2,class=CODE,delta=1
    16                           	psect	text4,global,reloc=2,class=CODE,delta=1,group=3
    17                           	psect	text5,global,reloc=2,class=CODE,delta=1,group=2
    18                           	psect	text6,global,reloc=2,class=CODE,delta=1,group=3
    19                           	psect	text7,global,reloc=2,class=CODE,delta=1,group=1
    20                           	psect	text8,global,reloc=2,class=CODE,delta=1,group=1
    21                           	psect	text9,global,reloc=2,class=CODE,delta=1,group=3
    22                           	psect	text10,global,reloc=2,class=CODE,delta=1
    23                           	psect	text11,global,reloc=2,class=CODE,delta=1
    24                           	psect	text12,global,reloc=2,class=CODE,delta=1
    25                           	psect	text13,global,reloc=2,class=CODE,delta=1,group=3
    26                           	psect	text14,global,reloc=2,class=CODE,delta=1,group=2
    27                           	psect	text15,global,reloc=2,class=CODE,delta=1,group=2
    28                           	psect	text16,global,reloc=2,class=CODE,delta=1
    29                           	psect	text17,global,reloc=2,class=CODE,delta=1
    30                           	psect	text18,global,reloc=2,class=CODE,delta=1
    31                           	psect	text19,global,reloc=2,class=CODE,delta=1
    32                           	psect	text20,global,reloc=2,class=CODE,delta=1
    33                           	psect	text21,global,reloc=2,class=CODE,delta=1
    34                           	psect	text22,global,reloc=2,class=CODE,delta=1
    35                           	psect	text23,global,reloc=2,class=CODE,delta=1
    36                           	psect	text24,global,reloc=2,class=CODE,delta=1
    37                           	psect	text25,global,reloc=2,class=CODE,delta=1
    38                           	psect	text26,global,reloc=2,class=CODE,delta=1
    39                           	psect	text27,global,reloc=2,class=CODE,delta=1
    40                           	psect	text28,global,reloc=2,class=CODE,delta=1
    41                           	psect	text29,global,reloc=2,class=CODE,delta=1
    42                           	psect	text30,global,reloc=2,class=CODE,delta=1
    43                           	psect	text31,global,reloc=2,class=CODE,delta=1
    44                           	psect	ivt0x8,global,reloc=2,class=CODE,delta=1,noexec,keep,optim=
    45                           	psect	intsave_regs,global,class=BIGRAM,space=1,delta=1,noexec
    46                           	psect	rparam,global,class=COMRAM,space=1,delta=1,noexec
    47                           	psect	config,global,abs,ovrld,class=CONFIG,space=4,delta=1,noexec
    48   000000                     
    49                           ; Generated 12/10/2023 GMT
    50                           ; 
    51                           ; Copyright © 2023, Microchip Technology Inc. and its subsidiaries ("Microchip")
    52                           ; All rights reserved.
    53                           ; 
    54                           ; This software is developed by Microchip Technology Inc. and its subsidiaries ("Microch
      +                          ip").
    55                           ; 
    56                           ; Redistribution and use in source and binary forms, with or without modification, are
    57                           ; permitted provided that the following conditions are met:
    58                           ; 
    59                           ;     1. Redistributions of source code must retain the above copyright notice, this lis
      +                          t of
    60                           ;        conditions and the following disclaimer.
    61                           ; 
    62                           ;     2. Redistributions in binary form must reproduce the above copyright notice, this 
      +                          list
    63                           ;        of conditions and the following disclaimer in the documentation and/or other
    64                           ;        materials provided with the distribution. Publication is not required when
    65                           ;        this file is used in an embedded application.
    66                           ; 
    67                           ;     3. Microchip's name may not be used to endorse or promote products derived from th
      +                          is
    68                           ;        software without specific prior written permission.
    69                           ; 
    70                           ; THIS SOFTWARE IS PROVIDED BY MICROCHIP "AS IS" AND ANY EXPRESS OR IMPLIED WARRANTIES,
    71                           ; INCLUDING, BUT NOT LIMITED TO, THE IMPLIED WARRANTIES OF MERCHANTABILITY AND FITNESS F
      +                          OR
    72                           ; PURPOSE ARE DISCLAIMED.  IN NO EVENT SHALL MICROCHIP BE LIABLE FOR ANY DIRECT, INDIREC
      +                          T,
    73                           ; INCIDENTAL, SPECIAL, EXEMPLARY, OR CONSEQUENTIAL DAMAGES (INCLUDING BUT NOT LIMITED TO
    74                           ; PROCUREMENT OF SUBSTITUTE GOODS OR SERVICES; LOSS OF USE, DATA OR PROFITS; OR BUSINESS
    75                           ; INTERRUPTION) HOWSOEVER CAUSED AND ON ANY THEORY OF LIABILITY, WHETHER IN CONTRACT, ST
      +                          RICT
    76                           ; LIABILITY, OR TORT (INCLUDING NEGLIGENCE OR OTHERWISE) ARISING IN ANY WAY OUT OF THE U
      +                          SE OF
    77                           ; THIS SOFTWARE, EVEN IF ADVISED OF THE POSSIBILITY OF SUCH DAMAGE.
    78                           ; 
    79                           ; 
    80                           ; Code-generator required, PIC18F47K42 Definitions
    81                           ; 
    82                           ; SFR Addresses
    83   000000                     
    84 ;; Function _INT0_DefaultInterruptHandler is unused but had its address taken
    85   000000                     
    86 ;; Function _INT1_DefaultInterruptHandler is unused but had its address taken
    87   000000                     
    88 ;; Function _INT2_DefaultInterruptHandler is unused but had its address taken
    89   000000                     
    90 ;; Function _UART2_Deinitialize is unused but had its address taken
    91   000000                     
    92 ;; Function _UART2_TransmitEnable is unused but had its address taken
    93   000000                     
    94 ;; Function _UART2_TransmitDisable is unused but had its address taken
    95   000000                     
    96 ;; Function _UART2_AutoBaudSet is unused but had its address taken
    97   000000                     
    98 ;; Function _UART2_AutoBaudQuery is unused but had its address taken
    99   000000                     
   100 ;; Function _UART2_IsRxReady is unused but had its address taken
   101   000000                     
   102 ;; Function _UART2_IsTxDone is unused but had its address taken
   103   000000                     
   104 ;; Function _UART2_ErrorGet is unused but had its address taken
   105   000000                     
   106 ;; Function _UART2_Read is unused but had its address taken
   107   000000                     
   108 ;; Function _UART2_DefaultParityErrorCallback is unused but had its address taken
   109   000000                     
   110 ;; Function _UART2_RxCompleteCallbackRegister is unused but had its address taken
   111   000000                     
   112 ;; Function _UART2_TxCompleteCallbackRegister is unused but had its address taken
   113   000000                     
   114                           	psect	smallconst
   115   002000                     __psmallconst:
   116                           	callstack 0
   117   002000  00                 	db	0
   118   002001                     _UART2:
   119                           	callstack 0
   120   002001  82                 	db	low _UART2_Initialize
   121   002002  25                 	db	high _UART2_Initialize
   122   002003  00                 	db	low (_UART2_Initialize shr (0+16))
   123   002004  00                 	db	0
   124   002005  00                 	db	0
   125   002006  00                 	db	0
   126   002007  00                 	db	0
   127   002008  00                 	db	0
   128   002009  00                 	db	0
   129   00200A  40                 	db	low _UART2_Write
   130   00200B  29                 	db	high _UART2_Write
   131   00200C  00                 	db	low (_UART2_Write shr (0+16))
   132   00200D  00                 	db	0
   133   00200E  00                 	db	0
   134   00200F  00                 	db	0
   135   002010  B4                 	db	low _UART2_IsTxReady
   136   002011  2B                 	db	high _UART2_IsTxReady
   137   002012  00                 	db	low (_UART2_IsTxReady shr (0+16))
   138   002013  00                 	db	0
   139   002014  00                 	db	0
   140   002015  00                 	db	0
   141   002016  00                 	db	0
   142   002017  00                 	db	0
   143   002018  00                 	db	0
   144   002019  00                 	db	0
   145   00201A  00                 	db	0
   146   00201B  00                 	db	0
   147   00201C  00                 	db	0
   148   00201D  00                 	db	0
   149   00201E  00                 	db	0
   150   00201F  00                 	db	0
   151   002020  00                 	db	0
   152   002021  00                 	db	0
   153   002022  00                 	db	0
   154   002023  00                 	db	0
   155   002024  00                 	db	0
   156   002025  00                 	db	0
   157   002026  00                 	db	0
   158   002027  00                 	db	0
   159   002028  00                 	db	0
   160   002029  00                 	db	0
   161   00202A  00                 	db	0
   162   00202B  00                 	db	0
   163   00202C  00                 	db	0
   164   00202D  00                 	db	0
   165   00202E  00                 	db	0
   166   00202F  00                 	db	0
   167   002030  00                 	db	0
   168   002031  00                 	db	0
   169   002032  00                 	db	0
   170   002033  00                 	db	0
   171   002034  00                 	db	0
   172   002035  00                 	db	0
   173   002036  00                 	db	0
   174   002037  00                 	db	0
   175   002038  00                 	db	0
   176   002039  00                 	db	0
   177   00203A  00                 	db	0
   178   00203B  00                 	db	0
   179   00203C  00                 	db	0
   180   00203D  28                 	db	low _UART2_FramingErrorCallbackRegister
   181   00203E  2B                 	db	high _UART2_FramingErrorCallbackRegister
   182   00203F  00                 	db	low (_UART2_FramingErrorCallbackRegister shr (0+16))
   183   002040  06                 	db	low _UART2_OverrunErrorCallbackRegister
   184   002041  2B                 	db	high _UART2_OverrunErrorCallbackRegister
   185   002042  00                 	db	low (_UART2_OverrunErrorCallbackRegister shr (0+16))
   186   002043  E4                 	db	low _UART2_ParityErrorCallbackRegister
   187   002044  2A                 	db	high _UART2_ParityErrorCallbackRegister
   188   002045  00                 	db	low (_UART2_ParityErrorCallbackRegister shr (0+16))
   189   002046  00                 	db	0
   190   002047  00                 	db	0
   191   002048  00                 	db	0
   192   002049                     __end_of_UART2:
   193                           	callstack 0
   194   000000                     _OSCTUNE	set	14814
   195   000000                     _OSCFRQ	set	14815
   196   000000                     _PIR6bits	set	14758
   197   000000                     _PIR7bits	set	14759
   198   002049                     STR_1:
   199   002049  48                 	db	72	;'H'
   200   00204A  65                 	db	101	;'e'
   201   00204B  6C                 	db	108	;'l'
   202   00204C  6C                 	db	108	;'l'
   203   00204D  6F                 	db	111	;'o'
   204   00204E  20                 	db	32
   205   00204F  57                 	db	87	;'W'
   206   002050  6F                 	db	111	;'o'
   207   002051  72                 	db	114	;'r'
   208   002052  6C                 	db	108	;'l'
   209   002053  64                 	db	100	;'d'
   210   002054  2E                 	db	46
   211   002055  2E                 	db	46
   212   002056  2E                 	db	46
   213   002057  2E                 	db	46
   214   002058  0D                 	db	13
   215   002059  0A                 	db	10
   216   00205A  00                 	db	0
   217   00205B                     STR_2:
   218   00205B  25                 	db	37
   219   00205C  64                 	db	100	;'d'
   220   00205D  0D                 	db	13
   221   00205E  0A                 	db	10
   222   00205F  00                 	db	0
   223   002060  00                 	db	0	; dummy byte at the end
   224   000000                     
   225                           	psect	nvBANK0
   226   0000A3                     __pnvBANK0:
   227                           	callstack 0
   228   0000A3                     _UART2_RxInterruptHandler:
   229                           	callstack 0
   230   0000A3                     	ds	3
   231   0000A6                     _UART2_TxInterruptHandler:
   232                           	callstack 0
   233   0000A6                     	ds	3
   234   000000                     _U2ERRIRbits	set	15841
   235   000000                     _U2UIRbits	set	15840
   236   000000                     _U2CON0bits	set	15834
   237   000000                     _U2CON1bits	set	15835
   238   000000                     _PIE6bits	set	14742
   239   000000                     _PIR1bits	set	14753
   240   000000                     _INTCON0bits	set	16338
   241   000000                     _PIR5bits	set	14757
   242   000000                     _OSCCON1	set	14809
   243   000000                     _OSCCON3	set	14811
   244   000000                     _OSCEN	set	14813
   245   000000                     _RD0PPS	set	14872
   246   000000                     _ANSELA	set	14912
   247   000000                     _LATA	set	16314
   248   000000                     _TRISA	set	16322
   249   000000                     _LATE	set	16318
   250   000000                     _LATD	set	16317
   251   000000                     _LATC	set	16316
   252   000000                     _LATB	set	16315
   253   000000                     _TRISE	set	16326
   254   000000                     _TRISD	set	16325
   255   000000                     _TRISC	set	16324
   256   000000                     _TRISB	set	16323
   257   000000                     _IOCAF	set	14919
   258   000000                     _IOCAN	set	14918
   259   000000                     _IOCAP	set	14917
   260   000000                     _INLVLA	set	14916
   261   000000                     _SLRCONA	set	14915
   262   000000                     _ODCONA	set	14914
   263   000000                     _WPUA	set	14913
   264   000000                     _ANSELB	set	14928
   265   000000                     _IOCBF	set	14935
   266   000000                     _IOCBN	set	14934
   267   000000                     _IOCBP	set	14933
   268   000000                     _RB1I2C	set	14938
   269   000000                     _INLVLB	set	14932
   270   000000                     _SLRCONB	set	14931
   271   000000                     _ODCONB	set	14930
   272   000000                     _WPUB	set	14929
   273   000000                     _ANSELC	set	14944
   274   000000                     _IOCCF	set	14951
   275   000000                     _IOCCN	set	14950
   276   000000                     _IOCCP	set	14949
   277   000000                     _RC3I2C	set	14954
   278   000000                     _INLVLC	set	14948
   279   000000                     _SLRCONC	set	14947
   280   000000                     _ODCONC	set	14946
   281   000000                     _WPUC	set	14945
   282   000000                     _ANSELD	set	14960
   283   000000                     _RD0I2C	set	14970
   284   000000                     _INLVLD	set	14964
   285   000000                     _SLRCOND	set	14963
   286   000000                     _ODCOND	set	14962
   287   000000                     _WPUD	set	14961
   288   000000                     _ANSELE	set	14976
   289   000000                     _IOCEF	set	14983
   290   000000                     _IOCEN	set	14982
   291   000000                     _IOCEP	set	14981
   292   000000                     _U2RXPPS	set	15080
   293   000000                     _INLVLE	set	14980
   294   000000                     _SLRCONE	set	14979
   295   000000                     _ODCONE	set	14978
   296   000000                     _WPUE	set	14977
   297   000000                     _RB2I2C	set	14939
   298   000000                     _RC4I2C	set	14955
   299   000000                     _RD1I2C	set	14971
   300   000000                     _U2RXB	set	15824
   301   000000                     _U2TXB	set	15826
   302   000000                     _U2P1L	set	15828
   303   000000                     _U2P2L	set	15830
   304   000000                     _U2P3L	set	15832
   305   000000                     _U2CON0	set	15834
   306   000000                     _U2ERRIE	set	15842
   307   000000                     _U2ERRIR	set	15841
   308   000000                     _U2UIR	set	15840
   309   000000                     _U2FIFO	set	15839
   310   000000                     _U2BRGH	set	15838
   311   000000                     _U2BRGL	set	15837
   312   000000                     _U2CON2	set	15836
   313   000000                     _U2CON1	set	15835
   314                           
   315                           ; #config settings
   316                           
   317                           	psect	cinit
   318   002ABA                     __pcinit:
   319                           	callstack 0
   320   002ABA                     start_initialization:
   321                           	callstack 0
   322   002ABA                     __initialization:
   323                           	callstack 0
   324                           
   325                           ; Clear objects allocated to BANK0 (67 bytes)
   326   002ABA  EE00  F060         	lfsr	0,__pbssBANK0
   327   002ABE  0E43               	movlw	67
   328   002AC0                     clear_0:
   329   002AC0  6AEE               	clrf	postinc0,c
   330   002AC2  06E8               	decf	wreg,f,c
   331   002AC4  E1FD               	bnz	clear_0
   332                           
   333                           ; Clear objects allocated to COMRAM (38 bytes)
   334   002AC6  EE00  F036         	lfsr	0,__pbssCOMRAM
   335   002ACA  0E26               	movlw	38
   336   002ACC                     clear_1:
   337   002ACC  6AEE               	clrf	postinc0,c
   338   002ACE  06E8               	decf	wreg,f,c
   339   002AD0  E1FD               	bnz	clear_1
   340                           
   341                           ;
   342                           ; Setup IVTBASE
   343                           ;
   344   002AD2  0E08               	movlw	(ivt0x8_base shr 0)& (0+255)
   345   002AD4  6ED5               	movwf	213,c
   346   002AD6  0E00               	movlw	(ivt0x8_base shr (0+8))& (0+255)
   347   002AD8  6ED6               	movwf	214,c
   348   002ADA  0E00               	movlw	(ivt0x8_base shr (0+16))& (0+255)
   349   002ADC  6ED7               	movwf	215,c
   350   002ADE                     end_of_initialization:
   351                           	callstack 0
   352   002ADE                     __end_of__initialization:
   353                           	callstack 0
   354   002ADE  0100               	movlb	0
   355   002AE0  EFFD  F013         	goto	_main	;jump to C main() function
   356                           
   357                           	psect	bssCOMRAM
   358   000036                     __pbssCOMRAM:
   359                           	callstack 0
   360   000036                     _UART2_RxCompleteInterruptHandler:
   361                           	callstack 0
   362   000036                     	ds	3
   363   000039                     _UART2_TxCompleteInterruptHandler:
   364                           	callstack 0
   365   000039                     	ds	3
   366   00003C                     _UART2_OverrunErrorHandler:
   367                           	callstack 0
   368   00003C                     	ds	3
   369   00003F                     _UART2_FramingErrorHandler:
   370                           	callstack 0
   371   00003F                     	ds	3
   372   000042                     _INT2_InterruptHandler:
   373                           	callstack 0
   374   000042                     	ds	3
   375   000045                     _INT1_InterruptHandler:
   376                           	callstack 0
   377   000045                     	ds	3
   378   000048                     _INT0_InterruptHandler:
   379                           	callstack 0
   380   000048                     	ds	3
   381   00004B                     _width:
   382                           	callstack 0
   383   00004B                     	ds	2
   384   00004D                     _prec:
   385                           	callstack 0
   386   00004D                     	ds	2
   387   00004F                     _uart2RxLastError:
   388                           	callstack 0
   389   00004F                     	ds	2
   390   000051                     _flags:
   391                           	callstack 0
   392   000051                     	ds	1
   393   000052                     _uart2RxCount:
   394                           	callstack 0
   395   000052                     	ds	1
   396   000053                     _uart2RxTail:
   397                           	callstack 0
   398   000053                     	ds	1
   399   000054                     _uart2RxHead:
   400                           	callstack 0
   401   000054                     	ds	1
   402   000055                     _uart2TxBufferRemaining:
   403                           	callstack 0
   404   000055                     	ds	1
   405   000056                     _uart2TxTail:
   406                           	callstack 0
   407   000056                     	ds	1
   408   000057                     _uart2TxHead:
   409                           	callstack 0
   410   000057                     	ds	1
   411   000058                     _seed:
   412                           	callstack 0
   413   000058                     	ds	4
   414                           
   415                           	psect	bssBANK0
   416   000060                     __pbssBANK0:
   417                           	callstack 0
   418   000060                     _dbuf:
   419                           	callstack 0
   420   000060                     	ds	32
   421   000080                     _uart2RxStatusBuffer:
   422                           	callstack 0
   423   000080                     	ds	16
   424   000090                     _uart2RxBuffer:
   425                           	callstack 0
   426   000090                     	ds	8
   427   000098                     _uart2TxBuffer:
   428                           	callstack 0
   429   000098                     	ds	8
   430   0000A0                     _UART2_ParityErrorHandler:
   431                           	callstack 0
   432   0000A0                     	ds	3
   433                           
   434                           	psect	cstackBANK0
   435   0000A9                     __pcstackBANK0:
   436                           	callstack 0
   437   0000A9                     ??_main:
   438                           
   439                           ; 1 bytes @ 0x0
   440   0000A9                     	ds	2
   441                           
   442                           	psect	cstackCOMRAM
   443   000001                     __pcstackCOMRAM:
   444                           	callstack 0
   445   000001                     UART2_ReceiveISR@regValue:
   446                           	callstack 0
   447   000001                     UART2_TransmitISR@tempTxTail:
   448                           	callstack 0
   449                           
   450                           ; 1 bytes @ 0x0
   451   000001                     	ds	1
   452   000002                     UART2_ReceiveISR@tempRxHead:
   453                           	callstack 0
   454                           
   455                           ; 1 bytes @ 0x1
   456   000002                     	ds	1
   457   000003                     ??_INTERRUPT_InterruptManager:
   458                           
   459                           ; 1 bytes @ 0x2
   460   000003                     	ds	2
   461   000005                     ?___awdiv:
   462                           	callstack 0
   463   000005                     ?_time:
   464                           	callstack 0
   465   000005                     ?___lmul:
   466                           	callstack 0
   467   000005                     UART2_Write@tempTxHead:
   468                           	callstack 0
   469   000005                     ___awdiv@dividend:
   470                           	callstack 0
   471   000005                     time@t:
   472                           	callstack 0
   473   000005                     INT0_SetInterruptHandler@InterruptHandler:
   474                           	callstack 0
   475   000005                     INT1_SetInterruptHandler@InterruptHandler:
   476                           	callstack 0
   477   000005                     INT2_SetInterruptHandler@InterruptHandler:
   478                           	callstack 0
   479   000005                     UART2_FramingErrorCallbackRegister@callbackHandler:
   480                           	callstack 0
   481   000005                     UART2_OverrunErrorCallbackRegister@callbackHandler:
   482                           	callstack 0
   483   000005                     UART2_ParityErrorCallbackRegister@callbackHandler:
   484                           	callstack 0
   485   000005                     ___lmul@multiplier:
   486                           	callstack 0
   487                           
   488                           ; 4 bytes @ 0x4
   489   000005                     	ds	1
   490   000006                     UART2_Write@txData:
   491                           	callstack 0
   492                           
   493                           ; 1 bytes @ 0x5
   494   000006                     	ds	1
   495   000007                     putch@txData:
   496                           	callstack 0
   497   000007                     ___awdiv@divisor:
   498                           	callstack 0
   499                           
   500                           ; 2 bytes @ 0x6
   501   000007                     	ds	1
   502   000008                     fputc@c:
   503                           	callstack 0
   504                           
   505                           ; 2 bytes @ 0x7
   506   000008                     	ds	1
   507   000009                     ___awdiv@counter:
   508                           	callstack 0
   509   000009                     srand@s:
   510                           	callstack 0
   511   000009                     ___lmul@multiplicand:
   512                           	callstack 0
   513                           
   514                           ; 4 bytes @ 0x8
   515   000009                     	ds	1
   516   00000A                     ___awdiv@sign:
   517                           	callstack 0
   518   00000A                     fputc@fp:
   519                           	callstack 0
   520                           
   521                           ; 2 bytes @ 0x9
   522   00000A                     	ds	1
   523   00000B                     ??_srand:
   524   00000B                     ___awdiv@quotient:
   525                           	callstack 0
   526                           
   527                           ; 2 bytes @ 0xA
   528   00000B                     	ds	1
   529   00000C                     ??_fputc:
   530                           
   531                           ; 1 bytes @ 0xB
   532   00000C                     	ds	1
   533   00000D                     ___lmul@product:
   534                           	callstack 0
   535                           
   536                           ; 4 bytes @ 0xC
   537   00000D                     	ds	4
   538   000011                     ?_rand:
   539                           	callstack 0
   540                           
   541                           ; 2 bytes @ 0x10
   542   000011                     	ds	2
   543   000013                     ??_rand:
   544                           
   545                           ; 1 bytes @ 0x12
   546   000013                     	ds	4
   547   000017                     ?___awmod:
   548                           	callstack 0
   549   000017                     ___awmod@dividend:
   550                           	callstack 0
   551                           
   552                           ; 2 bytes @ 0x16
   553   000017                     	ds	2
   554   000019                     ___awmod@divisor:
   555                           	callstack 0
   556                           
   557                           ; 2 bytes @ 0x18
   558   000019                     	ds	2
   559   00001B                     ___awmod@counter:
   560                           	callstack 0
   561                           
   562                           ; 1 bytes @ 0x1A
   563   00001B                     	ds	1
   564   00001C                     ___awmod@sign:
   565                           	callstack 0
   566                           
   567                           ; 1 bytes @ 0x1B
   568   00001C                     	ds	1
   569   00001D                     ?_abs:
   570                           	callstack 0
   571   00001D                     ?_random_number:
   572                           	callstack 0
   573   00001D                     random_number@min_num:
   574                           	callstack 0
   575   00001D                     abs@a:
   576                           	callstack 0
   577                           
   578                           ; 2 bytes @ 0x1C
   579   00001D                     	ds	2
   580   00001F                     ??_abs:
   581   00001F                     random_number@max_num:
   582                           	callstack 0
   583                           
   584                           ; 2 bytes @ 0x1E
   585   00001F                     	ds	2
   586   000021                     ??_random_number:
   587   000021                     vfpfcnvrt@fp:
   588                           	callstack 0
   589                           
   590                           ; 2 bytes @ 0x20
   591   000021                     	ds	1
   592   000022                     random_number@hi_num:
   593                           	callstack 0
   594                           
   595                           ; 2 bytes @ 0x21
   596   000022                     	ds	1
   597   000023                     vfpfcnvrt@fmt:
   598                           	callstack 0
   599                           
   600                           ; 1 bytes @ 0x22
   601   000023                     	ds	1
   602   000024                     vfpfcnvrt@ap:
   603                           	callstack 0
   604   000024                     random_number@low_num:
   605                           	callstack 0
   606                           
   607                           ; 2 bytes @ 0x23
   608   000024                     	ds	1
   609   000025                     ??_vfpfcnvrt:
   610                           
   611                           ; 1 bytes @ 0x24
   612   000025                     	ds	1
   613   000026                     vfpfcnvrt@done:
   614                           	callstack 0
   615                           
   616                           ; 1 bytes @ 0x25
   617   000026                     	ds	1
   618   000027                     vfpfcnvrt@cp:
   619                           	callstack 0
   620                           
   621                           ; 1 bytes @ 0x26
   622   000027                     	ds	1
   623   000028                     vfpfcnvrt@convarg:
   624                           	callstack 0
   625                           
   626                           ; 4 bytes @ 0x27
   627   000028                     	ds	4
   628   00002C                     vfpfcnvrt@c:
   629                           	callstack 0
   630                           
   631                           ; 1 bytes @ 0x2B
   632   00002C                     	ds	1
   633   00002D                     ?_vfprintf:
   634                           	callstack 0
   635   00002D                     vfprintf@fp:
   636                           	callstack 0
   637                           
   638                           ; 2 bytes @ 0x2C
   639   00002D                     	ds	2
   640   00002F                     vfprintf@fmt:
   641                           	callstack 0
   642                           
   643                           ; 1 bytes @ 0x2E
   644   00002F                     	ds	1
   645   000030                     vfprintf@ap:
   646                           	callstack 0
   647                           
   648                           ; 1 bytes @ 0x2F
   649   000030                     	ds	1
   650   000031                     vfprintf@cfmt:
   651                           	callstack 0
   652                           
   653                           ; 1 bytes @ 0x30
   654   000031                     	ds	1
   655   000032                     ?_printf:
   656                           	callstack 0
   657   000032                     printf@fmt:
   658                           	callstack 0
   659                           
   660                           ; 1 bytes @ 0x31
   661   000032                     	ds	3
   662   000035                     printf@ap:
   663                           	callstack 0
   664                           
   665                           ; 1 bytes @ 0x34
   666   000035                     	ds	1
   667                           
   668 ;;
   669 ;;Main: autosize = 0, tempsize = 2, incstack = 0, save=0
   670 ;;
   671 ;; *************** function _main *****************
   672 ;; Defined at:
   673 ;;		line 55 in file "main.c"
   674 ;; Parameters:    Size  Location     Type
   675 ;;		None
   676 ;; Auto vars:     Size  Location     Type
   677 ;;		None
   678 ;; Return value:  Size  Location     Type
   679 ;;                  2   29[None  ] int 
   680 ;; Registers used:
   681 ;;		wreg, fsr1l, fsr1h, fsr2l, fsr2h, status,2, status,0, tblptrl, tblptrh, tblptru, cstack
   682 ;; Tracked objects:
   683 ;;		On entry : 0/0
   684 ;;		On exit  : 0/0
   685 ;;		Unchanged: 0/0
   686 ;; Data sizes:     COMRAM   BANK0   BANK1   BANK2   BANK3   BANK4   BANK5   BANK6   BANK7   BANK8   BANK9  BANK10  BANK1
      +1  BANK12  BANK13  BANK14  BANK15  BANK16  BANK17  BANK18  BANK19  BANK20  BANK21  BANK22  BANK23  BANK24  BANK25  BANK2
      +6  BANK27  BANK28  BANK29  BANK30  BANK31
   687 ;;      Params:         0       0       0       0       0       0       0       0       0       0       0       0       
      +0       0       0       0       0       0       0       0       0       0       0       0       0       0       0       
      +0       0       0       0       0       0
   688 ;;      Locals:         0       0       0       0       0       0       0       0       0       0       0       0       
      +0       0       0       0       0       0       0       0       0       0       0       0       0       0       0       
      +0       0       0       0       0       0
   689 ;;      Temps:          0       2       0       0       0       0       0       0       0       0       0       0       
      +0       0       0       0       0       0       0       0       0       0       0       0       0       0       0       
      +0       0       0       0       0       0
   690 ;;      Totals:         0       2       0       0       0       0       0       0       0       0       0       0       
      +0       0       0       0       0       0       0       0       0       0       0       0       0       0       0       
      +0       0       0       0       0       0
   691 ;;Total ram usage:        2 bytes
   692 ;; Hardware stack levels required when called: 9
   693 ;; This function calls:
   694 ;;		_SYSTEM_Initialize
   695 ;;		_UART2_Initialize
   696 ;;		_printf
   697 ;;		_random_number
   698 ;;		_srand
   699 ;;		_time
   700 ;; This function is called by:
   701 ;;		Startup code after reset
   702 ;; This function uses a non-reentrant model
   703 ;;
   704                           
   705                           	psect	text0
   706   0027FA                     __ptext0:
   707                           	callstack 0
   708   0027FA                     _main:
   709                           	callstack 22
   710   0027FA                     
   711                           ;main.c: 57:     SYSTEM_Initialize();
   712   0027FA  ECE5  F015         	call	_SYSTEM_Initialize	;wreg free
   713                           
   714                           ;main.c: 58:     UART2_Initialize();
   715   0027FE  ECC1  F012         	call	_UART2_Initialize	;wreg free
   716   002802                     
   717                           ;main.c: 59:     srand(time(((void*)0)));
   718   002802  0E00               	movlw	0
   719   002804  6E05               	movwf	time@t^0,c
   720   002806  0E00               	movlw	0
   721   002808  6E06               	movwf	(time@t+1)^0,c
   722   00280A  EC0D  F015         	call	_time	;wreg free
   723   00280E  C005  F009         	movff	?_time,srand@s
   724   002812  C006  F00A         	movff	?_time+1,srand@s+1
   725   002816  ECB4  F015         	call	_srand	;wreg free
   726   00281A                     
   727                           ;main.c: 66:     (INTCON0bits.GIE = 1);
   728   00281A  8ED2               	bsf	210,7,c	;volatile
   729   00281C                     
   730                           ;main.c: 71:     printf("Hello World....\r\n");
   731   00281C  0E49               	movlw	low STR_1
   732   00281E  6E32               	movwf	printf@fmt^0,c
   733   002820  ECC1  F015         	call	_printf	;wreg free
   734   002824                     l2271:
   735                           
   736                           ;main.c: 73:     {;main.c: 75:         printf("%d\r\n", random_number(1,100));
   737   002824  0E5B               	movlw	low STR_2
   738   002826  6E32               	movwf	printf@fmt^0,c
   739   002828  0E00               	movlw	0
   740   00282A  6E1E               	movwf	(random_number@min_num+1)^0,c
   741   00282C  0E01               	movlw	1
   742   00282E  6E1D               	movwf	random_number@min_num^0,c
   743   002830  0E00               	movlw	0
   744   002832  6E20               	movwf	(random_number@max_num+1)^0,c
   745   002834  0E64               	movlw	100
   746   002836  6E1F               	movwf	random_number@max_num^0,c
   747   002838  ECBB  F013         	call	_random_number	;wreg free
   748   00283C  C01D  F033         	movff	?_random_number,?_printf+1
   749   002840  C01E  F034         	movff	?_random_number+1,?_printf+2
   750   002844  ECC1  F015         	call	_printf	;wreg free
   751   002848                     
   752                           ;main.c: 76:         _delay((unsigned long)((1000)*(64000000/4000.0)));
   753   002848  0E52               	movlw	82
   754   00284A  0100               	movlb	0	; () banked
   755   00284C  6FAA               	movwf	(??_main+1)& (0+255),b
   756   00284E  0E2B               	movlw	43
   757   002850  6FA9               	movwf	??_main& (0+255),b
   758   002852  0E00               	movlw	0
   759   002854                     u1267:
   760   002854  2EE8               	decfsz	wreg,f,c
   761   002856  D7FE               	bra	u1267
   762   002858  2FA9               	decfsz	??_main& (0+255),f,b
   763   00285A  D7FC               	bra	u1267
   764   00285C  2FAA               	decfsz	(??_main+1)& (0+255),f,b
   765   00285E  D7FA               	bra	u1267
   766   002860  0000               	nop	
   767   002862  EF12  F014         	goto	l2271
   768   002866  EF0D  F000         	goto	start
   769   00286A                     __end_of_main:
   770                           	callstack 0
   771                           
   772 ;; *************** function _time *****************
   773 ;; Defined at:
   774 ;;		line 3 in file "C:\Program Files\Microchip\xc8\v2.46\pic\sources\c99\common\time.c"
   775 ;; Parameters:    Size  Location     Type
   776 ;;  t               2    4[COMRAM] PTR unsigned long 
   777 ;;		 -> NULL(0), 
   778 ;; Auto vars:     Size  Location     Type
   779 ;;		None
   780 ;; Return value:  Size  Location     Type
   781 ;;                  4    4[COMRAM] unsigned long 
   782 ;; Registers used:
   783 ;;		wreg, fsr2l, fsr2h, status,2, status,0
   784 ;; Tracked objects:
   785 ;;		On entry : 0/0
   786 ;;		On exit  : 0/0
   787 ;;		Unchanged: 0/0
   788 ;; Data sizes:     COMRAM   BANK0   BANK1   BANK2   BANK3   BANK4   BANK5   BANK6   BANK7   BANK8   BANK9  BANK10  BANK1
      +1  BANK12  BANK13  BANK14  BANK15  BANK16  BANK17  BANK18  BANK19  BANK20  BANK21  BANK22  BANK23  BANK24  BANK25  BANK2
      +6  BANK27  BANK28  BANK29  BANK30  BANK31
   789 ;;      Params:         4       0       0       0       0       0       0       0       0       0       0       0       
      +0       0       0       0       0       0       0       0       0       0       0       0       0       0       0       
      +0       0       0       0       0       0
   790 ;;      Locals:         0       0       0       0       0       0       0       0       0       0       0       0       
      +0       0       0       0       0       0       0       0       0       0       0       0       0       0       0       
      +0       0       0       0       0       0
   791 ;;      Temps:          0       0       0       0       0       0       0       0       0       0       0       0       
      +0       0       0       0       0       0       0       0       0       0       0       0       0       0       0       
      +0       0       0       0       0       0
   792 ;;      Totals:         4       0       0       0       0       0       0       0       0       0       0       0       
      +0       0       0       0       0       0       0       0       0       0       0       0       0       0       0       
      +0       0       0       0       0       0
   793 ;;Total ram usage:        4 bytes
   794 ;; Hardware stack levels used: 1
   795 ;; Hardware stack levels required when called: 3
   796 ;; This function calls:
   797 ;;		Nothing
   798 ;; This function is called by:
   799 ;;		_main
   800 ;; This function uses a non-reentrant model
   801 ;;
   802                           
   803                           	psect	text1
   804   002A1A                     __ptext1:
   805                           	callstack 0
   806   002A1A                     _time:
   807                           	callstack 27
   808   002A1A  5005               	movf	time@t^0,w,c
   809   002A1C  1006               	iorwf	(time@t+1)^0,w,c
   810   002A1E  B4D8               	btfsc	status,2,c
   811   002A20  EF14  F015         	goto	u1091
   812   002A24  EF16  F015         	goto	u1090
   813   002A28                     u1091:
   814   002A28  EF24  F015         	goto	l2151
   815   002A2C                     u1090:
   816   002A2C  0060  F017  FFD9   	movff	time@t,fsr2l
   817   002A32  0060  F01B  FFDA   	movff	time@t+1,fsr2h
   818   002A38  0EFF               	movlw	255
   819   002A3A  6EDE               	movwf	postinc2,c
   820   002A3C  0EFF               	movlw	255
   821   002A3E  6EDE               	movwf	postinc2,c
   822   002A40  0EFF               	movlw	255
   823   002A42  6EDE               	movwf	postinc2,c
   824   002A44  0EFF               	movlw	255
   825   002A46  6EDD               	movwf	postdec2,c
   826   002A48                     l2151:
   827   002A48  6805               	setf	?_time^0,c
   828   002A4A  6806               	setf	(?_time+1)^0,c
   829   002A4C  6807               	setf	(?_time+2)^0,c
   830   002A4E  6808               	setf	(?_time+3)^0,c
   831   002A50  0012               	return		;funcret
   832   002A52                     __end_of_time:
   833                           	callstack 0
   834                           
   835 ;; *************** function _srand *****************
   836 ;; Defined at:
   837 ;;		line 6 in file "C:\Program Files\Microchip\xc8\v2.46\pic\sources\c99\common\rand.c"
   838 ;; Parameters:    Size  Location     Type
   839 ;;  s               2    8[COMRAM] unsigned int 
   840 ;; Auto vars:     Size  Location     Type
   841 ;;		None
   842 ;; Return value:  Size  Location     Type
   843 ;;                  1    wreg      void 
   844 ;; Registers used:
   845 ;;		wreg, status,2, status,0
   846 ;; Tracked objects:
   847 ;;		On entry : 0/0
   848 ;;		On exit  : 0/0
   849 ;;		Unchanged: 0/0
   850 ;; Data sizes:     COMRAM   BANK0   BANK1   BANK2   BANK3   BANK4   BANK5   BANK6   BANK7   BANK8   BANK9  BANK10  BANK1
      +1  BANK12  BANK13  BANK14  BANK15  BANK16  BANK17  BANK18  BANK19  BANK20  BANK21  BANK22  BANK23  BANK24  BANK25  BANK2
      +6  BANK27  BANK28  BANK29  BANK30  BANK31
   851 ;;      Params:         2       0       0       0       0       0       0       0       0       0       0       0       
      +0       0       0       0       0       0       0       0       0       0       0       0       0       0       0       
      +0       0       0       0       0       0
   852 ;;      Locals:         0       0       0       0       0       0       0       0       0       0       0       0       
      +0       0       0       0       0       0       0       0       0       0       0       0       0       0       0       
      +0       0       0       0       0       0
   853 ;;      Temps:          2       0       0       0       0       0       0       0       0       0       0       0       
      +0       0       0       0       0       0       0       0       0       0       0       0       0       0       0       
      +0       0       0       0       0       0
   854 ;;      Totals:         4       0       0       0       0       0       0       0       0       0       0       0       
      +0       0       0       0       0       0       0       0       0       0       0       0       0       0       0       
      +0       0       0       0       0       0
   855 ;;Total ram usage:        4 bytes
   856 ;; Hardware stack levels used: 1
   857 ;; Hardware stack levels required when called: 3
   858 ;; This function calls:
   859 ;;		Nothing
   860 ;; This function is called by:
   861 ;;		_main
   862 ;; This function uses a non-reentrant model
   863 ;;
   864                           
   865                           	psect	text2
   866   002B68                     __ptext2:
   867                           	callstack 0
   868   002B68                     _srand:
   869                           	callstack 27
   870   002B68  0EFF               	movlw	255
   871   002B6A  2409               	addwf	srand@s^0,w,c
   872   002B6C  6E0B               	movwf	??_srand^0,c
   873   002B6E  0EFF               	movlw	255
   874   002B70  200A               	addwfc	(srand@s+1)^0,w,c
   875   002B72  6E0C               	movwf	(??_srand+1)^0,c
   876   002B74  C00B  F058         	movff	??_srand,_seed
   877   002B78  C00C  F059         	movff	??_srand+1,_seed+1
   878   002B7C  6A5A               	clrf	(_seed+2)^0,c
   879   002B7E  6A5B               	clrf	(_seed+3)^0,c
   880   002B80  0012               	return		;funcret
   881   002B82                     __end_of_srand:
   882                           	callstack 0
   883                           
   884 ;; *************** function _random_number *****************
   885 ;; Defined at:
   886 ;;		line 40 in file "main.c"
   887 ;; Parameters:    Size  Location     Type
   888 ;;  min_num         2   28[COMRAM] int 
   889 ;;  max_num         2   30[COMRAM] int 
   890 ;; Auto vars:     Size  Location     Type
   891 ;;  low_num         2   35[COMRAM] int 
   892 ;;  hi_num          2   33[COMRAM] int 
   893 ;;  result          2    0        int 
   894 ;; Return value:  Size  Location     Type
   895 ;;                  2   28[COMRAM] int 
   896 ;; Registers used:
   897 ;;		wreg, status,2, status,0, cstack
   898 ;; Tracked objects:
   899 ;;		On entry : 0/0
   900 ;;		On exit  : 0/0
   901 ;;		Unchanged: 0/0
   902 ;; Data sizes:     COMRAM   BANK0   BANK1   BANK2   BANK3   BANK4   BANK5   BANK6   BANK7   BANK8   BANK9  BANK10  BANK1
      +1  BANK12  BANK13  BANK14  BANK15  BANK16  BANK17  BANK18  BANK19  BANK20  BANK21  BANK22  BANK23  BANK24  BANK25  BANK2
      +6  BANK27  BANK28  BANK29  BANK30  BANK31
   903 ;;      Params:         4       0       0       0       0       0       0       0       0       0       0       0       
      +0       0       0       0       0       0       0       0       0       0       0       0       0       0       0       
      +0       0       0       0       0       0
   904 ;;      Locals:         4       0       0       0       0       0       0       0       0       0       0       0       
      +0       0       0       0       0       0       0       0       0       0       0       0       0       0       0       
      +0       0       0       0       0       0
   905 ;;      Temps:          1       0       0       0       0       0       0       0       0       0       0       0       
      +0       0       0       0       0       0       0       0       0       0       0       0       0       0       0       
      +0       0       0       0       0       0
   906 ;;      Totals:         9       0       0       0       0       0       0       0       0       0       0       0       
      +0       0       0       0       0       0       0       0       0       0       0       0       0       0       0       
      +0       0       0       0       0       0
   907 ;;Total ram usage:        9 bytes
   908 ;; Hardware stack levels used: 1
   909 ;; Hardware stack levels required when called: 5
   910 ;; This function calls:
   911 ;;		___awmod
   912 ;;		_rand
   913 ;; This function is called by:
   914 ;;		_main
   915 ;; This function uses a non-reentrant model
   916 ;;
   917                           
   918                           	psect	text3
   919   002776                     __ptext3:
   920                           	callstack 0
   921   002776                     _random_number:
   922                           	callstack 25
   923   002776  0E00               	movlw	0
   924   002778  6E25               	movwf	(random_number@low_num+1)^0,c
   925   00277A  0E00               	movlw	0
   926   00277C  6E24               	movwf	random_number@low_num^0,c
   927   00277E  0E00               	movlw	0
   928   002780  6E23               	movwf	(random_number@hi_num+1)^0,c
   929   002782  0E00               	movlw	0
   930   002784  6E22               	movwf	random_number@hi_num^0,c
   931   002786                     
   932                           ;main.c: 44:     if (min_num < max_num)
   933   002786  501F               	movf	random_number@max_num^0,w,c
   934   002788  5C1D               	subwf	random_number@min_num^0,w,c
   935   00278A  501E               	movf	(random_number@min_num+1)^0,w,c
   936   00278C  0A80               	xorlw	128
   937   00278E  6E21               	movwf	??_random_number^0,c
   938   002790  5020               	movf	(random_number@max_num+1)^0,w,c
   939   002792  0A80               	xorlw	128
   940   002794  5821               	subwfb	??_random_number^0,w,c
   941   002796  B0D8               	btfsc	status,0,c
   942   002798  EFD0  F013         	goto	u1081
   943   00279C  EFD2  F013         	goto	u1080
   944   0027A0                     u1081:
   945   0027A0  EFDE  F013         	goto	l2133
   946   0027A4                     u1080:
   947   0027A4                     
   948                           ;main.c: 45:     {;main.c: 46:         low_num = min_num;
   949   0027A4  C01D  F024         	movff	random_number@min_num,random_number@low_num
   950   0027A8  C01E  F025         	movff	random_number@min_num+1,random_number@low_num+1
   951   0027AC                     
   952                           ;main.c: 47:         hi_num = max_num + 1;
   953   0027AC  0E01               	movlw	1
   954   0027AE  241F               	addwf	random_number@max_num^0,w,c
   955   0027B0  6E22               	movwf	random_number@hi_num^0,c
   956   0027B2  0E00               	movlw	0
   957   0027B4  2020               	addwfc	(random_number@max_num+1)^0,w,c
   958   0027B6  6E23               	movwf	(random_number@hi_num+1)^0,c
   959                           
   960                           ;main.c: 48:     } else {
   961   0027B8  EFE8  F013         	goto	l2137
   962   0027BC                     l2133:
   963                           
   964                           ;main.c: 49:         low_num = max_num + 1;
   965   0027BC  0E01               	movlw	1
   966   0027BE  241F               	addwf	random_number@max_num^0,w,c
   967   0027C0  6E24               	movwf	random_number@low_num^0,c
   968   0027C2  0E00               	movlw	0
   969   0027C4  2020               	addwfc	(random_number@max_num+1)^0,w,c
   970   0027C6  6E25               	movwf	(random_number@low_num+1)^0,c
   971   0027C8                     
   972                           ;main.c: 50:         hi_num = min_num;
   973   0027C8  C01D  F022         	movff	random_number@min_num,random_number@hi_num
   974   0027CC  C01E  F023         	movff	random_number@min_num+1,random_number@hi_num+1
   975   0027D0                     l2137:
   976                           
   977                           ;main.c: 53:     return (rand() % (hi_num - low_num)) + low_num;
   978   0027D0  EC35  F014         	call	_rand	;wreg free
   979   0027D4  C011  F017         	movff	?_rand,___awmod@dividend
   980   0027D8  C012  F018         	movff	?_rand+1,___awmod@dividend+1
   981   0027DC  5024               	movf	random_number@low_num^0,w,c
   982   0027DE  5C22               	subwf	random_number@hi_num^0,w,c
   983   0027E0  6E19               	movwf	___awmod@divisor^0,c
   984   0027E2  5025               	movf	(random_number@low_num+1)^0,w,c
   985   0027E4  5823               	subwfb	(random_number@hi_num+1)^0,w,c
   986   0027E6  6E1A               	movwf	(___awmod@divisor+1)^0,c
   987   0027E8  EC1B  F013         	call	___awmod	;wreg free
   988   0027EC  5024               	movf	random_number@low_num^0,w,c
   989   0027EE  2417               	addwf	?___awmod^0,w,c
   990   0027F0  6E1D               	movwf	?_random_number^0,c
   991   0027F2  5025               	movf	(random_number@low_num+1)^0,w,c
   992   0027F4  2018               	addwfc	(?___awmod+1)^0,w,c
   993   0027F6  6E1E               	movwf	(?_random_number+1)^0,c
   994   0027F8  0012               	return		;funcret
   995   0027FA                     __end_of_random_number:
   996                           	callstack 0
   997                           
   998 ;; *************** function _rand *****************
   999 ;; Defined at:
  1000 ;;		line 11 in file "C:\Program Files\Microchip\xc8\v2.46\pic\sources\c99\common\rand.c"
  1001 ;; Parameters:    Size  Location     Type
  1002 ;;		None
  1003 ;; Auto vars:     Size  Location     Type
  1004 ;;		None
  1005 ;; Return value:  Size  Location     Type
  1006 ;;                  2   16[COMRAM] int 
  1007 ;; Registers used:
  1008 ;;		wreg, status,2, status,0, cstack
  1009 ;; Tracked objects:
  1010 ;;		On entry : 0/0
  1011 ;;		On exit  : 0/0
  1012 ;;		Unchanged: 0/0
  1013 ;; Data sizes:     COMRAM   BANK0   BANK1   BANK2   BANK3   BANK4   BANK5   BANK6   BANK7   BANK8   BANK9  BANK10  BANK1
      +1  BANK12  BANK13  BANK14  BANK15  BANK16  BANK17  BANK18  BANK19  BANK20  BANK21  BANK22  BANK23  BANK24  BANK25  BANK2
      +6  BANK27  BANK28  BANK29  BANK30  BANK31
  1014 ;;      Params:         2       0       0       0       0       0       0       0       0       0       0       0       
      +0       0       0       0       0       0       0       0       0       0       0       0       0       0       0       
      +0       0       0       0       0       0
  1015 ;;      Locals:         0       0       0       0       0       0       0       0       0       0       0       0       
      +0       0       0       0       0       0       0       0       0       0       0       0       0       0       0       
      +0       0       0       0       0       0
  1016 ;;      Temps:          4       0       0       0       0       0       0       0       0       0       0       0       
      +0       0       0       0       0       0       0       0       0       0       0       0       0       0       0       
      +0       0       0       0       0       0
  1017 ;;      Totals:         6       0       0       0       0       0       0       0       0       0       0       0       
      +0       0       0       0       0       0       0       0       0       0       0       0       0       0       0       
      +0       0       0       0       0       0
  1018 ;;Total ram usage:        6 bytes
  1019 ;; Hardware stack levels used: 1
  1020 ;; Hardware stack levels required when called: 4
  1021 ;; This function calls:
  1022 ;;		___lmul
  1023 ;; This function is called by:
  1024 ;;		_random_number
  1025 ;; This function uses a non-reentrant model
  1026 ;;
  1027                           
  1028                           	psect	text4
  1029   00286A                     __ptext4:
  1030                           	callstack 0
  1031   00286A                     _rand:
  1032                           	callstack 25
  1033   00286A  C058  F005         	movff	_seed,___lmul@multiplier
  1034   00286E  C059  F006         	movff	_seed+1,___lmul@multiplier+1
  1035   002872  C05A  F007         	movff	_seed+2,___lmul@multiplier+2
  1036   002876  C05B  F008         	movff	_seed+3,___lmul@multiplier+3
  1037   00287A  0E2D               	movlw	45
  1038   00287C  6E09               	movwf	___lmul@multiplicand^0,c
  1039   00287E  0E7F               	movlw	127
  1040   002880  6E0A               	movwf	(___lmul@multiplicand+1)^0,c
  1041   002882  0E95               	movlw	149
  1042   002884  6E0B               	movwf	(___lmul@multiplicand+2)^0,c
  1043   002886  0E4C               	movlw	76
  1044   002888  6E0C               	movwf	(___lmul@multiplicand+3)^0,c
  1045   00288A  EC6B  F014         	call	___lmul	;wreg free
  1046   00288E  0E01               	movlw	1
  1047   002890  2405               	addwf	?___lmul^0,w,c
  1048   002892  6E58               	movwf	_seed^0,c
  1049   002894  0E00               	movlw	0
  1050   002896  2006               	addwfc	(?___lmul+1)^0,w,c
  1051   002898  6E59               	movwf	(_seed+1)^0,c
  1052   00289A  0E00               	movlw	0
  1053   00289C  2007               	addwfc	(?___lmul+2)^0,w,c
  1054   00289E  6E5A               	movwf	(_seed+2)^0,c
  1055   0028A0  0E00               	movlw	0
  1056   0028A2  2008               	addwfc	(?___lmul+3)^0,w,c
  1057   0028A4  6E5B               	movwf	(_seed+3)^0,c
  1058   0028A6  C058  F013         	movff	_seed,??_rand
  1059   0028AA  C059  F014         	movff	_seed+1,??_rand+1
  1060   0028AE  C05A  F015         	movff	_seed+2,??_rand+2
  1061   0028B2  C05B  F016         	movff	_seed+3,??_rand+3
  1062   0028B6  0E12               	movlw	18
  1063   0028B8  EF63  F014         	goto	u1060
  1064   0028BC                     u1065:
  1065   0028BC  90D8               	bcf	status,0,c
  1066   0028BE  3216               	rrcf	(??_rand+3)^0,f,c
  1067   0028C0  3215               	rrcf	(??_rand+2)^0,f,c
  1068   0028C2  3214               	rrcf	(??_rand+1)^0,f,c
  1069   0028C4  3213               	rrcf	??_rand^0,f,c
  1070   0028C6                     u1060:
  1071   0028C6  2EE8               	decfsz	wreg,f,c
  1072   0028C8  EF5E  F014         	goto	u1065
  1073   0028CC  C013  F011         	movff	??_rand,?_rand
  1074   0028D0  C014  F012         	movff	??_rand+1,?_rand+1
  1075   0028D4  0012               	return		;funcret
  1076   0028D6                     __end_of_rand:
  1077                           	callstack 0
  1078                           
  1079 ;; *************** function ___lmul *****************
  1080 ;; Defined at:
  1081 ;;		line 15 in file "C:\Program Files\Microchip\xc8\v2.46\pic\sources\c99\common\Umul32.c"
  1082 ;; Parameters:    Size  Location     Type
  1083 ;;  multiplier      4    4[COMRAM] unsigned long 
  1084 ;;  multiplicand    4    8[COMRAM] unsigned long 
  1085 ;; Auto vars:     Size  Location     Type
  1086 ;;  product         4   12[COMRAM] unsigned long 
  1087 ;; Return value:  Size  Location     Type
  1088 ;;                  4    4[COMRAM] unsigned long 
  1089 ;; Registers used:
  1090 ;;		wreg, status,2, status,0
  1091 ;; Tracked objects:
  1092 ;;		On entry : 0/0
  1093 ;;		On exit  : 0/0
  1094 ;;		Unchanged: 0/0
  1095 ;; Data sizes:     COMRAM   BANK0   BANK1   BANK2   BANK3   BANK4   BANK5   BANK6   BANK7   BANK8   BANK9  BANK10  BANK1
      +1  BANK12  BANK13  BANK14  BANK15  BANK16  BANK17  BANK18  BANK19  BANK20  BANK21  BANK22  BANK23  BANK24  BANK25  BANK2
      +6  BANK27  BANK28  BANK29  BANK30  BANK31
  1096 ;;      Params:         8       0       0       0       0       0       0       0       0       0       0       0       
      +0       0       0       0       0       0       0       0       0       0       0       0       0       0       0       
      +0       0       0       0       0       0
  1097 ;;      Locals:         4       0       0       0       0       0       0       0       0       0       0       0       
      +0       0       0       0       0       0       0       0       0       0       0       0       0       0       0       
      +0       0       0       0       0       0
  1098 ;;      Temps:          0       0       0       0       0       0       0       0       0       0       0       0       
      +0       0       0       0       0       0       0       0       0       0       0       0       0       0       0       
      +0       0       0       0       0       0
  1099 ;;      Totals:        12       0       0       0       0       0       0       0       0       0       0       0       
      +0       0       0       0       0       0       0       0       0       0       0       0       0       0       0       
      +0       0       0       0       0       0
  1100 ;;Total ram usage:       12 bytes
  1101 ;; Hardware stack levels used: 1
  1102 ;; Hardware stack levels required when called: 3
  1103 ;; This function calls:
  1104 ;;		Nothing
  1105 ;; This function is called by:
  1106 ;;		_rand
  1107 ;; This function uses a non-reentrant model
  1108 ;;
  1109                           
  1110                           	psect	text5
  1111   0028D6                     __ptext5:
  1112                           	callstack 0
  1113   0028D6                     ___lmul:
  1114                           	callstack 25
  1115   0028D6  0E00               	movlw	0
  1116   0028D8  6E0D               	movwf	___lmul@product^0,c
  1117   0028DA  0E00               	movlw	0
  1118   0028DC  6E0E               	movwf	(___lmul@product+1)^0,c
  1119   0028DE  0E00               	movlw	0
  1120   0028E0  6E0F               	movwf	(___lmul@product+2)^0,c
  1121   0028E2  0E00               	movlw	0
  1122   0028E4  6E10               	movwf	(___lmul@product+3)^0,c
  1123   0028E6                     l1983:
  1124   0028E6  A005               	btfss	___lmul@multiplier^0,0,c
  1125   0028E8  EF78  F014         	goto	u941
  1126   0028EC  EF7A  F014         	goto	u940
  1127   0028F0                     u941:
  1128   0028F0  EF82  F014         	goto	l1987
  1129   0028F4                     u940:
  1130   0028F4  5009               	movf	___lmul@multiplicand^0,w,c
  1131   0028F6  260D               	addwf	___lmul@product^0,f,c
  1132   0028F8  500A               	movf	(___lmul@multiplicand+1)^0,w,c
  1133   0028FA  220E               	addwfc	(___lmul@product+1)^0,f,c
  1134   0028FC  500B               	movf	(___lmul@multiplicand+2)^0,w,c
  1135   0028FE  220F               	addwfc	(___lmul@product+2)^0,f,c
  1136   002900  500C               	movf	(___lmul@multiplicand+3)^0,w,c
  1137   002902  2210               	addwfc	(___lmul@product+3)^0,f,c
  1138   002904                     l1987:
  1139   002904  90D8               	bcf	status,0,c
  1140   002906  3609               	rlcf	___lmul@multiplicand^0,f,c
  1141   002908  360A               	rlcf	(___lmul@multiplicand+1)^0,f,c
  1142   00290A  360B               	rlcf	(___lmul@multiplicand+2)^0,f,c
  1143   00290C  360C               	rlcf	(___lmul@multiplicand+3)^0,f,c
  1144   00290E  90D8               	bcf	status,0,c
  1145   002910  3208               	rrcf	(___lmul@multiplier+3)^0,f,c
  1146   002912  3207               	rrcf	(___lmul@multiplier+2)^0,f,c
  1147   002914  3206               	rrcf	(___lmul@multiplier+1)^0,f,c
  1148   002916  3205               	rrcf	___lmul@multiplier^0,f,c
  1149   002918  5005               	movf	___lmul@multiplier^0,w,c
  1150   00291A  1006               	iorwf	(___lmul@multiplier+1)^0,w,c
  1151   00291C  1007               	iorwf	(___lmul@multiplier+2)^0,w,c
  1152   00291E  1008               	iorwf	(___lmul@multiplier+3)^0,w,c
  1153   002920  A4D8               	btfss	status,2,c
  1154   002922  EF95  F014         	goto	u951
  1155   002926  EF97  F014         	goto	u950
  1156   00292A                     u951:
  1157   00292A  EF73  F014         	goto	l1983
  1158   00292E                     u950:
  1159   00292E  C00D  F005         	movff	___lmul@product,?___lmul
  1160   002932  C00E  F006         	movff	___lmul@product+1,?___lmul+1
  1161   002936  C00F  F007         	movff	___lmul@product+2,?___lmul+2
  1162   00293A  C010  F008         	movff	___lmul@product+3,?___lmul+3
  1163   00293E  0012               	return		;funcret
  1164   002940                     __end_of___lmul:
  1165                           	callstack 0
  1166                           
  1167 ;; *************** function _printf *****************
  1168 ;; Defined at:
  1169 ;;		line 5 in file "C:\Program Files\Microchip\xc8\v2.46\pic\sources\c99\common\printf.c"
  1170 ;; Parameters:    Size  Location     Type
  1171 ;;  fmt             1   49[COMRAM] PTR const unsigned char 
  1172 ;;		 -> STR_2(5), STR_1(18), 
  1173 ;; Auto vars:     Size  Location     Type
  1174 ;;  ret             2    0        int 
  1175 ;;  ap              1   52[COMRAM] PTR void [1]
  1176 ;;		 -> ?_printf(2), 
  1177 ;; Return value:  Size  Location     Type
  1178 ;;                  2   49[COMRAM] int 
  1179 ;; Registers used:
  1180 ;;		wreg, fsr1l, fsr1h, fsr2l, fsr2h, status,2, status,0, tblptrl, tblptrh, tblptru, cstack
  1181 ;; Tracked objects:
  1182 ;;		On entry : 0/0
  1183 ;;		On exit  : 0/0
  1184 ;;		Unchanged: 0/0
  1185 ;; Data sizes:     COMRAM   BANK0   BANK1   BANK2   BANK3   BANK4   BANK5   BANK6   BANK7   BANK8   BANK9  BANK10  BANK1
      +1  BANK12  BANK13  BANK14  BANK15  BANK16  BANK17  BANK18  BANK19  BANK20  BANK21  BANK22  BANK23  BANK24  BANK25  BANK2
      +6  BANK27  BANK28  BANK29  BANK30  BANK31
  1186 ;;      Params:         3       0       0       0       0       0       0       0       0       0       0       0       
      +0       0       0       0       0       0       0       0       0       0       0       0       0       0       0       
      +0       0       0       0       0       0
  1187 ;;      Locals:         1       0       0       0       0       0       0       0       0       0       0       0       
      +0       0       0       0       0       0       0       0       0       0       0       0       0       0       0       
      +0       0       0       0       0       0
  1188 ;;      Temps:          0       0       0       0       0       0       0       0       0       0       0       0       
      +0       0       0       0       0       0       0       0       0       0       0       0       0       0       0       
      +0       0       0       0       0       0
  1189 ;;      Totals:         4       0       0       0       0       0       0       0       0       0       0       0       
      +0       0       0       0       0       0       0       0       0       0       0       0       0       0       0       
      +0       0       0       0       0       0
  1190 ;;Total ram usage:        4 bytes
  1191 ;; Hardware stack levels used: 1
  1192 ;; Hardware stack levels required when called: 8
  1193 ;; This function calls:
  1194 ;;		_vfprintf
  1195 ;; This function is called by:
  1196 ;;		_main
  1197 ;; This function uses a non-reentrant model
  1198 ;;
  1199                           
  1200                           	psect	text6
  1201   002B82                     __ptext6:
  1202                           	callstack 0
  1203   002B82                     _printf:
  1204                           	callstack 22
  1205   002B82  0E33               	movlw	low (?_printf+1)
  1206   002B84  6E35               	movwf	printf@ap^0,c
  1207   002B86  0E00               	movlw	0
  1208   002B88  6E2D               	movwf	vfprintf@fp^0,c
  1209   002B8A  0E00               	movlw	0
  1210   002B8C  6E2E               	movwf	(vfprintf@fp+1)^0,c
  1211   002B8E  C032  F02F         	movff	printf@fmt,vfprintf@fmt
  1212   002B92  0E35               	movlw	low printf@ap
  1213   002B94  6E30               	movwf	vfprintf@ap^0,c
  1214   002B96  ECC6  F014         	call	_vfprintf	;wreg free
  1215   002B9A  0012               	return		;funcret
  1216   002B9C                     __end_of_printf:
  1217                           	callstack 0
  1218                           
  1219 ;; *************** function _vfprintf *****************
  1220 ;; Defined at:
  1221 ;;		line 1817 in file "C:\Program Files\Microchip\xc8\v2.46\pic\sources\c99\common\doprnt.c"
  1222 ;; Parameters:    Size  Location     Type
  1223 ;;  fp              2   44[COMRAM] PTR struct _IO_FILE
  1224 ;;		 -> NULL(0), 
  1225 ;;  fmt             1   46[COMRAM] PTR const unsigned char 
  1226 ;;		 -> STR_2(5), STR_1(18), 
  1227 ;;  ap              1   47[COMRAM] PTR PTR void 
  1228 ;;		 -> printf@ap(1), 
  1229 ;; Auto vars:     Size  Location     Type
  1230 ;;  cfmt            1   48[COMRAM] PTR unsigned char 
  1231 ;;		 -> STR_2(5), STR_1(18), 
  1232 ;; Return value:  Size  Location     Type
  1233 ;;                  2   44[COMRAM] int 
  1234 ;; Registers used:
  1235 ;;		wreg, fsr1l, fsr1h, fsr2l, fsr2h, status,2, status,0, tblptrl, tblptrh, tblptru, cstack
  1236 ;; Tracked objects:
  1237 ;;		On entry : 0/0
  1238 ;;		On exit  : 0/0
  1239 ;;		Unchanged: 0/0
  1240 ;; Data sizes:     COMRAM   BANK0   BANK1   BANK2   BANK3   BANK4   BANK5   BANK6   BANK7   BANK8   BANK9  BANK10  BANK1
      +1  BANK12  BANK13  BANK14  BANK15  BANK16  BANK17  BANK18  BANK19  BANK20  BANK21  BANK22  BANK23  BANK24  BANK25  BANK2
      +6  BANK27  BANK28  BANK29  BANK30  BANK31
  1241 ;;      Params:         4       0       0       0       0       0       0       0       0       0       0       0       
      +0       0       0       0       0       0       0       0       0       0       0       0       0       0       0       
      +0       0       0       0       0       0
  1242 ;;      Locals:         1       0       0       0       0       0       0       0       0       0       0       0       
      +0       0       0       0       0       0       0       0       0       0       0       0       0       0       0       
      +0       0       0       0       0       0
  1243 ;;      Temps:          0       0       0       0       0       0       0       0       0       0       0       0       
      +0       0       0       0       0       0       0       0       0       0       0       0       0       0       0       
      +0       0       0       0       0       0
  1244 ;;      Totals:         5       0       0       0       0       0       0       0       0       0       0       0       
      +0       0       0       0       0       0       0       0       0       0       0       0       0       0       0       
      +0       0       0       0       0       0
  1245 ;;Total ram usage:        5 bytes
  1246 ;; Hardware stack levels used: 1
  1247 ;; Hardware stack levels required when called: 7
  1248 ;; This function calls:
  1249 ;;		_vfpfcnvrt
  1250 ;; This function is called by:
  1251 ;;		_printf
  1252 ;; This function uses a non-reentrant model
  1253 ;;
  1254                           
  1255                           	psect	text7
  1256   00298C                     __ptext7:
  1257                           	callstack 0
  1258   00298C                     _vfprintf:
  1259                           	callstack 22
  1260   00298C                     
  1261                           ;C:\Program Files\Microchip\xc8\v2.46\pic\sources\c99\common\doprnt.c: 1817: int vfprint
      +                          f(FILE *fp, const char *fmt, va_list ap);C:\Program Files\Microchip\xc8\v2.46\pic\source
      +                          s\c99\common\doprnt.c: 1818: {;C:\Program Files\Microchip\xc8\v2.46\pic\sources\c99\comm
      +                          on\doprnt.c: 1820:     char *cfmt;;C:\Program Files\Microchip\xc8\v2.46\pic\sources\c99\
      +                          common\doprnt.c: 1822:     cfmt = (char *)fmt;
  1262   00298C  C02F  F031         	movff	vfprintf@fmt,vfprintf@cfmt
  1263                           
  1264                           ;C:\Program Files\Microchip\xc8\v2.46\pic\sources\c99\common\doprnt.c: 1826:     while (
      +                          *cfmt) {
  1265   002990  EFD4  F014         	goto	l2119
  1266   002994                     l2117:
  1267                           
  1268                           ;C:\Program Files\Microchip\xc8\v2.46\pic\sources\c99\common\doprnt.c: 1830:    vfpfcnvr
      +                          t(fp, &cfmt, ap);
  1269   002994  C02D  F021         	movff	vfprintf@fp,vfpfcnvrt@fp
  1270   002998  C02E  F022         	movff	vfprintf@fp+1,vfpfcnvrt@fp+1
  1271   00299C  0E31               	movlw	low vfprintf@cfmt
  1272   00299E  6E23               	movwf	vfpfcnvrt@fmt^0,c
  1273   0029A0  C030  F024         	movff	vfprintf@ap,vfpfcnvrt@ap
  1274   0029A4  EC31  F010         	call	_vfpfcnvrt	;wreg free
  1275   0029A8                     l2119:
  1276                           
  1277                           ;C:\Program Files\Microchip\xc8\v2.46\pic\sources\c99\common\doprnt.c: 1826:     while (
      +                          *cfmt) {
  1278   0029A8  0060  F0C7  FFF6   	movff	vfprintf@cfmt,tblptrl
  1279   0029AE                     	if	1	;There is more than 1 active tblptr byte
  1280   0029AE  0E20               	movlw	high __smallconst
  1281   0029B0  6EF7               	movwf	tblptrh,c
  1282   0029B2                     	endif
  1283   0029B2                     	if	0	;tblptru may be non-zero
  1284   0029B2                     	endif
  1285   0029B2                     	if	1	;Program memory is > 0xFFFF, there are 3 active tblptr bytes
  1286   0029B2  0E00               	movlw	low (__smallconst shr (0+16))
  1287   0029B4  6EF8               	movwf	tblptru,c
  1288   0029B6                     	endif
  1289   0029B6  0008               	tblrd		*
  1290   0029B8  50F5               	movf	tablat,w,c
  1291   0029BA  0900               	iorlw	0
  1292   0029BC  A4D8               	btfss	status,2,c
  1293   0029BE  EFE3  F014         	goto	u1071
  1294   0029C2  EFE5  F014         	goto	u1070
  1295   0029C6                     u1071:
  1296   0029C6  EFCA  F014         	goto	l2117
  1297   0029CA                     u1070:
  1298   0029CA                     
  1299                           ;C:\Program Files\Microchip\xc8\v2.46\pic\sources\c99\common\doprnt.c: 1835:  return 0;
  1300   0029CA  0E00               	movlw	0
  1301   0029CC  6E2E               	movwf	(?_vfprintf+1)^0,c
  1302   0029CE  0E00               	movlw	0
  1303   0029D0  6E2D               	movwf	?_vfprintf^0,c
  1304   0029D2  0012               	return		;funcret
  1305   0029D4                     __end_of_vfprintf:
  1306                           	callstack 0
  1307                           
  1308 ;; *************** function _vfpfcnvrt *****************
  1309 ;; Defined at:
  1310 ;;		line 1177 in file "C:\Program Files\Microchip\xc8\v2.46\pic\sources\c99\common\doprnt.c"
  1311 ;; Parameters:    Size  Location     Type
  1312 ;;  fp              2   32[COMRAM] PTR struct _IO_FILE
  1313 ;;		 -> NULL(0), 
  1314 ;;  fmt             1   34[COMRAM] PTR PTR unsigned char 
  1315 ;;		 -> vfprintf@cfmt(1), 
  1316 ;;  ap              1   35[COMRAM] PTR PTR void 
  1317 ;;		 -> printf@ap(1), 
  1318 ;; Auto vars:     Size  Location     Type
  1319 ;;  convarg         4   39[COMRAM] struct .
  1320 ;;  c               1   43[COMRAM] unsigned char 
  1321 ;;  cp              1   38[COMRAM] PTR unsigned char 
  1322 ;;		 -> STR_2(5), STR_1(18), 
  1323 ;;  done            1   37[COMRAM] _Bool 
  1324 ;; Return value:  Size  Location     Type
  1325 ;;                  1    wreg      void 
  1326 ;; Registers used:
  1327 ;;		wreg, fsr1l, fsr1h, fsr2l, fsr2h, status,2, status,0, tblptrl, tblptrh, tblptru, cstack
  1328 ;; Tracked objects:
  1329 ;;		On entry : 0/0
  1330 ;;		On exit  : 0/0
  1331 ;;		Unchanged: 0/0
  1332 ;; Data sizes:     COMRAM   BANK0   BANK1   BANK2   BANK3   BANK4   BANK5   BANK6   BANK7   BANK8   BANK9  BANK10  BANK1
      +1  BANK12  BANK13  BANK14  BANK15  BANK16  BANK17  BANK18  BANK19  BANK20  BANK21  BANK22  BANK23  BANK24  BANK25  BANK2
      +6  BANK27  BANK28  BANK29  BANK30  BANK31
  1333 ;;      Params:         4       0       0       0       0       0       0       0       0       0       0       0       
      +0       0       0       0       0       0       0       0       0       0       0       0       0       0       0       
      +0       0       0       0       0       0
  1334 ;;      Locals:         7       0       0       0       0       0       0       0       0       0       0       0       
      +0       0       0       0       0       0       0       0       0       0       0       0       0       0       0       
      +0       0       0       0       0       0
  1335 ;;      Temps:          1       0       0       0       0       0       0       0       0       0       0       0       
      +0       0       0       0       0       0       0       0       0       0       0       0       0       0       0       
      +0       0       0       0       0       0
  1336 ;;      Totals:        12       0       0       0       0       0       0       0       0       0       0       0       
      +0       0       0       0       0       0       0       0       0       0       0       0       0       0       0       
      +0       0       0       0       0       0
  1337 ;;Total ram usage:       12 bytes
  1338 ;; Hardware stack levels used: 1
  1339 ;; Hardware stack levels required when called: 6
  1340 ;; This function calls:
  1341 ;;		___awdiv
  1342 ;;		___awmod
  1343 ;;		_abs
  1344 ;;		_fputc
  1345 ;; This function is called by:
  1346 ;;		_vfprintf
  1347 ;; This function uses a non-reentrant model
  1348 ;;
  1349                           
  1350                           	psect	text8
  1351   002062                     __ptext8:
  1352                           	callstack 0
  1353   002062                     _vfpfcnvrt:
  1354                           	callstack 22
  1355   002062                     
  1356                           ;C:\Program Files\Microchip\xc8\v2.46\pic\sources\c99\common\doprnt.c: 1177: vfpfcnvrt(F
      +                          ILE *fp, char *fmt[], va_list ap);C:\Program Files\Microchip\xc8\v2.46\pic\sources\c99\c
      +                          ommon\doprnt.c: 1178: {;C:\Program Files\Microchip\xc8\v2.46\pic\sources\c99\common\dopr
      +                          nt.c: 1179:     char c, *cp;;C:\Program Files\Microchip\xc8\v2.46\pic\sources\c99\common
      +                          \doprnt.c: 1180:     _Bool done;;C:\Program Files\Microchip\xc8\v2.46\pic\sources\c99\co
      +                          mmon\doprnt.c: 1188:  } convarg;;C:\Program Files\Microchip\xc8\v2.46\pic\sources\c99\co
      +                          mmon\doprnt.c: 1201:     if ((*fmt)[0] == '%') {
  1357   002062  5023               	movf	vfpfcnvrt@fmt^0,w,c
  1358   002064  6ED9               	movwf	fsr2l,c
  1359   002066  6ADA               	clrf	fsr2h,c
  1360   002068  006F FF7F FFF6     	movff	indf2,tblptrl
  1361   00206E                     	if	1	;There is more than 1 active tblptr byte
  1362   00206E  0E20               	movlw	high __smallconst
  1363   002070  6EF7               	movwf	tblptrh,c
  1364   002072                     	endif
  1365   002072                     	if	0	;tblptru may be non-zero
  1366   002072                     	endif
  1367   002072                     	if	1	;Program memory is > 0xFFFF, there are 3 active tblptr bytes
  1368   002072  0E00               	movlw	low (__smallconst shr (0+16))
  1369   002074  6EF8               	movwf	tblptru,c
  1370   002076                     	endif
  1371   002076  0008               	tblrd		*
  1372   002078  50F5               	movf	tablat,w,c
  1373   00207A  0A25               	xorlw	37
  1374   00207C  A4D8               	btfss	status,2,c
  1375   00207E  EF43  F010         	goto	u961
  1376   002082  EF45  F010         	goto	u960
  1377   002086                     u961:
  1378   002086  EF08  F011         	goto	l2035
  1379   00208A                     u960:
  1380   00208A                     
  1381                           ;C:\Program Files\Microchip\xc8\v2.46\pic\sources\c99\common\doprnt.c: 1202:         ++*
      +                          fmt;
  1382   00208A  5023               	movf	vfpfcnvrt@fmt^0,w,c
  1383   00208C  6ED9               	movwf	fsr2l,c
  1384   00208E  6ADA               	clrf	fsr2h,c
  1385   002090  2ADF               	incf	indf2,f,c
  1386   002092                     
  1387                           ;C:\Program Files\Microchip\xc8\v2.46\pic\sources\c99\common\doprnt.c: 1204:         fla
      +                          gs = width = 0;
  1388   002092  0E00               	movlw	0
  1389   002094  6E4C               	movwf	(_width+1)^0,c
  1390   002096  0E00               	movlw	0
  1391   002098  6E4B               	movwf	_width^0,c
  1392   00209A  C04B  F051         	movff	_width,_flags
  1393   00209E                     
  1394                           ;C:\Program Files\Microchip\xc8\v2.46\pic\sources\c99\common\doprnt.c: 1205:         pre
      +                          c = -1;
  1395   00209E  684D               	setf	_prec^0,c
  1396   0020A0  684E               	setf	(_prec+1)^0,c
  1397   0020A2                     
  1398                           ;C:\Program Files\Microchip\xc8\v2.46\pic\sources\c99\common\doprnt.c: 1291:   cp = *fmt
      +                          ;
  1399   0020A2  5023               	movf	vfpfcnvrt@fmt^0,w,c
  1400   0020A4  6ED9               	movwf	fsr2l,c
  1401   0020A6  6ADA               	clrf	fsr2h,c
  1402   0020A8  50DF               	movf	indf2,w,c
  1403   0020AA  6E27               	movwf	vfpfcnvrt@cp^0,c
  1404   0020AC                     
  1405                           ;C:\Program Files\Microchip\xc8\v2.46\pic\sources\c99\common\doprnt.c: 1361:   if (*cp =
      +                          = 'd' || *cp == 'i') {
  1406   0020AC  0060  F09F  FFF6   	movff	vfpfcnvrt@cp,tblptrl
  1407   0020B2                     	if	1	;There is more than 1 active tblptr byte
  1408   0020B2  0E20               	movlw	high __smallconst
  1409   0020B4  6EF7               	movwf	tblptrh,c
  1410   0020B6                     	endif
  1411   0020B6                     	if	0	;tblptru may be non-zero
  1412   0020B6                     	endif
  1413   0020B6                     	if	1	;Program memory is > 0xFFFF, there are 3 active tblptr bytes
  1414   0020B6  0E00               	movlw	low (__smallconst shr (0+16))
  1415   0020B8  6EF8               	movwf	tblptru,c
  1416   0020BA                     	endif
  1417   0020BA  0008               	tblrd		*
  1418   0020BC  50F5               	movf	tablat,w,c
  1419   0020BE  0A64               	xorlw	100
  1420   0020C0  B4D8               	btfsc	status,2,c
  1421   0020C2  EF65  F010         	goto	u971
  1422   0020C6  EF67  F010         	goto	u970
  1423   0020CA                     u971:
  1424   0020CA  EF78  F010         	goto	l2005
  1425   0020CE                     u970:
  1426   0020CE  0060  F09F  FFF6   	movff	vfpfcnvrt@cp,tblptrl
  1427   0020D4                     	if	1	;There is more than 1 active tblptr byte
  1428   0020D4  0E20               	movlw	high __smallconst
  1429   0020D6  6EF7               	movwf	tblptrh,c
  1430   0020D8                     	endif
  1431   0020D8                     	if	0	;tblptru may be non-zero
  1432   0020D8                     	endif
  1433   0020D8                     	if	1	;Program memory is > 0xFFFF, there are 3 active tblptr bytes
  1434   0020D8  0E00               	movlw	low (__smallconst shr (0+16))
  1435   0020DA  6EF8               	movwf	tblptru,c
  1436   0020DC                     	endif
  1437   0020DC  0008               	tblrd		*
  1438   0020DE  50F5               	movf	tablat,w,c
  1439   0020E0  0A69               	xorlw	105
  1440   0020E2  A4D8               	btfss	status,2,c
  1441   0020E4  EF76  F010         	goto	u981
  1442   0020E8  EF78  F010         	goto	u980
  1443   0020EC                     u981:
  1444   0020EC  EF02  F011         	goto	l2031
  1445   0020F0                     u980:
  1446   0020F0                     l2005:
  1447                           
  1448                           ;C:\Program Files\Microchip\xc8\v2.46\pic\sources\c99\common\doprnt.c: 1404:    convarg.
      +                          sint = (vfpf_sint_t)(int)(*(int *)__va_arg(*(int **)ap, (int)0));
  1449   0020F0  5024               	movf	vfpfcnvrt@ap^0,w,c
  1450   0020F2  6ED9               	movwf	fsr2l,c
  1451   0020F4  6ADA               	clrf	fsr2h,c
  1452   0020F6  0E02               	movlw	2
  1453   0020F8  26DF               	addwf	indf2,f,c
  1454   0020FA  5CDF               	subwf	indf2,w,c
  1455   0020FC  6ED9               	movwf	fsr2l,c
  1456   0020FE  6ADA               	clrf	fsr2h,c
  1457   002100  006F FF78  F028    	movff	postinc2,vfpfcnvrt@convarg
  1458   002106  006F FF78  F029    	movff	postinc2,vfpfcnvrt@convarg+1
  1459   00210C                     
  1460                           ;C:\Program Files\Microchip\xc8\v2.46\pic\sources\c99\common\doprnt.c: 1406:    *fmt = c
      +                          p+1;
  1461   00210C  5023               	movf	vfpfcnvrt@fmt^0,w,c
  1462   00210E  6ED9               	movwf	fsr2l,c
  1463   002110  6ADA               	clrf	fsr2h,c
  1464   002112  2827               	incf	vfpfcnvrt@cp^0,w,c
  1465   002114  6EDF               	movwf	indf2,c
  1466   002116                     
  1467                           ;C:\Program Files\Microchip\xc8\v2.46\pic\sources\c99\common\doprnt.c: 1408:    c = size
      +                          of(dbuf);
  1468   002116  0E20               	movlw	32
  1469   002118  6E2C               	movwf	vfpfcnvrt@c^0,c
  1470                           
  1471                           ;C:\Program Files\Microchip\xc8\v2.46\pic\sources\c99\common\doprnt.c: 1409:    done = c
      +                          onvarg.sint < 0;
  1472   00211A  BE29               	btfsc	(vfpfcnvrt@convarg+1)^0,7,c
  1473   00211C  EF92  F010         	goto	u991
  1474   002120  EF95  F010         	goto	u990
  1475   002124                     u991:
  1476   002124  0E01               	movlw	1
  1477   002126  EF96  F010         	goto	u1000
  1478   00212A                     u990:
  1479   00212A  0E00               	movlw	0
  1480   00212C                     u1000:
  1481   00212C  6E26               	movwf	vfpfcnvrt@done^0,c
  1482   00212E                     l2011:
  1483                           
  1484                           ;C:\Program Files\Microchip\xc8\v2.46\pic\sources\c99\common\doprnt.c: 1411:     dbuf[--
      +                          c] = abs(convarg.sint % 10) + '0';
  1485   00212E  062C               	decf	vfpfcnvrt@c^0,f,c
  1486   002130  502C               	movf	vfpfcnvrt@c^0,w,c
  1487   002132  0F60               	addlw	low _dbuf
  1488   002134  6ED9               	movwf	fsr2l,c
  1489   002136  6ADA               	clrf	fsr2h,c
  1490   002138  C028  F017         	movff	vfpfcnvrt@convarg,___awmod@dividend
  1491   00213C  C029  F018         	movff	vfpfcnvrt@convarg+1,___awmod@dividend+1
  1492   002140  0E00               	movlw	0
  1493   002142  6E1A               	movwf	(___awmod@divisor+1)^0,c
  1494   002144  0E0A               	movlw	10
  1495   002146  6E19               	movwf	___awmod@divisor^0,c
  1496   002148  EC1B  F013         	call	___awmod	;wreg free
  1497   00214C  C017  F01D         	movff	?___awmod,abs@a
  1498   002150  C018  F01E         	movff	?___awmod+1,abs@a+1
  1499   002154  EC29  F015         	call	_abs	;wreg free
  1500   002158  501D               	movf	?_abs^0,w,c
  1501   00215A  0F30               	addlw	48
  1502   00215C  6EDF               	movwf	indf2,c
  1503   00215E                     
  1504                           ;C:\Program Files\Microchip\xc8\v2.46\pic\sources\c99\common\doprnt.c: 1412:     convarg
      +                          .sint /= 10;
  1505   00215E  C028  F005         	movff	vfpfcnvrt@convarg,___awdiv@dividend
  1506   002162  C029  F006         	movff	vfpfcnvrt@convarg+1,___awdiv@dividend+1
  1507   002166  0E00               	movlw	0
  1508   002168  6E08               	movwf	(___awdiv@divisor+1)^0,c
  1509   00216A  0E0A               	movlw	10
  1510   00216C  6E07               	movwf	___awdiv@divisor^0,c
  1511   00216E  ECFD  F011         	call	___awdiv	;wreg free
  1512   002172  C005  F028         	movff	?___awdiv,vfpfcnvrt@convarg
  1513   002176  C006  F029         	movff	?___awdiv+1,vfpfcnvrt@convarg+1
  1514   00217A                     
  1515                           ;C:\Program Files\Microchip\xc8\v2.46\pic\sources\c99\common\doprnt.c: 1416:    } while 
      +                          (convarg.sint != 0 && c != 0);
  1516   00217A  5028               	movf	vfpfcnvrt@convarg^0,w,c
  1517   00217C  1029               	iorwf	(vfpfcnvrt@convarg+1)^0,w,c
  1518   00217E  B4D8               	btfsc	status,2,c
  1519   002180  EFC4  F010         	goto	u1011
  1520   002184  EFC6  F010         	goto	u1010
  1521   002188                     u1011:
  1522   002188  EFCE  F010         	goto	l2019
  1523   00218C                     u1010:
  1524   00218C  502C               	movf	vfpfcnvrt@c^0,w,c
  1525   00218E  A4D8               	btfss	status,2,c
  1526   002190  EFCC  F010         	goto	u1021
  1527   002194  EFCE  F010         	goto	u1020
  1528   002198                     u1021:
  1529   002198  EF97  F010         	goto	l2011
  1530   00219C                     u1020:
  1531   00219C                     l2019:
  1532                           
  1533                           ;C:\Program Files\Microchip\xc8\v2.46\pic\sources\c99\common\doprnt.c: 1417:    if (c !=
      +                           0 && done) {
  1534   00219C  502C               	movf	vfpfcnvrt@c^0,w,c
  1535   00219E  B4D8               	btfsc	status,2,c
  1536   0021A0  EFD4  F010         	goto	u1031
  1537   0021A4  EFD6  F010         	goto	u1030
  1538   0021A8                     u1031:
  1539   0021A8  EFF7  F010         	goto	l2029
  1540   0021AC                     u1030:
  1541   0021AC  5026               	movf	vfpfcnvrt@done^0,w,c
  1542   0021AE  B4D8               	btfsc	status,2,c
  1543   0021B0  EFDC  F010         	goto	u1041
  1544   0021B4  EFDE  F010         	goto	u1040
  1545   0021B8                     u1041:
  1546   0021B8  EFF7  F010         	goto	l2029
  1547   0021BC                     u1040:
  1548   0021BC                     
  1549                           ;C:\Program Files\Microchip\xc8\v2.46\pic\sources\c99\common\doprnt.c: 1418:     dbuf[--
      +                          c] = '-';
  1550   0021BC  062C               	decf	vfpfcnvrt@c^0,f,c
  1551   0021BE  502C               	movf	vfpfcnvrt@c^0,w,c
  1552   0021C0  0F60               	addlw	low _dbuf
  1553   0021C2  6ED9               	movwf	fsr2l,c
  1554   0021C4  6ADA               	clrf	fsr2h,c
  1555   0021C6  0E2D               	movlw	45
  1556   0021C8  6EDF               	movwf	indf2,c
  1557   0021CA  EFF7  F010         	goto	l2029
  1558   0021CE                     l2025:
  1559                           
  1560                           ;C:\Program Files\Microchip\xc8\v2.46\pic\sources\c99\common\doprnt.c: 1424:     fputc(d
      +                          buf[c++], fp);
  1561   0021CE  502C               	movf	vfpfcnvrt@c^0,w,c
  1562   0021D0  0F60               	addlw	low _dbuf
  1563   0021D2  6ED9               	movwf	fsr2l,c
  1564   0021D4  6ADA               	clrf	fsr2h,c
  1565   0021D6  50DF               	movf	indf2,w,c
  1566   0021D8  6E25               	movwf	??_vfpfcnvrt^0,c
  1567   0021DA  5025               	movf	??_vfpfcnvrt^0,w,c
  1568   0021DC  6E08               	movwf	fputc@c^0,c
  1569   0021DE  6A09               	clrf	(fputc@c+1)^0,c
  1570   0021E0  C021  F00A         	movff	vfpfcnvrt@fp,fputc@fp
  1571   0021E4  C022  F00B         	movff	vfpfcnvrt@fp+1,fputc@fp+1
  1572   0021E8  EC91  F011         	call	_fputc	;wreg free
  1573   0021EC  2A2C               	incf	vfpfcnvrt@c^0,f,c
  1574   0021EE                     l2029:
  1575                           
  1576                           ;C:\Program Files\Microchip\xc8\v2.46\pic\sources\c99\common\doprnt.c: 1423:    while (c
      +                           != sizeof(dbuf)) {
  1577   0021EE  0E20               	movlw	32
  1578   0021F0  182C               	xorwf	vfpfcnvrt@c^0,w,c
  1579   0021F2  A4D8               	btfss	status,2,c
  1580   0021F4  EFFE  F010         	goto	u1051
  1581   0021F8  EF00  F011         	goto	u1050
  1582   0021FC                     u1051:
  1583   0021FC  EFE7  F010         	goto	l2025
  1584   002200                     u1050:
  1585   002200  EF1E  F011         	goto	l1248
  1586   002204                     l2031:
  1587                           
  1588                           ;C:\Program Files\Microchip\xc8\v2.46\pic\sources\c99\common\doprnt.c: 1806:         ++*
      +                          fmt;
  1589   002204  5023               	movf	vfpfcnvrt@fmt^0,w,c
  1590   002206  6ED9               	movwf	fsr2l,c
  1591   002208  6ADA               	clrf	fsr2h,c
  1592   00220A  2ADF               	incf	indf2,f,c
  1593   00220C  EF1E  F011         	goto	l1248
  1594   002210                     l2035:
  1595                           
  1596                           ;C:\Program Files\Microchip\xc8\v2.46\pic\sources\c99\common\doprnt.c: 1811:     fputc((
      +                          int)(*fmt)[0], fp);
  1597   002210  5023               	movf	vfpfcnvrt@fmt^0,w,c
  1598   002212  6ED9               	movwf	fsr2l,c
  1599   002214  6ADA               	clrf	fsr2h,c
  1600   002216  006F FF7F FFF6     	movff	indf2,tblptrl
  1601   00221C                     	if	1	;There is more than 1 active tblptr byte
  1602   00221C  0E20               	movlw	high __smallconst
  1603   00221E  6EF7               	movwf	tblptrh,c
  1604   002220                     	endif
  1605   002220                     	if	0	;tblptru may be non-zero
  1606   002220                     	endif
  1607   002220                     	if	1	;Program memory is > 0xFFFF, there are 3 active tblptr bytes
  1608   002220  0E00               	movlw	low (__smallconst shr (0+16))
  1609   002222  6EF8               	movwf	tblptru,c
  1610   002224                     	endif
  1611   002224  0008               	tblrd		*
  1612   002226  50F5               	movf	tablat,w,c
  1613   002228  6E08               	movwf	fputc@c^0,c
  1614   00222A  6A09               	clrf	(fputc@c+1)^0,c
  1615   00222C  C021  F00A         	movff	vfpfcnvrt@fp,fputc@fp
  1616   002230  C022  F00B         	movff	vfpfcnvrt@fp+1,fputc@fp+1
  1617   002234  EC91  F011         	call	_fputc	;wreg free
  1618   002238  EF02  F011         	goto	l2031
  1619   00223C                     l1248:
  1620   00223C  0012               	return		;funcret
  1621   00223E                     __end_of_vfpfcnvrt:
  1622                           	callstack 0
  1623                           
  1624 ;; *************** function _fputc *****************
  1625 ;; Defined at:
  1626 ;;		line 8 in file "C:\Program Files\Microchip\xc8\v2.46\pic\sources\c99\common\nf_fputc.c"
  1627 ;; Parameters:    Size  Location     Type
  1628 ;;  c               2    7[COMRAM] int 
  1629 ;;  fp              2    9[COMRAM] PTR struct _IO_FILE
  1630 ;;		 -> NULL(0), 
  1631 ;; Auto vars:     Size  Location     Type
  1632 ;;		None
  1633 ;; Return value:  Size  Location     Type
  1634 ;;                  2    7[COMRAM] int 
  1635 ;; Registers used:
  1636 ;;		wreg, fsr1l, fsr1h, fsr2l, fsr2h, status,2, status,0, cstack
  1637 ;; Tracked objects:
  1638 ;;		On entry : 0/0
  1639 ;;		On exit  : 0/0
  1640 ;;		Unchanged: 0/0
  1641 ;; Data sizes:     COMRAM   BANK0   BANK1   BANK2   BANK3   BANK4   BANK5   BANK6   BANK7   BANK8   BANK9  BANK10  BANK1
      +1  BANK12  BANK13  BANK14  BANK15  BANK16  BANK17  BANK18  BANK19  BANK20  BANK21  BANK22  BANK23  BANK24  BANK25  BANK2
      +6  BANK27  BANK28  BANK29  BANK30  BANK31
  1642 ;;      Params:         4       0       0       0       0       0       0       0       0       0       0       0       
      +0       0       0       0       0       0       0       0       0       0       0       0       0       0       0       
      +0       0       0       0       0       0
  1643 ;;      Locals:         0       0       0       0       0       0       0       0       0       0       0       0       
      +0       0       0       0       0       0       0       0       0       0       0       0       0       0       0       
      +0       0       0       0       0       0
  1644 ;;      Temps:          5       0       0       0       0       0       0       0       0       0       0       0       
      +0       0       0       0       0       0       0       0       0       0       0       0       0       0       0       
      +0       0       0       0       0       0
  1645 ;;      Totals:         9       0       0       0       0       0       0       0       0       0       0       0       
      +0       0       0       0       0       0       0       0       0       0       0       0       0       0       0       
      +0       0       0       0       0       0
  1646 ;;Total ram usage:        9 bytes
  1647 ;; Hardware stack levels used: 1
  1648 ;; Hardware stack levels required when called: 5
  1649 ;; This function calls:
  1650 ;;		_putch
  1651 ;; This function is called by:
  1652 ;;		_vfpfcnvrt
  1653 ;; This function uses a non-reentrant model
  1654 ;;
  1655                           
  1656                           	psect	text9
  1657   002322                     __ptext9:
  1658                           	callstack 0
  1659   002322                     _fputc:
  1660                           	callstack 22
  1661   002322  500A               	movf	fputc@fp^0,w,c
  1662   002324  100B               	iorwf	(fputc@fp+1)^0,w,c
  1663   002326  B4D8               	btfsc	status,2,c
  1664   002328  EF98  F011         	goto	u861
  1665   00232C  EF9A  F011         	goto	u860
  1666   002330                     u861:
  1667   002330  EFA3  F011         	goto	l1949
  1668   002334                     u860:
  1669   002334  500A               	movf	fputc@fp^0,w,c
  1670   002336  100B               	iorwf	(fputc@fp+1)^0,w,c
  1671   002338  A4D8               	btfss	status,2,c
  1672   00233A  EFA1  F011         	goto	u871
  1673   00233E  EFA3  F011         	goto	u870
  1674   002342                     u871:
  1675   002342  EFA8  F011         	goto	l1951
  1676   002346                     u870:
  1677   002346                     l1949:
  1678   002346  5008               	movf	fputc@c^0,w,c
  1679   002348  ECA5  F015         	call	_putch
  1680   00234C  EFFC  F011         	goto	l1273
  1681   002350                     l1951:
  1682   002350  EE20 F00A          	lfsr	2,10
  1683   002354  500A               	movf	fputc@fp^0,w,c
  1684   002356  26D9               	addwf	fsr2l,f,c
  1685   002358  500B               	movf	(fputc@fp+1)^0,w,c
  1686   00235A  22DA               	addwfc	fsr2h,f,c
  1687   00235C  50DE               	movf	postinc2,w,c
  1688   00235E  10DE               	iorwf	postinc2,w,c
  1689   002360  B4D8               	btfsc	status,2,c
  1690   002362  EFB5  F011         	goto	u881
  1691   002366  EFB7  F011         	goto	u880
  1692   00236A                     u881:
  1693   00236A  EFD2  F011         	goto	l1955
  1694   00236E                     u880:
  1695   00236E  EE20 F00A          	lfsr	2,10
  1696   002372  500A               	movf	fputc@fp^0,w,c
  1697   002374  26D9               	addwf	fsr2l,f,c
  1698   002376  500B               	movf	(fputc@fp+1)^0,w,c
  1699   002378  22DA               	addwfc	fsr2h,f,c
  1700   00237A  EE10 F003          	lfsr	1,3
  1701   00237E  500A               	movf	fputc@fp^0,w,c
  1702   002380  26E1               	addwf	fsr1l,f,c
  1703   002382  500B               	movf	(fputc@fp+1)^0,w,c
  1704   002384  22E2               	addwfc	fsr1h,f,c
  1705   002386  50DE               	movf	postinc2,w,c
  1706   002388  5CE6               	subwf	postinc1,w,c
  1707   00238A  50E6               	movf	postinc1,w,c
  1708   00238C  0A80               	xorlw	128
  1709   00238E  6E10               	movwf	(??_fputc+4)^0,c
  1710   002390  50DE               	movf	postinc2,w,c
  1711   002392  0A80               	xorlw	128
  1712   002394  5810               	subwfb	(??_fputc+4)^0,w,c
  1713   002396  B0D8               	btfsc	status,0,c
  1714   002398  EFD0  F011         	goto	u891
  1715   00239C  EFD2  F011         	goto	u890
  1716   0023A0                     u891:
  1717   0023A0  EFFC  F011         	goto	l1273
  1718   0023A4                     u890:
  1719   0023A4                     l1955:
  1720   0023A4  EE20 F003          	lfsr	2,3
  1721   0023A8  500A               	movf	fputc@fp^0,w,c
  1722   0023AA  26D9               	addwf	fsr2l,f,c
  1723   0023AC  500B               	movf	(fputc@fp+1)^0,w,c
  1724   0023AE  22DA               	addwfc	fsr2h,f,c
  1725   0023B0  006F FF78  F00C    	movff	postinc2,??_fputc
  1726   0023B6  006F FF74  F00D    	movff	postdec2,??_fputc+1
  1727   0023BC  0060  F02B  FFD9   	movff	fputc@fp,fsr2l
  1728   0023C2  0060  F02F  FFDA   	movff	fputc@fp+1,fsr2h
  1729   0023C8  006F FF78  F00E    	movff	postinc2,??_fputc+2
  1730   0023CE  006F FF74  F00F    	movff	postdec2,??_fputc+3
  1731   0023D4  500C               	movf	??_fputc^0,w,c
  1732   0023D6  240E               	addwf	(??_fputc+2)^0,w,c
  1733   0023D8  6ED9               	movwf	fsr2l,c
  1734   0023DA  500D               	movf	(??_fputc+1)^0,w,c
  1735   0023DC  200F               	addwfc	(??_fputc+3)^0,w,c
  1736   0023DE  6EDA               	movwf	fsr2h,c
  1737   0023E0  0060  F023  FFDF   	movff	fputc@c,indf2
  1738   0023E6  EE20 F003          	lfsr	2,3
  1739   0023EA  500A               	movf	fputc@fp^0,w,c
  1740   0023EC  26D9               	addwf	fsr2l,f,c
  1741   0023EE  500B               	movf	(fputc@fp+1)^0,w,c
  1742   0023F0  22DA               	addwfc	fsr2h,f,c
  1743   0023F2  2ADE               	incf	postinc2,f,c
  1744   0023F4  0E00               	movlw	0
  1745   0023F6  22DD               	addwfc	postdec2,f,c
  1746   0023F8                     l1273:
  1747   0023F8  0012               	return		;funcret
  1748   0023FA                     __end_of_fputc:
  1749                           	callstack 0
  1750                           
  1751 ;; *************** function _putch *****************
  1752 ;; Defined at:
  1753 ;;		line 419 in file "mcc_generated_files/uart/src/uart2.c"
  1754 ;; Parameters:    Size  Location     Type
  1755 ;;  txData          1    wreg     unsigned char 
  1756 ;; Auto vars:     Size  Location     Type
  1757 ;;  txData          1    6[COMRAM] unsigned char 
  1758 ;; Return value:  Size  Location     Type
  1759 ;;                  1    wreg      void 
  1760 ;; Registers used:
  1761 ;;		wreg, fsr2l, fsr2h, status,2, status,0, cstack
  1762 ;; Tracked objects:
  1763 ;;		On entry : 0/0
  1764 ;;		On exit  : 0/0
  1765 ;;		Unchanged: 0/0
  1766 ;; Data sizes:     COMRAM   BANK0   BANK1   BANK2   BANK3   BANK4   BANK5   BANK6   BANK7   BANK8   BANK9  BANK10  BANK1
      +1  BANK12  BANK13  BANK14  BANK15  BANK16  BANK17  BANK18  BANK19  BANK20  BANK21  BANK22  BANK23  BANK24  BANK25  BANK2
      +6  BANK27  BANK28  BANK29  BANK30  BANK31
  1767 ;;      Params:         0       0       0       0       0       0       0       0       0       0       0       0       
      +0       0       0       0       0       0       0       0       0       0       0       0       0       0       0       
      +0       0       0       0       0       0
  1768 ;;      Locals:         1       0       0       0       0       0       0       0       0       0       0       0       
      +0       0       0       0       0       0       0       0       0       0       0       0       0       0       0       
      +0       0       0       0       0       0
  1769 ;;      Temps:          0       0       0       0       0       0       0       0       0       0       0       0       
      +0       0       0       0       0       0       0       0       0       0       0       0       0       0       0       
      +0       0       0       0       0       0
  1770 ;;      Totals:         1       0       0       0       0       0       0       0       0       0       0       0       
      +0       0       0       0       0       0       0       0       0       0       0       0       0       0       0       
      +0       0       0       0       0       0
  1771 ;;Total ram usage:        1 bytes
  1772 ;; Hardware stack levels used: 1
  1773 ;; Hardware stack levels required when called: 4
  1774 ;; This function calls:
  1775 ;;		_UART2_IsTxReady
  1776 ;;		_UART2_Write
  1777 ;; This function is called by:
  1778 ;;		_fputc
  1779 ;; This function uses a non-reentrant model
  1780 ;;
  1781                           
  1782                           	psect	text10
  1783   002B4A                     __ptext10:
  1784                           	callstack 0
  1785   002B4A                     _putch:
  1786                           	callstack 22
  1787                           
  1788                           ;incstack = 0
  1789                           ;putch@txData stored from wreg
  1790   002B4A  6E07               	movwf	putch@txData^0,c
  1791   002B4C                     l1859:
  1792   002B4C  ECDA  F015         	call	_UART2_IsTxReady	;wreg free
  1793   002B50  0900               	iorlw	0
  1794   002B52  B4D8               	btfsc	status,2,c
  1795   002B54  EFAE  F015         	goto	u731
  1796   002B58  EFB0  F015         	goto	u730
  1797   002B5C                     u731:
  1798   002B5C  EFA6  F015         	goto	l1859
  1799   002B60                     u730:
  1800   002B60                     
  1801                           ;mcc_generated_files/uart/src/uart2.c: 422:     return UART2_Write(txData);;	Return valu
      +                          e of _putch is never used
  1802   002B60  5007               	movf	putch@txData^0,w,c
  1803   002B62  ECA0  F014         	call	_UART2_Write
  1804   002B66  0012               	return		;funcret
  1805   002B68                     __end_of_putch:
  1806                           	callstack 0
  1807                           
  1808 ;; *************** function _UART2_Write *****************
  1809 ;; Defined at:
  1810 ;;		line 366 in file "mcc_generated_files/uart/src/uart2.c"
  1811 ;; Parameters:    Size  Location     Type
  1812 ;;  txData          1    wreg     unsigned char 
  1813 ;; Auto vars:     Size  Location     Type
  1814 ;;  txData          1    5[COMRAM] unsigned char 
  1815 ;;  tempTxHead      1    4[COMRAM] unsigned char 
  1816 ;; Return value:  Size  Location     Type
  1817 ;;                  1    wreg      void 
  1818 ;; Registers used:
  1819 ;;		wreg, fsr2l, fsr2h, status,2, status,0
  1820 ;; Tracked objects:
  1821 ;;		On entry : 0/0
  1822 ;;		On exit  : 0/0
  1823 ;;		Unchanged: 0/0
  1824 ;; Data sizes:     COMRAM   BANK0   BANK1   BANK2   BANK3   BANK4   BANK5   BANK6   BANK7   BANK8   BANK9  BANK10  BANK1
      +1  BANK12  BANK13  BANK14  BANK15  BANK16  BANK17  BANK18  BANK19  BANK20  BANK21  BANK22  BANK23  BANK24  BANK25  BANK2
      +6  BANK27  BANK28  BANK29  BANK30  BANK31
  1825 ;;      Params:         0       0       0       0       0       0       0       0       0       0       0       0       
      +0       0       0       0       0       0       0       0       0       0       0       0       0       0       0       
      +0       0       0       0       0       0
  1826 ;;      Locals:         2       0       0       0       0       0       0       0       0       0       0       0       
      +0       0       0       0       0       0       0       0       0       0       0       0       0       0       0       
      +0       0       0       0       0       0
  1827 ;;      Temps:          0       0       0       0       0       0       0       0       0       0       0       0       
      +0       0       0       0       0       0       0       0       0       0       0       0       0       0       0       
      +0       0       0       0       0       0
  1828 ;;      Totals:         2       0       0       0       0       0       0       0       0       0       0       0       
      +0       0       0       0       0       0       0       0       0       0       0       0       0       0       0       
      +0       0       0       0       0       0
  1829 ;;Total ram usage:        2 bytes
  1830 ;; Hardware stack levels used: 1
  1831 ;; Hardware stack levels required when called: 3
  1832 ;; This function calls:
  1833 ;;		Nothing
  1834 ;; This function is called by:
  1835 ;;		_putch
  1836 ;; This function uses a non-reentrant model
  1837 ;;
  1838                           
  1839                           	psect	text11
  1840   002940                     __ptext11:
  1841                           	callstack 0
  1842   002940                     _UART2_Write:
  1843                           	callstack 22
  1844                           
  1845                           ;incstack = 0
  1846                           ;UART2_Write@txData stored from wreg
  1847   002940  6E06               	movwf	UART2_Write@txData^0,c
  1848   002942                     
  1849                           ;mcc_generated_files/uart/src/uart2.c: 366: void UART2_Write(uint8_t txData);mcc_generat
      +                          ed_files/uart/src/uart2.c: 367: {;mcc_generated_files/uart/src/uart2.c: 368:     uint8_t
      +                           tempTxHead;;mcc_generated_files/uart/src/uart2.c: 370:     if(0 == PIE6bits.U2TXIE)
  1850   002942  0139               	movlb	57	; () banked
  1851   002944  B796               	btfsc	150,3,b	;volatile
  1852   002946  EFA7  F014         	goto	u711
  1853   00294A  EFA9  F014         	goto	u710
  1854   00294E                     u711:
  1855   00294E  EFAE  F014         	goto	l1845
  1856   002952                     u710:
  1857   002952                     
  1858                           ; BSR set to: 57
  1859                           ;mcc_generated_files/uart/src/uart2.c: 371:     {;mcc_generated_files/uart/src/uart2.c: 
      +                          372:         U2TXB = txData;
  1860   002952  0060  F01B  FDD2   	movff	UART2_Write@txData,15826	;volatile
  1861                           
  1862                           ;mcc_generated_files/uart/src/uart2.c: 373:     }
  1863   002958  EFC4  F014         	goto	l464
  1864   00295C                     l1845:
  1865                           
  1866                           ; BSR set to: 57
  1867   00295C  5055               	movf	_uart2TxBufferRemaining^0,w,c	;volatile
  1868   00295E  B4D8               	btfsc	status,2,c
  1869   002960  EFB4  F014         	goto	u721
  1870   002964  EFB6  F014         	goto	u720
  1871   002968                     u721:
  1872   002968  EFC4  F014         	goto	l464
  1873   00296C                     u720:
  1874   00296C                     
  1875                           ; BSR set to: 57
  1876                           ;mcc_generated_files/uart/src/uart2.c: 375:     {;mcc_generated_files/uart/src/uart2.c: 
      +                          376:        uart2TxBuffer[uart2TxHead] = txData;
  1877   00296C  5057               	movf	_uart2TxHead^0,w,c
  1878   00296E  0F98               	addlw	low _uart2TxBuffer
  1879   002970  6ED9               	movwf	fsr2l,c
  1880   002972  6ADA               	clrf	fsr2h,c
  1881   002974  0060  F01B  FFDF   	movff	UART2_Write@txData,indf2
  1882   00297A                     
  1883                           ; BSR set to: 57
  1884                           ;mcc_generated_files/uart/src/uart2.c: 377:        tempTxHead = (uart2TxHead + 1) & ((8)
      +                           - 1);
  1885   00297A  2857               	incf	_uart2TxHead^0,w,c	;volatile
  1886   00297C  0B07               	andlw	7
  1887   00297E  6E05               	movwf	UART2_Write@tempTxHead^0,c
  1888   002980                     
  1889                           ; BSR set to: 57
  1890                           ;mcc_generated_files/uart/src/uart2.c: 379:        uart2TxHead = tempTxHead;
  1891   002980  C005  F057         	movff	UART2_Write@tempTxHead,_uart2TxHead	;volatile
  1892   002984                     
  1893                           ; BSR set to: 57
  1894                           ;mcc_generated_files/uart/src/uart2.c: 380:        PIE6bits.U2TXIE = 0;
  1895   002984  9796               	bcf	150,3,b	;volatile
  1896   002986                     
  1897                           ; BSR set to: 57
  1898                           ;mcc_generated_files/uart/src/uart2.c: 381:        uart2TxBufferRemaining--;
  1899   002986  0655               	decf	_uart2TxBufferRemaining^0,f,c	;volatile
  1900   002988                     l464:
  1901                           
  1902                           ; BSR set to: 57
  1903                           ;mcc_generated_files/uart/src/uart2.c: 387:     PIE6bits.U2TXIE = 1;
  1904   002988  8796               	bsf	150,3,b	;volatile
  1905   00298A                     
  1906                           ; BSR set to: 57
  1907   00298A  0012               	return		;funcret
  1908   00298C                     __end_of_UART2_Write:
  1909                           	callstack 0
  1910                           
  1911 ;; *************** function _UART2_IsTxReady *****************
  1912 ;; Defined at:
  1913 ;;		line 287 in file "mcc_generated_files/uart/src/uart2.c"
  1914 ;; Parameters:    Size  Location     Type
  1915 ;;		None
  1916 ;; Auto vars:     Size  Location     Type
  1917 ;;		None
  1918 ;; Return value:  Size  Location     Type
  1919 ;;                  1    wreg      _Bool 
  1920 ;; Registers used:
  1921 ;;		wreg, status,2
  1922 ;; Tracked objects:
  1923 ;;		On entry : 0/0
  1924 ;;		On exit  : 0/0
  1925 ;;		Unchanged: 0/0
  1926 ;; Data sizes:     COMRAM   BANK0   BANK1   BANK2   BANK3   BANK4   BANK5   BANK6   BANK7   BANK8   BANK9  BANK10  BANK1
      +1  BANK12  BANK13  BANK14  BANK15  BANK16  BANK17  BANK18  BANK19  BANK20  BANK21  BANK22  BANK23  BANK24  BANK25  BANK2
      +6  BANK27  BANK28  BANK29  BANK30  BANK31
  1927 ;;      Params:         0       0       0       0       0       0       0       0       0       0       0       0       
      +0       0       0       0       0       0       0       0       0       0       0       0       0       0       0       
      +0       0       0       0       0       0
  1928 ;;      Locals:         0       0       0       0       0       0       0       0       0       0       0       0       
      +0       0       0       0       0       0       0       0       0       0       0       0       0       0       0       
      +0       0       0       0       0       0
  1929 ;;      Temps:          0       0       0       0       0       0       0       0       0       0       0       0       
      +0       0       0       0       0       0       0       0       0       0       0       0       0       0       0       
      +0       0       0       0       0       0
  1930 ;;      Totals:         0       0       0       0       0       0       0       0       0       0       0       0       
      +0       0       0       0       0       0       0       0       0       0       0       0       0       0       0       
      +0       0       0       0       0       0
  1931 ;;Total ram usage:        0 bytes
  1932 ;; Hardware stack levels used: 1
  1933 ;; Hardware stack levels required when called: 3
  1934 ;; This function calls:
  1935 ;;		Nothing
  1936 ;; This function is called by:
  1937 ;;		_putch
  1938 ;; This function uses a non-reentrant model
  1939 ;;
  1940                           
  1941                           	psect	text12
  1942   002BB4                     __ptext12:
  1943                           	callstack 0
  1944   002BB4                     _UART2_IsTxReady:
  1945                           	callstack 22
  1946   002BB4                     
  1947                           ;mcc_generated_files/uart/src/uart2.c: 289:     return (uart2TxBufferRemaining ? 1 : 0);
  1948   002BB4  5055               	movf	_uart2TxBufferRemaining^0,w,c	;volatile
  1949   002BB6  A4D8               	btfss	status,2,c
  1950   002BB8  EFE0  F015         	goto	u691
  1951   002BBC  EFE3  F015         	goto	u690
  1952   002BC0                     u691:
  1953   002BC0  0E01               	movlw	1
  1954   002BC2  EFE4  F015         	goto	u700
  1955   002BC6                     u690:
  1956   002BC6  0E00               	movlw	0
  1957   002BC8                     u700:
  1958   002BC8  0012               	return		;funcret
  1959   002BCA                     __end_of_UART2_IsTxReady:
  1960                           	callstack 0
  1961                           
  1962 ;; *************** function _abs *****************
  1963 ;; Defined at:
  1964 ;;		line 1 in file "C:\Program Files\Microchip\xc8\v2.46\pic\sources\c99\common\abs.c"
  1965 ;; Parameters:    Size  Location     Type
  1966 ;;  a               2   28[COMRAM] int 
  1967 ;; Auto vars:     Size  Location     Type
  1968 ;;		None
  1969 ;; Return value:  Size  Location     Type
  1970 ;;                  2   28[COMRAM] int 
  1971 ;; Registers used:
  1972 ;;		wreg, status,2, status,0
  1973 ;; Tracked objects:
  1974 ;;		On entry : 0/0
  1975 ;;		On exit  : 0/0
  1976 ;;		Unchanged: 0/0
  1977 ;; Data sizes:     COMRAM   BANK0   BANK1   BANK2   BANK3   BANK4   BANK5   BANK6   BANK7   BANK8   BANK9  BANK10  BANK1
      +1  BANK12  BANK13  BANK14  BANK15  BANK16  BANK17  BANK18  BANK19  BANK20  BANK21  BANK22  BANK23  BANK24  BANK25  BANK2
      +6  BANK27  BANK28  BANK29  BANK30  BANK31
  1978 ;;      Params:         2       0       0       0       0       0       0       0       0       0       0       0       
      +0       0       0       0       0       0       0       0       0       0       0       0       0       0       0       
      +0       0       0       0       0       0
  1979 ;;      Locals:         0       0       0       0       0       0       0       0       0       0       0       0       
      +0       0       0       0       0       0       0       0       0       0       0       0       0       0       0       
      +0       0       0       0       0       0
  1980 ;;      Temps:          2       0       0       0       0       0       0       0       0       0       0       0       
      +0       0       0       0       0       0       0       0       0       0       0       0       0       0       0       
      +0       0       0       0       0       0
  1981 ;;      Totals:         4       0       0       0       0       0       0       0       0       0       0       0       
      +0       0       0       0       0       0       0       0       0       0       0       0       0       0       0       
      +0       0       0       0       0       0
  1982 ;;Total ram usage:        4 bytes
  1983 ;; Hardware stack levels used: 1
  1984 ;; Hardware stack levels required when called: 3
  1985 ;; This function calls:
  1986 ;;		Nothing
  1987 ;; This function is called by:
  1988 ;;		_vfpfcnvrt
  1989 ;; This function uses a non-reentrant model
  1990 ;;
  1991                           
  1992                           	psect	text13
  1993   002A52                     __ptext13:
  1994                           	callstack 0
  1995   002A52                     _abs:
  1996                           	callstack 24
  1997   002A52  BE1E               	btfsc	(abs@a+1)^0,7,c
  1998   002A54  EF2E  F015         	goto	u901
  1999   002A58  EF30  F015         	goto	u900
  2000   002A5C                     u901:
  2001   002A5C  EF36  F015         	goto	l1258
  2002   002A60                     u900:
  2003   002A60  C01D  F01D         	movff	abs@a,?_abs
  2004   002A64  C01E  F01E         	movff	abs@a+1,?_abs+1
  2005   002A68  EF42  F015         	goto	l1261
  2006   002A6C                     l1258:
  2007   002A6C  C01D  F01F         	movff	abs@a,??_abs
  2008   002A70  C01E  F020         	movff	abs@a+1,??_abs+1
  2009   002A74  1E1F               	comf	??_abs^0,f,c
  2010   002A76  1E20               	comf	(??_abs+1)^0,f,c
  2011   002A78  4A1F               	infsnz	??_abs^0,f,c
  2012   002A7A  2A20               	incf	(??_abs+1)^0,f,c
  2013   002A7C  C01F  F01D         	movff	??_abs,?_abs
  2014   002A80  C020  F01E         	movff	??_abs+1,?_abs+1
  2015   002A84                     l1261:
  2016   002A84  0012               	return		;funcret
  2017   002A86                     __end_of_abs:
  2018                           	callstack 0
  2019                           
  2020 ;; *************** function ___awmod *****************
  2021 ;; Defined at:
  2022 ;;		line 7 in file "C:\Program Files\Microchip\xc8\v2.46\pic\sources\c99\common\awmod.c"
  2023 ;; Parameters:    Size  Location     Type
  2024 ;;  dividend        2   22[COMRAM] int 
  2025 ;;  divisor         2   24[COMRAM] int 
  2026 ;; Auto vars:     Size  Location     Type
  2027 ;;  sign            1   27[COMRAM] unsigned char 
  2028 ;;  counter         1   26[COMRAM] unsigned char 
  2029 ;; Return value:  Size  Location     Type
  2030 ;;                  2   22[COMRAM] int 
  2031 ;; Registers used:
  2032 ;;		wreg, status,2, status,0
  2033 ;; Tracked objects:
  2034 ;;		On entry : 0/0
  2035 ;;		On exit  : 0/0
  2036 ;;		Unchanged: 0/0
  2037 ;; Data sizes:     COMRAM   BANK0   BANK1   BANK2   BANK3   BANK4   BANK5   BANK6   BANK7   BANK8   BANK9  BANK10  BANK1
      +1  BANK12  BANK13  BANK14  BANK15  BANK16  BANK17  BANK18  BANK19  BANK20  BANK21  BANK22  BANK23  BANK24  BANK25  BANK2
      +6  BANK27  BANK28  BANK29  BANK30  BANK31
  2038 ;;      Params:         4       0       0       0       0       0       0       0       0       0       0       0       
      +0       0       0       0       0       0       0       0       0       0       0       0       0       0       0       
      +0       0       0       0       0       0
  2039 ;;      Locals:         2       0       0       0       0       0       0       0       0       0       0       0       
      +0       0       0       0       0       0       0       0       0       0       0       0       0       0       0       
      +0       0       0       0       0       0
  2040 ;;      Temps:          0       0       0       0       0       0       0       0       0       0       0       0       
      +0       0       0       0       0       0       0       0       0       0       0       0       0       0       0       
      +0       0       0       0       0       0
  2041 ;;      Totals:         6       0       0       0       0       0       0       0       0       0       0       0       
      +0       0       0       0       0       0       0       0       0       0       0       0       0       0       0       
      +0       0       0       0       0       0
  2042 ;;Total ram usage:        6 bytes
  2043 ;; Hardware stack levels used: 1
  2044 ;; Hardware stack levels required when called: 3
  2045 ;; This function calls:
  2046 ;;		Nothing
  2047 ;; This function is called by:
  2048 ;;		_random_number
  2049 ;;		_vfpfcnvrt
  2050 ;; This function uses a non-reentrant model
  2051 ;;
  2052                           
  2053                           	psect	text14
  2054   002636                     __ptext14:
  2055                           	callstack 0
  2056   002636                     ___awmod:
  2057                           	callstack 26
  2058   002636  0E00               	movlw	0
  2059   002638  6E1C               	movwf	___awmod@sign^0,c
  2060   00263A  BE18               	btfsc	(___awmod@dividend+1)^0,7,c
  2061   00263C  EF24  F013         	goto	u800
  2062   002640  EF22  F013         	goto	u801
  2063   002644                     u801:
  2064   002644  EF2A  F013         	goto	l1917
  2065   002648                     u800:
  2066   002648  6C17               	negf	___awmod@dividend^0,c
  2067   00264A  1E18               	comf	(___awmod@dividend+1)^0,f,c
  2068   00264C  B0D8               	btfsc	status,0,c
  2069   00264E  2A18               	incf	(___awmod@dividend+1)^0,f,c
  2070   002650  0E01               	movlw	1
  2071   002652  6E1C               	movwf	___awmod@sign^0,c
  2072   002654                     l1917:
  2073   002654  BE1A               	btfsc	(___awmod@divisor+1)^0,7,c
  2074   002656  EF31  F013         	goto	u810
  2075   00265A  EF2F  F013         	goto	u811
  2076   00265E                     u811:
  2077   00265E  EF35  F013         	goto	l1921
  2078   002662                     u810:
  2079   002662  6C19               	negf	___awmod@divisor^0,c
  2080   002664  1E1A               	comf	(___awmod@divisor+1)^0,f,c
  2081   002666  B0D8               	btfsc	status,0,c
  2082   002668  2A1A               	incf	(___awmod@divisor+1)^0,f,c
  2083   00266A                     l1921:
  2084   00266A  5019               	movf	___awmod@divisor^0,w,c
  2085   00266C  101A               	iorwf	(___awmod@divisor+1)^0,w,c
  2086   00266E  B4D8               	btfsc	status,2,c
  2087   002670  EF3C  F013         	goto	u821
  2088   002674  EF3E  F013         	goto	u820
  2089   002678                     u821:
  2090   002678  EF62  F013         	goto	l1937
  2091   00267C                     u820:
  2092   00267C  0E01               	movlw	1
  2093   00267E  6E1B               	movwf	___awmod@counter^0,c
  2094   002680  EF46  F013         	goto	l1927
  2095   002684                     l1925:
  2096   002684  90D8               	bcf	status,0,c
  2097   002686  3619               	rlcf	___awmod@divisor^0,f,c
  2098   002688  361A               	rlcf	(___awmod@divisor+1)^0,f,c
  2099   00268A  2A1B               	incf	___awmod@counter^0,f,c
  2100   00268C                     l1927:
  2101   00268C  AE1A               	btfss	(___awmod@divisor+1)^0,7,c
  2102   00268E  EF4B  F013         	goto	u831
  2103   002692  EF4D  F013         	goto	u830
  2104   002696                     u831:
  2105   002696  EF42  F013         	goto	l1925
  2106   00269A                     u830:
  2107   00269A                     l1929:
  2108   00269A  5019               	movf	___awmod@divisor^0,w,c
  2109   00269C  5C17               	subwf	___awmod@dividend^0,w,c
  2110   00269E  501A               	movf	(___awmod@divisor+1)^0,w,c
  2111   0026A0  5818               	subwfb	(___awmod@dividend+1)^0,w,c
  2112   0026A2  A0D8               	btfss	status,0,c
  2113   0026A4  EF56  F013         	goto	u841
  2114   0026A8  EF58  F013         	goto	u840
  2115   0026AC                     u841:
  2116   0026AC  EF5C  F013         	goto	l1933
  2117   0026B0                     u840:
  2118   0026B0  5019               	movf	___awmod@divisor^0,w,c
  2119   0026B2  5E17               	subwf	___awmod@dividend^0,f,c
  2120   0026B4  501A               	movf	(___awmod@divisor+1)^0,w,c
  2121   0026B6  5A18               	subwfb	(___awmod@dividend+1)^0,f,c
  2122   0026B8                     l1933:
  2123   0026B8  90D8               	bcf	status,0,c
  2124   0026BA  321A               	rrcf	(___awmod@divisor+1)^0,f,c
  2125   0026BC  3219               	rrcf	___awmod@divisor^0,f,c
  2126   0026BE  2E1B               	decfsz	___awmod@counter^0,f,c
  2127   0026C0  EF4D  F013         	goto	l1929
  2128   0026C4                     l1937:
  2129   0026C4  501C               	movf	___awmod@sign^0,w,c
  2130   0026C6  B4D8               	btfsc	status,2,c
  2131   0026C8  EF68  F013         	goto	u851
  2132   0026CC  EF6A  F013         	goto	u850
  2133   0026D0                     u851:
  2134   0026D0  EF6E  F013         	goto	l1941
  2135   0026D4                     u850:
  2136   0026D4  6C17               	negf	___awmod@dividend^0,c
  2137   0026D6  1E18               	comf	(___awmod@dividend+1)^0,f,c
  2138   0026D8  B0D8               	btfsc	status,0,c
  2139   0026DA  2A18               	incf	(___awmod@dividend+1)^0,f,c
  2140   0026DC                     l1941:
  2141   0026DC  C017  F017         	movff	___awmod@dividend,?___awmod
  2142   0026E0  C018  F018         	movff	___awmod@dividend+1,?___awmod+1
  2143   0026E4  0012               	return		;funcret
  2144   0026E6                     __end_of___awmod:
  2145                           	callstack 0
  2146                           
  2147 ;; *************** function ___awdiv *****************
  2148 ;; Defined at:
  2149 ;;		line 7 in file "C:\Program Files\Microchip\xc8\v2.46\pic\sources\c99\common\awdiv.c"
  2150 ;; Parameters:    Size  Location     Type
  2151 ;;  dividend        2    4[COMRAM] int 
  2152 ;;  divisor         2    6[COMRAM] int 
  2153 ;; Auto vars:     Size  Location     Type
  2154 ;;  quotient        2   10[COMRAM] int 
  2155 ;;  sign            1    9[COMRAM] unsigned char 
  2156 ;;  counter         1    8[COMRAM] unsigned char 
  2157 ;; Return value:  Size  Location     Type
  2158 ;;                  2    4[COMRAM] int 
  2159 ;; Registers used:
  2160 ;;		wreg, status,2, status,0
  2161 ;; Tracked objects:
  2162 ;;		On entry : 0/0
  2163 ;;		On exit  : 0/0
  2164 ;;		Unchanged: 0/0
  2165 ;; Data sizes:     COMRAM   BANK0   BANK1   BANK2   BANK3   BANK4   BANK5   BANK6   BANK7   BANK8   BANK9  BANK10  BANK1
      +1  BANK12  BANK13  BANK14  BANK15  BANK16  BANK17  BANK18  BANK19  BANK20  BANK21  BANK22  BANK23  BANK24  BANK25  BANK2
      +6  BANK27  BANK28  BANK29  BANK30  BANK31
  2166 ;;      Params:         4       0       0       0       0       0       0       0       0       0       0       0       
      +0       0       0       0       0       0       0       0       0       0       0       0       0       0       0       
      +0       0       0       0       0       0
  2167 ;;      Locals:         4       0       0       0       0       0       0       0       0       0       0       0       
      +0       0       0       0       0       0       0       0       0       0       0       0       0       0       0       
      +0       0       0       0       0       0
  2168 ;;      Temps:          0       0       0       0       0       0       0       0       0       0       0       0       
      +0       0       0       0       0       0       0       0       0       0       0       0       0       0       0       
      +0       0       0       0       0       0
  2169 ;;      Totals:         8       0       0       0       0       0       0       0       0       0       0       0       
      +0       0       0       0       0       0       0       0       0       0       0       0       0       0       0       
      +0       0       0       0       0       0
  2170 ;;Total ram usage:        8 bytes
  2171 ;; Hardware stack levels used: 1
  2172 ;; Hardware stack levels required when called: 3
  2173 ;; This function calls:
  2174 ;;		Nothing
  2175 ;; This function is called by:
  2176 ;;		_vfpfcnvrt
  2177 ;; This function uses a non-reentrant model
  2178 ;;
  2179                           
  2180                           	psect	text15
  2181   0023FA                     __ptext15:
  2182                           	callstack 0
  2183   0023FA                     ___awdiv:
  2184                           	callstack 24
  2185   0023FA  0E00               	movlw	0
  2186   0023FC  6E0A               	movwf	___awdiv@sign^0,c
  2187   0023FE  BE08               	btfsc	(___awdiv@divisor+1)^0,7,c
  2188   002400  EF06  F012         	goto	u740
  2189   002404  EF04  F012         	goto	u741
  2190   002408                     u741:
  2191   002408  EF0C  F012         	goto	l1873
  2192   00240C                     u740:
  2193   00240C  6C07               	negf	___awdiv@divisor^0,c
  2194   00240E  1E08               	comf	(___awdiv@divisor+1)^0,f,c
  2195   002410  B0D8               	btfsc	status,0,c
  2196   002412  2A08               	incf	(___awdiv@divisor+1)^0,f,c
  2197   002414  0E01               	movlw	1
  2198   002416  6E0A               	movwf	___awdiv@sign^0,c
  2199   002418                     l1873:
  2200   002418  BE06               	btfsc	(___awdiv@dividend+1)^0,7,c
  2201   00241A  EF13  F012         	goto	u750
  2202   00241E  EF11  F012         	goto	u751
  2203   002422                     u751:
  2204   002422  EF19  F012         	goto	l1879
  2205   002426                     u750:
  2206   002426  6C05               	negf	___awdiv@dividend^0,c
  2207   002428  1E06               	comf	(___awdiv@dividend+1)^0,f,c
  2208   00242A  B0D8               	btfsc	status,0,c
  2209   00242C  2A06               	incf	(___awdiv@dividend+1)^0,f,c
  2210   00242E  0E01               	movlw	1
  2211   002430  1A0A               	xorwf	___awdiv@sign^0,f,c
  2212   002432                     l1879:
  2213   002432  0E00               	movlw	0
  2214   002434  6E0C               	movwf	(___awdiv@quotient+1)^0,c
  2215   002436  0E00               	movlw	0
  2216   002438  6E0B               	movwf	___awdiv@quotient^0,c
  2217   00243A  5007               	movf	___awdiv@divisor^0,w,c
  2218   00243C  1008               	iorwf	(___awdiv@divisor+1)^0,w,c
  2219   00243E  B4D8               	btfsc	status,2,c
  2220   002440  EF24  F012         	goto	u761
  2221   002444  EF26  F012         	goto	u760
  2222   002448                     u761:
  2223   002448  EF4E  F012         	goto	l1901
  2224   00244C                     u760:
  2225   00244C  0E01               	movlw	1
  2226   00244E  6E09               	movwf	___awdiv@counter^0,c
  2227   002450  EF2E  F012         	goto	l1887
  2228   002454                     l1885:
  2229   002454  90D8               	bcf	status,0,c
  2230   002456  3607               	rlcf	___awdiv@divisor^0,f,c
  2231   002458  3608               	rlcf	(___awdiv@divisor+1)^0,f,c
  2232   00245A  2A09               	incf	___awdiv@counter^0,f,c
  2233   00245C                     l1887:
  2234   00245C  AE08               	btfss	(___awdiv@divisor+1)^0,7,c
  2235   00245E  EF33  F012         	goto	u771
  2236   002462  EF35  F012         	goto	u770
  2237   002466                     u771:
  2238   002466  EF2A  F012         	goto	l1885
  2239   00246A                     u770:
  2240   00246A                     l1889:
  2241   00246A  90D8               	bcf	status,0,c
  2242   00246C  360B               	rlcf	___awdiv@quotient^0,f,c
  2243   00246E  360C               	rlcf	(___awdiv@quotient+1)^0,f,c
  2244   002470  5007               	movf	___awdiv@divisor^0,w,c
  2245   002472  5C05               	subwf	___awdiv@dividend^0,w,c
  2246   002474  5008               	movf	(___awdiv@divisor+1)^0,w,c
  2247   002476  5806               	subwfb	(___awdiv@dividend+1)^0,w,c
  2248   002478  A0D8               	btfss	status,0,c
  2249   00247A  EF41  F012         	goto	u781
  2250   00247E  EF43  F012         	goto	u780
  2251   002482                     u781:
  2252   002482  EF48  F012         	goto	l1897
  2253   002486                     u780:
  2254   002486  5007               	movf	___awdiv@divisor^0,w,c
  2255   002488  5E05               	subwf	___awdiv@dividend^0,f,c
  2256   00248A  5008               	movf	(___awdiv@divisor+1)^0,w,c
  2257   00248C  5A06               	subwfb	(___awdiv@dividend+1)^0,f,c
  2258   00248E  800B               	bsf	___awdiv@quotient^0,0,c
  2259   002490                     l1897:
  2260   002490  90D8               	bcf	status,0,c
  2261   002492  3208               	rrcf	(___awdiv@divisor+1)^0,f,c
  2262   002494  3207               	rrcf	___awdiv@divisor^0,f,c
  2263   002496  2E09               	decfsz	___awdiv@counter^0,f,c
  2264   002498  EF35  F012         	goto	l1889
  2265   00249C                     l1901:
  2266   00249C  500A               	movf	___awdiv@sign^0,w,c
  2267   00249E  B4D8               	btfsc	status,2,c
  2268   0024A0  EF54  F012         	goto	u791
  2269   0024A4  EF56  F012         	goto	u790
  2270   0024A8                     u791:
  2271   0024A8  EF5A  F012         	goto	l1905
  2272   0024AC                     u790:
  2273   0024AC  6C0B               	negf	___awdiv@quotient^0,c
  2274   0024AE  1E0C               	comf	(___awdiv@quotient+1)^0,f,c
  2275   0024B0  B0D8               	btfsc	status,0,c
  2276   0024B2  2A0C               	incf	(___awdiv@quotient+1)^0,f,c
  2277   0024B4                     l1905:
  2278   0024B4  C00B  F005         	movff	___awdiv@quotient,?___awdiv
  2279   0024B8  C00C  F006         	movff	___awdiv@quotient+1,?___awdiv+1
  2280   0024BC  0012               	return		;funcret
  2281   0024BE                     __end_of___awdiv:
  2282                           	callstack 0
  2283                           
  2284 ;; *************** function _SYSTEM_Initialize *****************
  2285 ;; Defined at:
  2286 ;;		line 40 in file "mcc_generated_files/system/src/system.c"
  2287 ;; Parameters:    Size  Location     Type
  2288 ;;		None
  2289 ;; Auto vars:     Size  Location     Type
  2290 ;;		None
  2291 ;; Return value:  Size  Location     Type
  2292 ;;                  1    wreg      void 
  2293 ;; Registers used:
  2294 ;;		wreg, status,2, status,0, cstack
  2295 ;; Tracked objects:
  2296 ;;		On entry : 0/0
  2297 ;;		On exit  : 0/0
  2298 ;;		Unchanged: 0/0
  2299 ;; Data sizes:     COMRAM   BANK0   BANK1   BANK2   BANK3   BANK4   BANK5   BANK6   BANK7   BANK8   BANK9  BANK10  BANK1
      +1  BANK12  BANK13  BANK14  BANK15  BANK16  BANK17  BANK18  BANK19  BANK20  BANK21  BANK22  BANK23  BANK24  BANK25  BANK2
      +6  BANK27  BANK28  BANK29  BANK30  BANK31
  2300 ;;      Params:         0       0       0       0       0       0       0       0       0       0       0       0       
      +0       0       0       0       0       0       0       0       0       0       0       0       0       0       0       
      +0       0       0       0       0       0
  2301 ;;      Locals:         0       0       0       0       0       0       0       0       0       0       0       0       
      +0       0       0       0       0       0       0       0       0       0       0       0       0       0       0       
      +0       0       0       0       0       0
  2302 ;;      Temps:          0       0       0       0       0       0       0       0       0       0       0       0       
      +0       0       0       0       0       0       0       0       0       0       0       0       0       0       0       
      +0       0       0       0       0       0
  2303 ;;      Totals:         0       0       0       0       0       0       0       0       0       0       0       0       
      +0       0       0       0       0       0       0       0       0       0       0       0       0       0       0       
      +0       0       0       0       0       0
  2304 ;;Total ram usage:        0 bytes
  2305 ;; Hardware stack levels used: 1
  2306 ;; Hardware stack levels required when called: 5
  2307 ;; This function calls:
  2308 ;;		_CLOCK_Initialize
  2309 ;;		_INTERRUPT_Initialize
  2310 ;;		_PIN_MANAGER_Initialize
  2311 ;;		_UART2_Initialize
  2312 ;; This function is called by:
  2313 ;;		_main
  2314 ;; This function uses a non-reentrant model
  2315 ;;
  2316                           
  2317                           	psect	text16
  2318   002BCA                     __ptext16:
  2319                           	callstack 0
  2320   002BCA                     _SYSTEM_Initialize:
  2321                           	callstack 25
  2322   002BCA                     
  2323                           ;mcc_generated_files/system/src/system.c: 42:     CLOCK_Initialize();
  2324   002BCA  ECCE  F015         	call	_CLOCK_Initialize	;wreg free
  2325                           
  2326                           ;mcc_generated_files/system/src/system.c: 43:     PIN_MANAGER_Initialize();
  2327   002BCE  EC5F  F012         	call	_PIN_MANAGER_Initialize	;wreg free
  2328   002BD2                     
  2329                           ;mcc_generated_files/system/src/system.c: 44:     UART2_Initialize();
  2330   002BD2  ECC1  F012         	call	_UART2_Initialize	;wreg free
  2331   002BD6                     
  2332                           ;mcc_generated_files/system/src/system.c: 45:     INTERRUPT_Initialize();
  2333   002BD6  ECEA  F014         	call	_INTERRUPT_Initialize	;wreg free
  2334   002BDA  0012               	return		;funcret
  2335   002BDC                     __end_of_SYSTEM_Initialize:
  2336                           	callstack 0
  2337                           
  2338 ;; *************** function _UART2_Initialize *****************
  2339 ;; Defined at:
  2340 ;;		line 118 in file "mcc_generated_files/uart/src/uart2.c"
  2341 ;; Parameters:    Size  Location     Type
  2342 ;;		None
  2343 ;; Auto vars:     Size  Location     Type
  2344 ;;		None
  2345 ;; Return value:  Size  Location     Type
  2346 ;;                  1    wreg      void 
  2347 ;; Registers used:
  2348 ;;		wreg, status,2, status,0, cstack
  2349 ;; Tracked objects:
  2350 ;;		On entry : 0/0
  2351 ;;		On exit  : 0/0
  2352 ;;		Unchanged: 0/0
  2353 ;; Data sizes:     COMRAM   BANK0   BANK1   BANK2   BANK3   BANK4   BANK5   BANK6   BANK7   BANK8   BANK9  BANK10  BANK1
      +1  BANK12  BANK13  BANK14  BANK15  BANK16  BANK17  BANK18  BANK19  BANK20  BANK21  BANK22  BANK23  BANK24  BANK25  BANK2
      +6  BANK27  BANK28  BANK29  BANK30  BANK31
  2354 ;;      Params:         0       0       0       0       0       0       0       0       0       0       0       0       
      +0       0       0       0       0       0       0       0       0       0       0       0       0       0       0       
      +0       0       0       0       0       0
  2355 ;;      Locals:         0       0       0       0       0       0       0       0       0       0       0       0       
      +0       0       0       0       0       0       0       0       0       0       0       0       0       0       0       
      +0       0       0       0       0       0
  2356 ;;      Temps:          0       0       0       0       0       0       0       0       0       0       0       0       
      +0       0       0       0       0       0       0       0       0       0       0       0       0       0       0       
      +0       0       0       0       0       0
  2357 ;;      Totals:         0       0       0       0       0       0       0       0       0       0       0       0       
      +0       0       0       0       0       0       0       0       0       0       0       0       0       0       0       
      +0       0       0       0       0       0
  2358 ;;Total ram usage:        0 bytes
  2359 ;; Hardware stack levels used: 1
  2360 ;; Hardware stack levels required when called: 4
  2361 ;; This function calls:
  2362 ;;		_UART2_FramingErrorCallbackRegister
  2363 ;;		_UART2_OverrunErrorCallbackRegister
  2364 ;;		_UART2_ParityErrorCallbackRegister
  2365 ;; This function is called by:
  2366 ;;		_main
  2367 ;;		_SYSTEM_Initialize
  2368 ;; This function uses a non-reentrant model
  2369 ;;
  2370                           
  2371                           	psect	text17
  2372   002582                     __ptext17:
  2373                           	callstack 0
  2374   002582                     _UART2_Initialize:
  2375                           	callstack 26
  2376   002582                     
  2377                           ;mcc_generated_files/uart/src/uart2.c: 120:     PIE6bits.U2RXIE = 0;
  2378   002582  0139               	movlb	57	; () banked
  2379   002584  9596               	bcf	150,2,b	;volatile
  2380   002586                     
  2381                           ; BSR set to: 57
  2382                           ;mcc_generated_files/uart/src/uart2.c: 121:     UART2_RxInterruptHandler = UART2_Receive
      +                          ISR;
  2383   002586  0E3E               	movlw	low _UART2_ReceiveISR
  2384   002588  0100               	movlb	0	; () banked
  2385   00258A  6FA3               	movwf	_UART2_RxInterruptHandler& (0+255),b
  2386   00258C  0E22               	movlw	high _UART2_ReceiveISR
  2387   00258E  6FA4               	movwf	(_UART2_RxInterruptHandler+1)& (0+255),b
  2388   002590  0E00               	movlw	low (_UART2_ReceiveISR shr (0+16))
  2389   002592  6FA5               	movwf	(_UART2_RxInterruptHandler+2)& (0+255),b
  2390   002594                     
  2391                           ; BSR set to: 0
  2392                           ;mcc_generated_files/uart/src/uart2.c: 122:     PIE6bits.U2TXIE = 0;
  2393   002594  0139               	movlb	57	; () banked
  2394   002596  9796               	bcf	150,3,b	;volatile
  2395                           
  2396                           ;mcc_generated_files/uart/src/uart2.c: 123:     UART2_TxInterruptHandler = UART2_Transmi
      +                          tISR;
  2397   002598  0E86               	movlw	low _UART2_TransmitISR
  2398   00259A  0100               	movlb	0	; () banked
  2399   00259C  6FA6               	movwf	_UART2_TxInterruptHandler& (0+255),b
  2400   00259E  0E2A               	movlw	high _UART2_TransmitISR
  2401   0025A0  6FA7               	movwf	(_UART2_TxInterruptHandler+1)& (0+255),b
  2402   0025A2  0E00               	movlw	low (_UART2_TransmitISR shr (0+16))
  2403   0025A4  6FA8               	movwf	(_UART2_TxInterruptHandler+2)& (0+255),b
  2404   0025A6                     
  2405                           ; BSR set to: 0
  2406                           ;mcc_generated_files/uart/src/uart2.c: 128:     U2RXB = 0x0;
  2407   0025A6  0E00               	movlw	0
  2408   0025A8  013D               	movlb	61	; () banked
  2409   0025AA  6FD0               	movwf	208,b	;volatile
  2410   0025AC                     
  2411                           ; BSR set to: 61
  2412                           ;mcc_generated_files/uart/src/uart2.c: 130:     U2TXB = 0x0;
  2413   0025AC  0E00               	movlw	0
  2414   0025AE  6FD2               	movwf	210,b	;volatile
  2415   0025B0                     
  2416                           ; BSR set to: 61
  2417                           ;mcc_generated_files/uart/src/uart2.c: 132:     U2P1L = 0x0;
  2418   0025B0  0E00               	movlw	0
  2419   0025B2  6FD4               	movwf	212,b	;volatile
  2420   0025B4                     
  2421                           ; BSR set to: 61
  2422                           ;mcc_generated_files/uart/src/uart2.c: 134:     U2P2L = 0x0;
  2423   0025B4  0E00               	movlw	0
  2424   0025B6  6FD6               	movwf	214,b	;volatile
  2425   0025B8                     
  2426                           ; BSR set to: 61
  2427                           ;mcc_generated_files/uart/src/uart2.c: 136:     U2P3L = 0x0;
  2428   0025B8  0E00               	movlw	0
  2429   0025BA  6FD8               	movwf	216,b	;volatile
  2430   0025BC                     
  2431                           ; BSR set to: 61
  2432                           ;mcc_generated_files/uart/src/uart2.c: 138:     U2CON0 = 0xB0;
  2433   0025BC  0EB0               	movlw	176
  2434   0025BE  6FDA               	movwf	218,b	;volatile
  2435   0025C0                     
  2436                           ; BSR set to: 61
  2437                           ;mcc_generated_files/uart/src/uart2.c: 140:     U2CON1 = 0x80;
  2438   0025C0  0E80               	movlw	128
  2439   0025C2  6FDB               	movwf	219,b	;volatile
  2440   0025C4                     
  2441                           ; BSR set to: 61
  2442                           ;mcc_generated_files/uart/src/uart2.c: 142:     U2CON2 = 0x0;
  2443   0025C4  0E00               	movlw	0
  2444   0025C6  6FDC               	movwf	220,b	;volatile
  2445   0025C8                     
  2446                           ; BSR set to: 61
  2447                           ;mcc_generated_files/uart/src/uart2.c: 144:     U2BRGL = 0x82;
  2448   0025C8  0E82               	movlw	130
  2449   0025CA  6FDD               	movwf	221,b	;volatile
  2450   0025CC                     
  2451                           ; BSR set to: 61
  2452                           ;mcc_generated_files/uart/src/uart2.c: 146:     U2BRGH = 0x6;
  2453   0025CC  0E06               	movlw	6
  2454   0025CE  6FDE               	movwf	222,b	;volatile
  2455   0025D0                     
  2456                           ; BSR set to: 61
  2457                           ;mcc_generated_files/uart/src/uart2.c: 148:     U2FIFO = 0x2E;
  2458   0025D0  0E2E               	movlw	46
  2459   0025D2  6FDF               	movwf	223,b	;volatile
  2460   0025D4                     
  2461                           ; BSR set to: 61
  2462                           ;mcc_generated_files/uart/src/uart2.c: 150:     U2UIR = 0x0;
  2463   0025D4  0E00               	movlw	0
  2464   0025D6  6FE0               	movwf	224,b	;volatile
  2465   0025D8                     
  2466                           ; BSR set to: 61
  2467                           ;mcc_generated_files/uart/src/uart2.c: 152:     U2ERRIR = 0x80;
  2468   0025D8  0E80               	movlw	128
  2469   0025DA  6FE1               	movwf	225,b	;volatile
  2470   0025DC                     
  2471                           ; BSR set to: 61
  2472                           ;mcc_generated_files/uart/src/uart2.c: 154:     U2ERRIE = 0x0;
  2473   0025DC  0E00               	movlw	0
  2474   0025DE  6FE2               	movwf	226,b	;volatile
  2475   0025E0                     
  2476                           ; BSR set to: 61
  2477                           ;mcc_generated_files/uart/src/uart2.c: 156:     UART2_FramingErrorCallbackRegister(UART2
      +                          _DefaultFramingErrorCallback);
  2478   0025E0  0E08               	movlw	low _UART2_DefaultFramingErrorCallback
  2479   0025E2  6E05               	movwf	UART2_FramingErrorCallbackRegister@callbackHandler^0,c
  2480   0025E4  0E2C               	movlw	high _UART2_DefaultFramingErrorCallback
  2481   0025E6  6E06               	movwf	(UART2_FramingErrorCallbackRegister@callbackHandler+1)^0,c
  2482   0025E8  0E00               	movlw	low (_UART2_DefaultFramingErrorCallback shr (0+16))
  2483   0025EA  6E07               	movwf	(UART2_FramingErrorCallbackRegister@callbackHandler+2)^0,c
  2484   0025EC  EC94  F015         	call	_UART2_FramingErrorCallbackRegister	;wreg free
  2485   0025F0                     
  2486                           ;mcc_generated_files/uart/src/uart2.c: 157:     UART2_OverrunErrorCallbackRegister(UART2
      +                          _DefaultOverrunErrorCallback);
  2487   0025F0  0E06               	movlw	low _UART2_DefaultOverrunErrorCallback
  2488   0025F2  6E05               	movwf	UART2_OverrunErrorCallbackRegister@callbackHandler^0,c
  2489   0025F4  0E2C               	movlw	high _UART2_DefaultOverrunErrorCallback
  2490   0025F6  6E06               	movwf	(UART2_OverrunErrorCallbackRegister@callbackHandler+1)^0,c
  2491   0025F8  0E00               	movlw	low (_UART2_DefaultOverrunErrorCallback shr (0+16))
  2492   0025FA  6E07               	movwf	(UART2_OverrunErrorCallbackRegister@callbackHandler+2)^0,c
  2493   0025FC  EC83  F015         	call	_UART2_OverrunErrorCallbackRegister	;wreg free
  2494   002600                     
  2495                           ;mcc_generated_files/uart/src/uart2.c: 158:     UART2_ParityErrorCallbackRegister(UART2_
      +                          DefaultParityErrorCallback);
  2496   002600  0E00               	movlw	0
  2497   002602  6E05               	movwf	UART2_ParityErrorCallbackRegister@callbackHandler^0,c
  2498   002604  0E00               	movlw	0
  2499   002606  6E06               	movwf	(UART2_ParityErrorCallbackRegister@callbackHandler+1)^0,c
  2500   002608  0E00               	movlw	0
  2501   00260A  6E07               	movwf	(UART2_ParityErrorCallbackRegister@callbackHandler+2)^0,c
  2502   00260C  EC72  F015         	call	_UART2_ParityErrorCallbackRegister	;wreg free
  2503   002610                     
  2504                           ;mcc_generated_files/uart/src/uart2.c: 160:     uart2RxLastError.status = 0;
  2505   002610  0E00               	movlw	0
  2506   002612  6E50               	movwf	(_uart2RxLastError+1)^0,c	;volatile
  2507   002614  0E00               	movlw	0
  2508   002616  6E4F               	movwf	_uart2RxLastError^0,c	;volatile
  2509   002618                     
  2510                           ;mcc_generated_files/uart/src/uart2.c: 161:     uart2TxHead = 0;
  2511   002618  0E00               	movlw	0
  2512   00261A  6E57               	movwf	_uart2TxHead^0,c	;volatile
  2513   00261C                     
  2514                           ;mcc_generated_files/uart/src/uart2.c: 162:     uart2TxTail = 0;
  2515   00261C  0E00               	movlw	0
  2516   00261E  6E56               	movwf	_uart2TxTail^0,c	;volatile
  2517   002620                     
  2518                           ;mcc_generated_files/uart/src/uart2.c: 163:     uart2TxBufferRemaining = sizeof(uart2TxB
      +                          uffer);
  2519   002620  0E08               	movlw	8
  2520   002622  6E55               	movwf	_uart2TxBufferRemaining^0,c	;volatile
  2521   002624                     
  2522                           ;mcc_generated_files/uart/src/uart2.c: 164:     uart2RxHead = 0;
  2523   002624  0E00               	movlw	0
  2524   002626  6E54               	movwf	_uart2RxHead^0,c	;volatile
  2525   002628                     
  2526                           ;mcc_generated_files/uart/src/uart2.c: 165:     uart2RxTail = 0;
  2527   002628  0E00               	movlw	0
  2528   00262A  6E53               	movwf	_uart2RxTail^0,c	;volatile
  2529   00262C                     
  2530                           ;mcc_generated_files/uart/src/uart2.c: 166:     uart2RxCount = 0;
  2531   00262C  0E00               	movlw	0
  2532   00262E  6E52               	movwf	_uart2RxCount^0,c	;volatile
  2533   002630                     
  2534                           ;mcc_generated_files/uart/src/uart2.c: 167:     PIE6bits.U2RXIE = 1;
  2535   002630  0139               	movlb	57	; () banked
  2536   002632  8596               	bsf	150,2,b	;volatile
  2537   002634                     
  2538                           ; BSR set to: 57
  2539   002634  0012               	return		;funcret
  2540   002636                     __end_of_UART2_Initialize:
  2541                           	callstack 0
  2542                           
  2543 ;; *************** function _UART2_ParityErrorCallbackRegister *****************
  2544 ;; Defined at:
  2545 ;;		line 460 in file "mcc_generated_files/uart/src/uart2.c"
  2546 ;; Parameters:    Size  Location     Type
  2547 ;;  callbackHand    3    4[COMRAM] PTR FTN()void 
  2548 ;;		 -> UART2_DefaultParityErrorCallback(1), 
  2549 ;; Auto vars:     Size  Location     Type
  2550 ;;		None
  2551 ;; Return value:  Size  Location     Type
  2552 ;;                  1    wreg      void 
  2553 ;; Registers used:
  2554 ;;		wreg, status,2, status,0
  2555 ;; Tracked objects:
  2556 ;;		On entry : 0/0
  2557 ;;		On exit  : 0/0
  2558 ;;		Unchanged: 0/0
  2559 ;; Data sizes:     COMRAM   BANK0   BANK1   BANK2   BANK3   BANK4   BANK5   BANK6   BANK7   BANK8   BANK9  BANK10  BANK1
      +1  BANK12  BANK13  BANK14  BANK15  BANK16  BANK17  BANK18  BANK19  BANK20  BANK21  BANK22  BANK23  BANK24  BANK25  BANK2
      +6  BANK27  BANK28  BANK29  BANK30  BANK31
  2560 ;;      Params:         3       0       0       0       0       0       0       0       0       0       0       0       
      +0       0       0       0       0       0       0       0       0       0       0       0       0       0       0       
      +0       0       0       0       0       0
  2561 ;;      Locals:         0       0       0       0       0       0       0       0       0       0       0       0       
      +0       0       0       0       0       0       0       0       0       0       0       0       0       0       0       
      +0       0       0       0       0       0
  2562 ;;      Temps:          0       0       0       0       0       0       0       0       0       0       0       0       
      +0       0       0       0       0       0       0       0       0       0       0       0       0       0       0       
      +0       0       0       0       0       0
  2563 ;;      Totals:         3       0       0       0       0       0       0       0       0       0       0       0       
      +0       0       0       0       0       0       0       0       0       0       0       0       0       0       0       
      +0       0       0       0       0       0
  2564 ;;Total ram usage:        3 bytes
  2565 ;; Hardware stack levels used: 1
  2566 ;; Hardware stack levels required when called: 3
  2567 ;; This function calls:
  2568 ;;		Nothing
  2569 ;; This function is called by:
  2570 ;;		_UART2_Initialize
  2571 ;; This function uses a non-reentrant model
  2572 ;;
  2573                           
  2574                           	psect	text18
  2575   002AE4                     __ptext18:
  2576                           	callstack 0
  2577   002AE4                     _UART2_ParityErrorCallbackRegister:
  2578                           	callstack 26
  2579   002AE4                     
  2580                           ;mcc_generated_files/uart/src/uart2.c: 460: void UART2_ParityErrorCallbackRegister(void 
      +                          (* callbackHandler)(void));mcc_generated_files/uart/src/uart2.c: 461: {;mcc_generated_fi
      +                          les/uart/src/uart2.c: 462:     if(((void*)0) != callbackHandler)
  2581   002AE4  5005               	movf	UART2_ParityErrorCallbackRegister@callbackHandler^0,w,c
  2582   002AE6  1006               	iorwf	(UART2_ParityErrorCallbackRegister@callbackHandler+1)^0,w,c
  2583   002AE8  1007               	iorwf	(UART2_ParityErrorCallbackRegister@callbackHandler+2)^0,w,c
  2584   002AEA  B4D8               	btfsc	status,2,c
  2585   002AEC  EF7A  F015         	goto	u931
  2586   002AF0  EF7C  F015         	goto	u930
  2587   002AF4                     u931:
  2588   002AF4  EF82  F015         	goto	l506
  2589   002AF8                     u930:
  2590   002AF8                     
  2591                           ;mcc_generated_files/uart/src/uart2.c: 463:     {;mcc_generated_files/uart/src/uart2.c: 
      +                          464:         UART2_ParityErrorHandler = callbackHandler;
  2592   002AF8  C005  F0A0         	movff	UART2_ParityErrorCallbackRegister@callbackHandler,_UART2_ParityErrorHandler
  2593   002AFC  C006  F0A1         	movff	UART2_ParityErrorCallbackRegister@callbackHandler+1,_UART2_ParityErrorHandler+1
  2594   002B00  C007  F0A2         	movff	UART2_ParityErrorCallbackRegister@callbackHandler+2,_UART2_ParityErrorHandler+2
  2595   002B04                     l506:
  2596   002B04  0012               	return		;funcret
  2597   002B06                     __end_of_UART2_ParityErrorCallbackRegister:
  2598                           	callstack 0
  2599                           
  2600 ;; *************** function _UART2_OverrunErrorCallbackRegister *****************
  2601 ;; Defined at:
  2602 ;;		line 452 in file "mcc_generated_files/uart/src/uart2.c"
  2603 ;; Parameters:    Size  Location     Type
  2604 ;;  callbackHand    3    4[COMRAM] PTR FTN()void 
  2605 ;;		 -> UART2_DefaultOverrunErrorCallback(1), 
  2606 ;; Auto vars:     Size  Location     Type
  2607 ;;		None
  2608 ;; Return value:  Size  Location     Type
  2609 ;;                  1    wreg      void 
  2610 ;; Registers used:
  2611 ;;		wreg, status,2, status,0
  2612 ;; Tracked objects:
  2613 ;;		On entry : 0/0
  2614 ;;		On exit  : 0/0
  2615 ;;		Unchanged: 0/0
  2616 ;; Data sizes:     COMRAM   BANK0   BANK1   BANK2   BANK3   BANK4   BANK5   BANK6   BANK7   BANK8   BANK9  BANK10  BANK1
      +1  BANK12  BANK13  BANK14  BANK15  BANK16  BANK17  BANK18  BANK19  BANK20  BANK21  BANK22  BANK23  BANK24  BANK25  BANK2
      +6  BANK27  BANK28  BANK29  BANK30  BANK31
  2617 ;;      Params:         3       0       0       0       0       0       0       0       0       0       0       0       
      +0       0       0       0       0       0       0       0       0       0       0       0       0       0       0       
      +0       0       0       0       0       0
  2618 ;;      Locals:         0       0       0       0       0       0       0       0       0       0       0       0       
      +0       0       0       0       0       0       0       0       0       0       0       0       0       0       0       
      +0       0       0       0       0       0
  2619 ;;      Temps:          0       0       0       0       0       0       0       0       0       0       0       0       
      +0       0       0       0       0       0       0       0       0       0       0       0       0       0       0       
      +0       0       0       0       0       0
  2620 ;;      Totals:         3       0       0       0       0       0       0       0       0       0       0       0       
      +0       0       0       0       0       0       0       0       0       0       0       0       0       0       0       
      +0       0       0       0       0       0
  2621 ;;Total ram usage:        3 bytes
  2622 ;; Hardware stack levels used: 1
  2623 ;; Hardware stack levels required when called: 3
  2624 ;; This function calls:
  2625 ;;		Nothing
  2626 ;; This function is called by:
  2627 ;;		_UART2_Initialize
  2628 ;; This function uses a non-reentrant model
  2629 ;;
  2630                           
  2631                           	psect	text19
  2632   002B06                     __ptext19:
  2633                           	callstack 0
  2634   002B06                     _UART2_OverrunErrorCallbackRegister:
  2635                           	callstack 26
  2636   002B06                     
  2637                           ;mcc_generated_files/uart/src/uart2.c: 452: void UART2_OverrunErrorCallbackRegister(void
      +                           (* callbackHandler)(void));mcc_generated_files/uart/src/uart2.c: 453: {;mcc_generated_f
      +                          iles/uart/src/uart2.c: 454:     if(((void*)0) != callbackHandler)
  2638   002B06  5005               	movf	UART2_OverrunErrorCallbackRegister@callbackHandler^0,w,c
  2639   002B08  1006               	iorwf	(UART2_OverrunErrorCallbackRegister@callbackHandler+1)^0,w,c
  2640   002B0A  1007               	iorwf	(UART2_OverrunErrorCallbackRegister@callbackHandler+2)^0,w,c
  2641   002B0C  B4D8               	btfsc	status,2,c
  2642   002B0E  EF8B  F015         	goto	u921
  2643   002B12  EF8D  F015         	goto	u920
  2644   002B16                     u921:
  2645   002B16  EF93  F015         	goto	l502
  2646   002B1A                     u920:
  2647   002B1A                     
  2648                           ;mcc_generated_files/uart/src/uart2.c: 455:     {;mcc_generated_files/uart/src/uart2.c: 
      +                          456:         UART2_OverrunErrorHandler = callbackHandler;
  2649   002B1A  C005  F03C         	movff	UART2_OverrunErrorCallbackRegister@callbackHandler,_UART2_OverrunErrorHandler
  2650   002B1E  C006  F03D         	movff	UART2_OverrunErrorCallbackRegister@callbackHandler+1,_UART2_OverrunErrorHandler+1
  2651   002B22  C007  F03E         	movff	UART2_OverrunErrorCallbackRegister@callbackHandler+2,_UART2_OverrunErrorHandler+2
  2652   002B26                     l502:
  2653   002B26  0012               	return		;funcret
  2654   002B28                     __end_of_UART2_OverrunErrorCallbackRegister:
  2655                           	callstack 0
  2656                           
  2657 ;; *************** function _UART2_FramingErrorCallbackRegister *****************
  2658 ;; Defined at:
  2659 ;;		line 444 in file "mcc_generated_files/uart/src/uart2.c"
  2660 ;; Parameters:    Size  Location     Type
  2661 ;;  callbackHand    3    4[COMRAM] PTR FTN()void 
  2662 ;;		 -> UART2_DefaultFramingErrorCallback(1), 
  2663 ;; Auto vars:     Size  Location     Type
  2664 ;;		None
  2665 ;; Return value:  Size  Location     Type
  2666 ;;                  1    wreg      void 
  2667 ;; Registers used:
  2668 ;;		wreg, status,2, status,0
  2669 ;; Tracked objects:
  2670 ;;		On entry : 0/0
  2671 ;;		On exit  : 0/0
  2672 ;;		Unchanged: 0/0
  2673 ;; Data sizes:     COMRAM   BANK0   BANK1   BANK2   BANK3   BANK4   BANK5   BANK6   BANK7   BANK8   BANK9  BANK10  BANK1
      +1  BANK12  BANK13  BANK14  BANK15  BANK16  BANK17  BANK18  BANK19  BANK20  BANK21  BANK22  BANK23  BANK24  BANK25  BANK2
      +6  BANK27  BANK28  BANK29  BANK30  BANK31
  2674 ;;      Params:         3       0       0       0       0       0       0       0       0       0       0       0       
      +0       0       0       0       0       0       0       0       0       0       0       0       0       0       0       
      +0       0       0       0       0       0
  2675 ;;      Locals:         0       0       0       0       0       0       0       0       0       0       0       0       
      +0       0       0       0       0       0       0       0       0       0       0       0       0       0       0       
      +0       0       0       0       0       0
  2676 ;;      Temps:          0       0       0       0       0       0       0       0       0       0       0       0       
      +0       0       0       0       0       0       0       0       0       0       0       0       0       0       0       
      +0       0       0       0       0       0
  2677 ;;      Totals:         3       0       0       0       0       0       0       0       0       0       0       0       
      +0       0       0       0       0       0       0       0       0       0       0       0       0       0       0       
      +0       0       0       0       0       0
  2678 ;;Total ram usage:        3 bytes
  2679 ;; Hardware stack levels used: 1
  2680 ;; Hardware stack levels required when called: 3
  2681 ;; This function calls:
  2682 ;;		Nothing
  2683 ;; This function is called by:
  2684 ;;		_UART2_Initialize
  2685 ;; This function uses a non-reentrant model
  2686 ;;
  2687                           
  2688                           	psect	text20
  2689   002B28                     __ptext20:
  2690                           	callstack 0
  2691   002B28                     _UART2_FramingErrorCallbackRegister:
  2692                           	callstack 26
  2693   002B28                     
  2694                           ;mcc_generated_files/uart/src/uart2.c: 444: void UART2_FramingErrorCallbackRegister(void
      +                           (* callbackHandler)(void));mcc_generated_files/uart/src/uart2.c: 445: {;mcc_generated_f
      +                          iles/uart/src/uart2.c: 446:     if(((void*)0) != callbackHandler)
  2695   002B28  5005               	movf	UART2_FramingErrorCallbackRegister@callbackHandler^0,w,c
  2696   002B2A  1006               	iorwf	(UART2_FramingErrorCallbackRegister@callbackHandler+1)^0,w,c
  2697   002B2C  1007               	iorwf	(UART2_FramingErrorCallbackRegister@callbackHandler+2)^0,w,c
  2698   002B2E  B4D8               	btfsc	status,2,c
  2699   002B30  EF9C  F015         	goto	u911
  2700   002B34  EF9E  F015         	goto	u910
  2701   002B38                     u911:
  2702   002B38  EFA4  F015         	goto	l498
  2703   002B3C                     u910:
  2704   002B3C                     
  2705                           ;mcc_generated_files/uart/src/uart2.c: 447:     {;mcc_generated_files/uart/src/uart2.c: 
      +                          448:         UART2_FramingErrorHandler = callbackHandler;
  2706   002B3C  C005  F03F         	movff	UART2_FramingErrorCallbackRegister@callbackHandler,_UART2_FramingErrorHandler
  2707   002B40  C006  F040         	movff	UART2_FramingErrorCallbackRegister@callbackHandler+1,_UART2_FramingErrorHandler+1
  2708   002B44  C007  F041         	movff	UART2_FramingErrorCallbackRegister@callbackHandler+2,_UART2_FramingErrorHandler+2
  2709   002B48                     l498:
  2710   002B48  0012               	return		;funcret
  2711   002B4A                     __end_of_UART2_FramingErrorCallbackRegister:
  2712                           	callstack 0
  2713                           
  2714 ;; *************** function _PIN_MANAGER_Initialize *****************
  2715 ;; Defined at:
  2716 ;;		line 38 in file "mcc_generated_files/system/src/pins.c"
  2717 ;; Parameters:    Size  Location     Type
  2718 ;;		None
  2719 ;; Auto vars:     Size  Location     Type
  2720 ;;		None
  2721 ;; Return value:  Size  Location     Type
  2722 ;;                  1    wreg      void 
  2723 ;; Registers used:
  2724 ;;		wreg, status,2
  2725 ;; Tracked objects:
  2726 ;;		On entry : 0/0
  2727 ;;		On exit  : 0/0
  2728 ;;		Unchanged: 0/0
  2729 ;; Data sizes:     COMRAM   BANK0   BANK1   BANK2   BANK3   BANK4   BANK5   BANK6   BANK7   BANK8   BANK9  BANK10  BANK1
      +1  BANK12  BANK13  BANK14  BANK15  BANK16  BANK17  BANK18  BANK19  BANK20  BANK21  BANK22  BANK23  BANK24  BANK25  BANK2
      +6  BANK27  BANK28  BANK29  BANK30  BANK31
  2730 ;;      Params:         0       0       0       0       0       0       0       0       0       0       0       0       
      +0       0       0       0       0       0       0       0       0       0       0       0       0       0       0       
      +0       0       0       0       0       0
  2731 ;;      Locals:         0       0       0       0       0       0       0       0       0       0       0       0       
      +0       0       0       0       0       0       0       0       0       0       0       0       0       0       0       
      +0       0       0       0       0       0
  2732 ;;      Temps:          0       0       0       0       0       0       0       0       0       0       0       0       
      +0       0       0       0       0       0       0       0       0       0       0       0       0       0       0       
      +0       0       0       0       0       0
  2733 ;;      Totals:         0       0       0       0       0       0       0       0       0       0       0       0       
      +0       0       0       0       0       0       0       0       0       0       0       0       0       0       0       
      +0       0       0       0       0       0
  2734 ;;Total ram usage:        0 bytes
  2735 ;; Hardware stack levels used: 1
  2736 ;; Hardware stack levels required when called: 3
  2737 ;; This function calls:
  2738 ;;		Nothing
  2739 ;; This function is called by:
  2740 ;;		_SYSTEM_Initialize
  2741 ;; This function uses a non-reentrant model
  2742 ;;
  2743                           
  2744                           	psect	text21
  2745   0024BE                     __ptext21:
  2746                           	callstack 0
  2747   0024BE                     _PIN_MANAGER_Initialize:
  2748                           	callstack 26
  2749   0024BE                     
  2750                           ;mcc_generated_files/system/src/pins.c: 43:     LATA = 0x0;
  2751   0024BE  0E00               	movlw	0
  2752   0024C0  6EBA               	movwf	186,c	;volatile
  2753                           
  2754                           ;mcc_generated_files/system/src/pins.c: 44:     LATB = 0x0;
  2755   0024C2  0E00               	movlw	0
  2756   0024C4  6EBB               	movwf	187,c	;volatile
  2757                           
  2758                           ;mcc_generated_files/system/src/pins.c: 45:     LATC = 0x0;
  2759   0024C6  0E00               	movlw	0
  2760   0024C8  6EBC               	movwf	188,c	;volatile
  2761                           
  2762                           ;mcc_generated_files/system/src/pins.c: 46:     LATD = 0x0;
  2763   0024CA  0E00               	movlw	0
  2764   0024CC  6EBD               	movwf	189,c	;volatile
  2765                           
  2766                           ;mcc_generated_files/system/src/pins.c: 47:     LATE = 0x0;
  2767   0024CE  0E00               	movlw	0
  2768   0024D0  6EBE               	movwf	190,c	;volatile
  2769   0024D2                     
  2770                           ;mcc_generated_files/system/src/pins.c: 52:     TRISA = 0xFF;
  2771   0024D2  68C2               	setf	194,c	;volatile
  2772   0024D4                     
  2773                           ;mcc_generated_files/system/src/pins.c: 53:     TRISB = 0xFF;
  2774   0024D4  68C3               	setf	195,c	;volatile
  2775   0024D6                     
  2776                           ;mcc_generated_files/system/src/pins.c: 54:     TRISC = 0xFF;
  2777   0024D6  68C4               	setf	196,c	;volatile
  2778                           
  2779                           ;mcc_generated_files/system/src/pins.c: 55:     TRISD = 0xFE;
  2780   0024D8  0EFE               	movlw	254
  2781   0024DA  6EC5               	movwf	197,c	;volatile
  2782                           
  2783                           ;mcc_generated_files/system/src/pins.c: 56:     TRISE = 0x7;
  2784   0024DC  0E07               	movlw	7
  2785   0024DE  6EC6               	movwf	198,c	;volatile
  2786   0024E0                     
  2787                           ;mcc_generated_files/system/src/pins.c: 61:     ANSELA = 0xFF;
  2788   0024E0  013A               	movlb	58	; () banked
  2789   0024E2  6940               	setf	64,b	;volatile
  2790   0024E4                     
  2791                           ; BSR set to: 58
  2792                           ;mcc_generated_files/system/src/pins.c: 62:     ANSELB = 0xFF;
  2793   0024E4  6950               	setf	80,b	;volatile
  2794   0024E6                     
  2795                           ; BSR set to: 58
  2796                           ;mcc_generated_files/system/src/pins.c: 63:     ANSELC = 0xFF;
  2797   0024E6  6960               	setf	96,b	;volatile
  2798                           
  2799                           ;mcc_generated_files/system/src/pins.c: 64:     ANSELD = 0xFC;
  2800   0024E8  0EFC               	movlw	252
  2801   0024EA  6F70               	movwf	112,b	;volatile
  2802                           
  2803                           ;mcc_generated_files/system/src/pins.c: 65:     ANSELE = 0x7;
  2804   0024EC  0E07               	movlw	7
  2805   0024EE  6F80               	movwf	128,b	;volatile
  2806                           
  2807                           ;mcc_generated_files/system/src/pins.c: 70:     WPUA = 0x0;
  2808   0024F0  0E00               	movlw	0
  2809   0024F2  6F41               	movwf	65,b	;volatile
  2810                           
  2811                           ;mcc_generated_files/system/src/pins.c: 71:     WPUB = 0x0;
  2812   0024F4  0E00               	movlw	0
  2813   0024F6  6F51               	movwf	81,b	;volatile
  2814                           
  2815                           ;mcc_generated_files/system/src/pins.c: 72:     WPUC = 0x0;
  2816   0024F8  0E00               	movlw	0
  2817   0024FA  6F61               	movwf	97,b	;volatile
  2818                           
  2819                           ;mcc_generated_files/system/src/pins.c: 73:     WPUD = 0x0;
  2820   0024FC  0E00               	movlw	0
  2821   0024FE  6F71               	movwf	113,b	;volatile
  2822                           
  2823                           ;mcc_generated_files/system/src/pins.c: 74:     WPUE = 0x0;
  2824   002500  0E00               	movlw	0
  2825   002502  6F81               	movwf	129,b	;volatile
  2826                           
  2827                           ;mcc_generated_files/system/src/pins.c: 79:     ODCONA = 0x0;
  2828   002504  0E00               	movlw	0
  2829   002506  6F42               	movwf	66,b	;volatile
  2830                           
  2831                           ;mcc_generated_files/system/src/pins.c: 80:     ODCONB = 0x0;
  2832   002508  0E00               	movlw	0
  2833   00250A  6F52               	movwf	82,b	;volatile
  2834                           
  2835                           ;mcc_generated_files/system/src/pins.c: 81:     ODCONC = 0x0;
  2836   00250C  0E00               	movlw	0
  2837   00250E  6F62               	movwf	98,b	;volatile
  2838                           
  2839                           ;mcc_generated_files/system/src/pins.c: 82:     ODCOND = 0x0;
  2840   002510  0E00               	movlw	0
  2841   002512  6F72               	movwf	114,b	;volatile
  2842                           
  2843                           ;mcc_generated_files/system/src/pins.c: 83:     ODCONE = 0x0;
  2844   002514  0E00               	movlw	0
  2845   002516  6F82               	movwf	130,b	;volatile
  2846   002518                     
  2847                           ; BSR set to: 58
  2848                           ;mcc_generated_files/system/src/pins.c: 88:     SLRCONA = 0xFF;
  2849   002518  6943               	setf	67,b	;volatile
  2850   00251A                     
  2851                           ; BSR set to: 58
  2852                           ;mcc_generated_files/system/src/pins.c: 89:     SLRCONB = 0xFF;
  2853   00251A  6953               	setf	83,b	;volatile
  2854   00251C                     
  2855                           ; BSR set to: 58
  2856                           ;mcc_generated_files/system/src/pins.c: 90:     SLRCONC = 0xFF;
  2857   00251C  6963               	setf	99,b	;volatile
  2858   00251E                     
  2859                           ; BSR set to: 58
  2860                           ;mcc_generated_files/system/src/pins.c: 91:     SLRCOND = 0xFF;
  2861   00251E  6973               	setf	115,b	;volatile
  2862                           
  2863                           ;mcc_generated_files/system/src/pins.c: 92:     SLRCONE = 0x7;
  2864   002520  0E07               	movlw	7
  2865   002522  6F83               	movwf	131,b	;volatile
  2866   002524                     
  2867                           ; BSR set to: 58
  2868                           ;mcc_generated_files/system/src/pins.c: 97:     INLVLA = 0xFF;
  2869   002524  6944               	setf	68,b	;volatile
  2870   002526                     
  2871                           ; BSR set to: 58
  2872                           ;mcc_generated_files/system/src/pins.c: 98:     INLVLB = 0xFF;
  2873   002526  6954               	setf	84,b	;volatile
  2874   002528                     
  2875                           ; BSR set to: 58
  2876                           ;mcc_generated_files/system/src/pins.c: 99:     INLVLC = 0xFF;
  2877   002528  6964               	setf	100,b	;volatile
  2878   00252A                     
  2879                           ; BSR set to: 58
  2880                           ;mcc_generated_files/system/src/pins.c: 100:     INLVLD = 0xFF;
  2881   00252A  6974               	setf	116,b	;volatile
  2882                           
  2883                           ;mcc_generated_files/system/src/pins.c: 101:     INLVLE = 0xF;
  2884   00252C  0E0F               	movlw	15
  2885   00252E  6F84               	movwf	132,b	;volatile
  2886                           
  2887                           ;mcc_generated_files/system/src/pins.c: 106:     RB1I2C = 0x0;
  2888   002530  0E00               	movlw	0
  2889   002532  6F5A               	movwf	90,b	;volatile
  2890                           
  2891                           ;mcc_generated_files/system/src/pins.c: 107:     RB2I2C = 0x0;
  2892   002534  0E00               	movlw	0
  2893   002536  6F5B               	movwf	91,b	;volatile
  2894                           
  2895                           ;mcc_generated_files/system/src/pins.c: 108:     RC3I2C = 0x0;
  2896   002538  0E00               	movlw	0
  2897   00253A  6F6A               	movwf	106,b	;volatile
  2898                           
  2899                           ;mcc_generated_files/system/src/pins.c: 109:     RC4I2C = 0x0;
  2900   00253C  0E00               	movlw	0
  2901   00253E  6F6B               	movwf	107,b	;volatile
  2902                           
  2903                           ;mcc_generated_files/system/src/pins.c: 110:     RD0I2C = 0x0;
  2904   002540  0E00               	movlw	0
  2905   002542  6F7A               	movwf	122,b	;volatile
  2906                           
  2907                           ;mcc_generated_files/system/src/pins.c: 111:     RD1I2C = 0x0;
  2908   002544  0E00               	movlw	0
  2909   002546  6F7B               	movwf	123,b	;volatile
  2910                           
  2911                           ;mcc_generated_files/system/src/pins.c: 115:     U2RXPPS = 0x19;
  2912   002548  0E19               	movlw	25
  2913   00254A  6FE8               	movwf	232,b	;volatile
  2914                           
  2915                           ;mcc_generated_files/system/src/pins.c: 116:     RD0PPS = 0x16;
  2916   00254C  0E16               	movlw	22
  2917   00254E  6F18               	movwf	24,b	;volatile
  2918                           
  2919                           ;mcc_generated_files/system/src/pins.c: 121:     IOCAP = 0x0;
  2920   002550  0E00               	movlw	0
  2921   002552  6F45               	movwf	69,b	;volatile
  2922                           
  2923                           ;mcc_generated_files/system/src/pins.c: 122:     IOCAN = 0x0;
  2924   002554  0E00               	movlw	0
  2925   002556  6F46               	movwf	70,b	;volatile
  2926                           
  2927                           ;mcc_generated_files/system/src/pins.c: 123:     IOCAF = 0x0;
  2928   002558  0E00               	movlw	0
  2929   00255A  6F47               	movwf	71,b	;volatile
  2930                           
  2931                           ;mcc_generated_files/system/src/pins.c: 124:     IOCBP = 0x0;
  2932   00255C  0E00               	movlw	0
  2933   00255E  6F55               	movwf	85,b	;volatile
  2934                           
  2935                           ;mcc_generated_files/system/src/pins.c: 125:     IOCBN = 0x0;
  2936   002560  0E00               	movlw	0
  2937   002562  6F56               	movwf	86,b	;volatile
  2938                           
  2939                           ;mcc_generated_files/system/src/pins.c: 126:     IOCBF = 0x0;
  2940   002564  0E00               	movlw	0
  2941   002566  6F57               	movwf	87,b	;volatile
  2942                           
  2943                           ;mcc_generated_files/system/src/pins.c: 127:     IOCCP = 0x0;
  2944   002568  0E00               	movlw	0
  2945   00256A  6F65               	movwf	101,b	;volatile
  2946                           
  2947                           ;mcc_generated_files/system/src/pins.c: 128:     IOCCN = 0x0;
  2948   00256C  0E00               	movlw	0
  2949   00256E  6F66               	movwf	102,b	;volatile
  2950                           
  2951                           ;mcc_generated_files/system/src/pins.c: 129:     IOCCF = 0x0;
  2952   002570  0E00               	movlw	0
  2953   002572  6F67               	movwf	103,b	;volatile
  2954                           
  2955                           ;mcc_generated_files/system/src/pins.c: 130:     IOCEP = 0x0;
  2956   002574  0E00               	movlw	0
  2957   002576  6F85               	movwf	133,b	;volatile
  2958                           
  2959                           ;mcc_generated_files/system/src/pins.c: 131:     IOCEN = 0x0;
  2960   002578  0E00               	movlw	0
  2961   00257A  6F86               	movwf	134,b	;volatile
  2962                           
  2963                           ;mcc_generated_files/system/src/pins.c: 132:     IOCEF = 0x0;
  2964   00257C  0E00               	movlw	0
  2965   00257E  6F87               	movwf	135,b	;volatile
  2966   002580                     
  2967                           ; BSR set to: 58
  2968   002580  0012               	return		;funcret
  2969   002582                     __end_of_PIN_MANAGER_Initialize:
  2970                           	callstack 0
  2971                           
  2972 ;; *************** function _INTERRUPT_Initialize *****************
  2973 ;; Defined at:
  2974 ;;		line 42 in file "mcc_generated_files/system/src/interrupt.c"
  2975 ;; Parameters:    Size  Location     Type
  2976 ;;		None
  2977 ;; Auto vars:     Size  Location     Type
  2978 ;;		None
  2979 ;; Return value:  Size  Location     Type
  2980 ;;                  1    wreg      void 
  2981 ;; Registers used:
  2982 ;;		wreg, status,2, status,0, cstack
  2983 ;; Tracked objects:
  2984 ;;		On entry : 0/0
  2985 ;;		On exit  : 0/0
  2986 ;;		Unchanged: 0/0
  2987 ;; Data sizes:     COMRAM   BANK0   BANK1   BANK2   BANK3   BANK4   BANK5   BANK6   BANK7   BANK8   BANK9  BANK10  BANK1
      +1  BANK12  BANK13  BANK14  BANK15  BANK16  BANK17  BANK18  BANK19  BANK20  BANK21  BANK22  BANK23  BANK24  BANK25  BANK2
      +6  BANK27  BANK28  BANK29  BANK30  BANK31
  2988 ;;      Params:         0       0       0       0       0       0       0       0       0       0       0       0       
      +0       0       0       0       0       0       0       0       0       0       0       0       0       0       0       
      +0       0       0       0       0       0
  2989 ;;      Locals:         0       0       0       0       0       0       0       0       0       0       0       0       
      +0       0       0       0       0       0       0       0       0       0       0       0       0       0       0       
      +0       0       0       0       0       0
  2990 ;;      Temps:          0       0       0       0       0       0       0       0       0       0       0       0       
      +0       0       0       0       0       0       0       0       0       0       0       0       0       0       0       
      +0       0       0       0       0       0
  2991 ;;      Totals:         0       0       0       0       0       0       0       0       0       0       0       0       
      +0       0       0       0       0       0       0       0       0       0       0       0       0       0       0       
      +0       0       0       0       0       0
  2992 ;;Total ram usage:        0 bytes
  2993 ;; Hardware stack levels used: 1
  2994 ;; Hardware stack levels required when called: 4
  2995 ;; This function calls:
  2996 ;;		_INT0_SetInterruptHandler
  2997 ;;		_INT1_SetInterruptHandler
  2998 ;;		_INT2_SetInterruptHandler
  2999 ;; This function is called by:
  3000 ;;		_SYSTEM_Initialize
  3001 ;; This function uses a non-reentrant model
  3002 ;;
  3003                           
  3004                           	psect	text22
  3005   0029D4                     __ptext22:
  3006                           	callstack 0
  3007   0029D4                     _INTERRUPT_Initialize:
  3008                           	callstack 25
  3009   0029D4                     
  3010                           ;mcc_generated_files/system/src/interrupt.c: 45:     INTCON0bits.IPEN = 0;
  3011   0029D4  9AD2               	bcf	210,5,c	;volatile
  3012                           
  3013                           ;mcc_generated_files/system/src/interrupt.c: 49:     (PIR1bits.INT0IF = 0);
  3014   0029D6  0139               	movlb	57	; () banked
  3015   0029D8  91A1               	bcf	161,0,b	;volatile
  3016                           
  3017                           ;mcc_generated_files/system/src/interrupt.c: 50:     (INTCON0bits.INT0EDG = 1);
  3018   0029DA  80D2               	bsf	210,0,c	;volatile
  3019   0029DC                     
  3020                           ; BSR set to: 57
  3021                           ;mcc_generated_files/system/src/interrupt.c: 52:     INT0_SetInterruptHandler(INT0_Defau
      +                          ltInterruptHandler);
  3022   0029DC  0E00               	movlw	0
  3023   0029DE  6E05               	movwf	INT0_SetInterruptHandler@InterruptHandler^0,c
  3024   0029E0  0E00               	movlw	0
  3025   0029E2  6E06               	movwf	(INT0_SetInterruptHandler@InterruptHandler+1)^0,c
  3026   0029E4  0E00               	movlw	0
  3027   0029E6  6E07               	movwf	(INT0_SetInterruptHandler@InterruptHandler+2)^0,c
  3028   0029E8  ECFC  F015         	call	_INT0_SetInterruptHandler	;wreg free
  3029   0029EC                     
  3030                           ;mcc_generated_files/system/src/interrupt.c: 57:     (PIR5bits.INT1IF = 0);
  3031   0029EC  0139               	movlb	57	; () banked
  3032   0029EE  91A5               	bcf	165,0,b	;volatile
  3033   0029F0                     
  3034                           ; BSR set to: 57
  3035                           ;mcc_generated_files/system/src/interrupt.c: 58:     (INTCON0bits.INT1EDG = 1);
  3036   0029F0  82D2               	bsf	210,1,c	;volatile
  3037                           
  3038                           ;mcc_generated_files/system/src/interrupt.c: 60:     INT1_SetInterruptHandler(INT1_Defau
      +                          ltInterruptHandler);
  3039   0029F2  0E00               	movlw	0
  3040   0029F4  6E05               	movwf	INT1_SetInterruptHandler@InterruptHandler^0,c
  3041   0029F6  0E00               	movlw	0
  3042   0029F8  6E06               	movwf	(INT1_SetInterruptHandler@InterruptHandler+1)^0,c
  3043   0029FA  0E00               	movlw	0
  3044   0029FC  6E07               	movwf	(INT1_SetInterruptHandler@InterruptHandler+2)^0,c
  3045   0029FE  ECF5  F015         	call	_INT1_SetInterruptHandler	;wreg free
  3046   002A02                     
  3047                           ;mcc_generated_files/system/src/interrupt.c: 65:     (PIR7bits.INT2IF = 0);
  3048   002A02  0139               	movlb	57	; () banked
  3049   002A04  9BA7               	bcf	167,5,b	;volatile
  3050   002A06                     
  3051                           ; BSR set to: 57
  3052                           ;mcc_generated_files/system/src/interrupt.c: 66:     (INTCON0bits.INT2EDG = 1);
  3053   002A06  84D2               	bsf	210,2,c	;volatile
  3054                           
  3055                           ;mcc_generated_files/system/src/interrupt.c: 68:     INT2_SetInterruptHandler(INT2_Defau
      +                          ltInterruptHandler);
  3056   002A08  0E00               	movlw	0
  3057   002A0A  6E05               	movwf	INT2_SetInterruptHandler@InterruptHandler^0,c
  3058   002A0C  0E00               	movlw	0
  3059   002A0E  6E06               	movwf	(INT2_SetInterruptHandler@InterruptHandler+1)^0,c
  3060   002A10  0E00               	movlw	0
  3061   002A12  6E07               	movwf	(INT2_SetInterruptHandler@InterruptHandler+2)^0,c
  3062   002A14  ECEE  F015         	call	_INT2_SetInterruptHandler	;wreg free
  3063   002A18  0012               	return		;funcret
  3064   002A1A                     __end_of_INTERRUPT_Initialize:
  3065                           	callstack 0
  3066                           
  3067 ;; *************** function _INT2_SetInterruptHandler *****************
  3068 ;; Defined at:
  3069 ;;		line 167 in file "mcc_generated_files/system/src/interrupt.c"
  3070 ;; Parameters:    Size  Location     Type
  3071 ;;  InterruptHan    3    4[COMRAM] PTR FTN()void 
  3072 ;;		 -> INT2_DefaultInterruptHandler(1), 
  3073 ;; Auto vars:     Size  Location     Type
  3074 ;;		None
  3075 ;; Return value:  Size  Location     Type
  3076 ;;                  1    wreg      void 
  3077 ;; Registers used:
  3078 ;;		wreg, status,2, status,0
  3079 ;; Tracked objects:
  3080 ;;		On entry : 0/0
  3081 ;;		On exit  : 0/0
  3082 ;;		Unchanged: 0/0
  3083 ;; Data sizes:     COMRAM   BANK0   BANK1   BANK2   BANK3   BANK4   BANK5   BANK6   BANK7   BANK8   BANK9  BANK10  BANK1
      +1  BANK12  BANK13  BANK14  BANK15  BANK16  BANK17  BANK18  BANK19  BANK20  BANK21  BANK22  BANK23  BANK24  BANK25  BANK2
      +6  BANK27  BANK28  BANK29  BANK30  BANK31
  3084 ;;      Params:         3       0       0       0       0       0       0       0       0       0       0       0       
      +0       0       0       0       0       0       0       0       0       0       0       0       0       0       0       
      +0       0       0       0       0       0
  3085 ;;      Locals:         0       0       0       0       0       0       0       0       0       0       0       0       
      +0       0       0       0       0       0       0       0       0       0       0       0       0       0       0       
      +0       0       0       0       0       0
  3086 ;;      Temps:          0       0       0       0       0       0       0       0       0       0       0       0       
      +0       0       0       0       0       0       0       0       0       0       0       0       0       0       0       
      +0       0       0       0       0       0
  3087 ;;      Totals:         3       0       0       0       0       0       0       0       0       0       0       0       
      +0       0       0       0       0       0       0       0       0       0       0       0       0       0       0       
      +0       0       0       0       0       0
  3088 ;;Total ram usage:        3 bytes
  3089 ;; Hardware stack levels used: 1
  3090 ;; Hardware stack levels required when called: 3
  3091 ;; This function calls:
  3092 ;;		Nothing
  3093 ;; This function is called by:
  3094 ;;		_INTERRUPT_Initialize
  3095 ;; This function uses a non-reentrant model
  3096 ;;
  3097                           
  3098                           	psect	text23
  3099   002BDC                     __ptext23:
  3100                           	callstack 0
  3101   002BDC                     _INT2_SetInterruptHandler:
  3102                           	callstack 25
  3103   002BDC                     
  3104                           ;mcc_generated_files/system/src/interrupt.c: 168:     INT2_InterruptHandler = InterruptH
      +                          andler;
  3105   002BDC  C005  F042         	movff	INT2_SetInterruptHandler@InterruptHandler,_INT2_InterruptHandler
  3106   002BE0  C006  F043         	movff	INT2_SetInterruptHandler@InterruptHandler+1,_INT2_InterruptHandler+1
  3107   002BE4  C007  F044         	movff	INT2_SetInterruptHandler@InterruptHandler+2,_INT2_InterruptHandler+2
  3108   002BE8  0012               	return		;funcret
  3109   002BEA                     __end_of_INT2_SetInterruptHandler:
  3110                           	callstack 0
  3111                           
  3112 ;; *************** function _INT1_SetInterruptHandler *****************
  3113 ;; Defined at:
  3114 ;;		line 141 in file "mcc_generated_files/system/src/interrupt.c"
  3115 ;; Parameters:    Size  Location     Type
  3116 ;;  InterruptHan    3    4[COMRAM] PTR FTN()void 
  3117 ;;		 -> INT1_DefaultInterruptHandler(1), 
  3118 ;; Auto vars:     Size  Location     Type
  3119 ;;		None
  3120 ;; Return value:  Size  Location     Type
  3121 ;;                  1    wreg      void 
  3122 ;; Registers used:
  3123 ;;		wreg, status,2, status,0
  3124 ;; Tracked objects:
  3125 ;;		On entry : 0/0
  3126 ;;		On exit  : 0/0
  3127 ;;		Unchanged: 0/0
  3128 ;; Data sizes:     COMRAM   BANK0   BANK1   BANK2   BANK3   BANK4   BANK5   BANK6   BANK7   BANK8   BANK9  BANK10  BANK1
      +1  BANK12  BANK13  BANK14  BANK15  BANK16  BANK17  BANK18  BANK19  BANK20  BANK21  BANK22  BANK23  BANK24  BANK25  BANK2
      +6  BANK27  BANK28  BANK29  BANK30  BANK31
  3129 ;;      Params:         3       0       0       0       0       0       0       0       0       0       0       0       
      +0       0       0       0       0       0       0       0       0       0       0       0       0       0       0       
      +0       0       0       0       0       0
  3130 ;;      Locals:         0       0       0       0       0       0       0       0       0       0       0       0       
      +0       0       0       0       0       0       0       0       0       0       0       0       0       0       0       
      +0       0       0       0       0       0
  3131 ;;      Temps:          0       0       0       0       0       0       0       0       0       0       0       0       
      +0       0       0       0       0       0       0       0       0       0       0       0       0       0       0       
      +0       0       0       0       0       0
  3132 ;;      Totals:         3       0       0       0       0       0       0       0       0       0       0       0       
      +0       0       0       0       0       0       0       0       0       0       0       0       0       0       0       
      +0       0       0       0       0       0
  3133 ;;Total ram usage:        3 bytes
  3134 ;; Hardware stack levels used: 1
  3135 ;; Hardware stack levels required when called: 3
  3136 ;; This function calls:
  3137 ;;		Nothing
  3138 ;; This function is called by:
  3139 ;;		_INTERRUPT_Initialize
  3140 ;; This function uses a non-reentrant model
  3141 ;;
  3142                           
  3143                           	psect	text24
  3144   002BEA                     __ptext24:
  3145                           	callstack 0
  3146   002BEA                     _INT1_SetInterruptHandler:
  3147                           	callstack 25
  3148   002BEA                     
  3149                           ;mcc_generated_files/system/src/interrupt.c: 142:     INT1_InterruptHandler = InterruptH
      +                          andler;
  3150   002BEA  C005  F045         	movff	INT1_SetInterruptHandler@InterruptHandler,_INT1_InterruptHandler
  3151   002BEE  C006  F046         	movff	INT1_SetInterruptHandler@InterruptHandler+1,_INT1_InterruptHandler+1
  3152   002BF2  C007  F047         	movff	INT1_SetInterruptHandler@InterruptHandler+2,_INT1_InterruptHandler+2
  3153   002BF6  0012               	return		;funcret
  3154   002BF8                     __end_of_INT1_SetInterruptHandler:
  3155                           	callstack 0
  3156                           
  3157 ;; *************** function _INT0_SetInterruptHandler *****************
  3158 ;; Defined at:
  3159 ;;		line 115 in file "mcc_generated_files/system/src/interrupt.c"
  3160 ;; Parameters:    Size  Location     Type
  3161 ;;  InterruptHan    3    4[COMRAM] PTR FTN()void 
  3162 ;;		 -> INT0_DefaultInterruptHandler(1), 
  3163 ;; Auto vars:     Size  Location     Type
  3164 ;;		None
  3165 ;; Return value:  Size  Location     Type
  3166 ;;                  1    wreg      void 
  3167 ;; Registers used:
  3168 ;;		wreg, status,2, status,0
  3169 ;; Tracked objects:
  3170 ;;		On entry : 0/0
  3171 ;;		On exit  : 0/0
  3172 ;;		Unchanged: 0/0
  3173 ;; Data sizes:     COMRAM   BANK0   BANK1   BANK2   BANK3   BANK4   BANK5   BANK6   BANK7   BANK8   BANK9  BANK10  BANK1
      +1  BANK12  BANK13  BANK14  BANK15  BANK16  BANK17  BANK18  BANK19  BANK20  BANK21  BANK22  BANK23  BANK24  BANK25  BANK2
      +6  BANK27  BANK28  BANK29  BANK30  BANK31
  3174 ;;      Params:         3       0       0       0       0       0       0       0       0       0       0       0       
      +0       0       0       0       0       0       0       0       0       0       0       0       0       0       0       
      +0       0       0       0       0       0
  3175 ;;      Locals:         0       0       0       0       0       0       0       0       0       0       0       0       
      +0       0       0       0       0       0       0       0       0       0       0       0       0       0       0       
      +0       0       0       0       0       0
  3176 ;;      Temps:          0       0       0       0       0       0       0       0       0       0       0       0       
      +0       0       0       0       0       0       0       0       0       0       0       0       0       0       0       
      +0       0       0       0       0       0
  3177 ;;      Totals:         3       0       0       0       0       0       0       0       0       0       0       0       
      +0       0       0       0       0       0       0       0       0       0       0       0       0       0       0       
      +0       0       0       0       0       0
  3178 ;;Total ram usage:        3 bytes
  3179 ;; Hardware stack levels used: 1
  3180 ;; Hardware stack levels required when called: 3
  3181 ;; This function calls:
  3182 ;;		Nothing
  3183 ;; This function is called by:
  3184 ;;		_INTERRUPT_Initialize
  3185 ;; This function uses a non-reentrant model
  3186 ;;
  3187                           
  3188                           	psect	text25
  3189   002BF8                     __ptext25:
  3190                           	callstack 0
  3191   002BF8                     _INT0_SetInterruptHandler:
  3192                           	callstack 25
  3193   002BF8                     
  3194                           ;mcc_generated_files/system/src/interrupt.c: 116:     INT0_InterruptHandler = InterruptH
      +                          andler;
  3195   002BF8  C005  F048         	movff	INT0_SetInterruptHandler@InterruptHandler,_INT0_InterruptHandler
  3196   002BFC  C006  F049         	movff	INT0_SetInterruptHandler@InterruptHandler+1,_INT0_InterruptHandler+1
  3197   002C00  C007  F04A         	movff	INT0_SetInterruptHandler@InterruptHandler+2,_INT0_InterruptHandler+2
  3198   002C04  0012               	return		;funcret
  3199   002C06                     __end_of_INT0_SetInterruptHandler:
  3200                           	callstack 0
  3201                           
  3202 ;; *************** function _CLOCK_Initialize *****************
  3203 ;; Defined at:
  3204 ;;		line 39 in file "mcc_generated_files/system/src/clock.c"
  3205 ;; Parameters:    Size  Location     Type
  3206 ;;		None
  3207 ;; Auto vars:     Size  Location     Type
  3208 ;;		None
  3209 ;; Return value:  Size  Location     Type
  3210 ;;                  1    wreg      void 
  3211 ;; Registers used:
  3212 ;;		wreg, status,2
  3213 ;; Tracked objects:
  3214 ;;		On entry : 0/0
  3215 ;;		On exit  : 0/0
  3216 ;;		Unchanged: 0/0
  3217 ;; Data sizes:     COMRAM   BANK0   BANK1   BANK2   BANK3   BANK4   BANK5   BANK6   BANK7   BANK8   BANK9  BANK10  BANK1
      +1  BANK12  BANK13  BANK14  BANK15  BANK16  BANK17  BANK18  BANK19  BANK20  BANK21  BANK22  BANK23  BANK24  BANK25  BANK2
      +6  BANK27  BANK28  BANK29  BANK30  BANK31
  3218 ;;      Params:         0       0       0       0       0       0       0       0       0       0       0       0       
      +0       0       0       0       0       0       0       0       0       0       0       0       0       0       0       
      +0       0       0       0       0       0
  3219 ;;      Locals:         0       0       0       0       0       0       0       0       0       0       0       0       
      +0       0       0       0       0       0       0       0       0       0       0       0       0       0       0       
      +0       0       0       0       0       0
  3220 ;;      Temps:          0       0       0       0       0       0       0       0       0       0       0       0       
      +0       0       0       0       0       0       0       0       0       0       0       0       0       0       0       
      +0       0       0       0       0       0
  3221 ;;      Totals:         0       0       0       0       0       0       0       0       0       0       0       0       
      +0       0       0       0       0       0       0       0       0       0       0       0       0       0       0       
      +0       0       0       0       0       0
  3222 ;;Total ram usage:        0 bytes
  3223 ;; Hardware stack levels used: 1
  3224 ;; Hardware stack levels required when called: 3
  3225 ;; This function calls:
  3226 ;;		Nothing
  3227 ;; This function is called by:
  3228 ;;		_SYSTEM_Initialize
  3229 ;; This function uses a non-reentrant model
  3230 ;;
  3231                           
  3232                           	psect	text26
  3233   002B9C                     __ptext26:
  3234                           	callstack 0
  3235   002B9C                     _CLOCK_Initialize:
  3236                           	callstack 26
  3237   002B9C                     
  3238                           ;mcc_generated_files/system/src/clock.c: 42:     OSCCON1 = (0 << 0x0)
  3239   002B9C  0E60               	movlw	96
  3240   002B9E  0139               	movlb	57	; () banked
  3241   002BA0  6FD9               	movwf	217,b	;volatile
  3242                           
  3243                           ;mcc_generated_files/system/src/clock.c: 44:     OSCCON3 = (0 << 0x6)
  3244   002BA2  0E00               	movlw	0
  3245   002BA4  6FDB               	movwf	219,b	;volatile
  3246                           
  3247                           ;mcc_generated_files/system/src/clock.c: 46:     OSCEN = (0 << 0x7)
  3248   002BA6  0E00               	movlw	0
  3249   002BA8  6FDD               	movwf	221,b	;volatile
  3250                           
  3251                           ;mcc_generated_files/system/src/clock.c: 52:     OSCFRQ = (8 << 0x0);
  3252   002BAA  0E08               	movlw	8
  3253   002BAC  6FDF               	movwf	223,b	;volatile
  3254                           
  3255                           ;mcc_generated_files/system/src/clock.c: 53:     OSCTUNE = (0 << 0x0);
  3256   002BAE  0E00               	movlw	0
  3257   002BB0  6FDE               	movwf	222,b	;volatile
  3258   002BB2                     
  3259                           ; BSR set to: 57
  3260   002BB2  0012               	return		;funcret
  3261   002BB4                     __end_of_CLOCK_Initialize:
  3262                           	callstack 0
  3263                           
  3264 ;; *************** function _INTERRUPT_InterruptManager *****************
  3265 ;; Defined at:
  3266 ;;		line 80 in file "mcc_generated_files/system/src/interrupt.c"
  3267 ;; Parameters:    Size  Location     Type
  3268 ;;		None
  3269 ;; Auto vars:     Size  Location     Type
  3270 ;;		None
  3271 ;; Return value:  Size  Location     Type
  3272 ;;                  1    wreg      void 
  3273 ;; Registers used:
  3274 ;;		wreg, fsr2l, fsr2h, status,2, status,0, pcl, pclath, pclatu, tosl, prodl, prodh, cstack
  3275 ;; Tracked objects:
  3276 ;;		On entry : 0/0
  3277 ;;		On exit  : 0/0
  3278 ;;		Unchanged: 0/0
  3279 ;; Data sizes:     COMRAM   BANK0   BANK1   BANK2   BANK3   BANK4   BANK5   BANK6   BANK7   BANK8   BANK9  BANK10  BANK1
      +1  BANK12  BANK13  BANK14  BANK15  BANK16  BANK17  BANK18  BANK19  BANK20  BANK21  BANK22  BANK23  BANK24  BANK25  BANK2
      +6  BANK27  BANK28  BANK29  BANK30  BANK31
  3280 ;;      Params:         0       0       0       0       0       0       0       0       0       0       0       0       
      +0       0       0       0       0       0       0       0       0       0       0       0       0       0       0       
      +0       0       0       0       0       0
  3281 ;;      Locals:         0       0       0       0       0       0       0       0       0       0       0       0       
      +0       0       0       0       0       0       0       0       0       0       0       0       0       0       0       
      +0       0       0       0       0       0
  3282 ;;      Temps:          2       0       0       0       0       0       0       0       0       0       0       0       
      +0       0       0       0       0       0       0       0       0       0       0       0       0       0       0       
      +0       0       0       0       0       0
  3283 ;;      Totals:         2       0       0       0       0       0       0       0       0       0       0       0       
      +0       0       0       0       0       0       0       0       0       0       0       0       0       0       0       
      +0       0       0       0       0       0
  3284 ;;Total ram usage:        2 bytes
  3285 ;; Hardware stack levels used: 1
  3286 ;; Hardware stack levels required when called: 2
  3287 ;; This function calls:
  3288 ;;		NULL
  3289 ;;		_UART2_ReceiveISR
  3290 ;;		_UART2_TransmitISR
  3291 ;; This function is called by:
  3292 ;;		Interrupt level 2
  3293 ;; This function uses a non-reentrant model
  3294 ;;
  3295                           
  3296                           	psect	text27
  3297   0026E6                     __ptext27:
  3298                           	callstack 0
  3299   0026E6                     _INTERRUPT_InterruptManager:
  3300                           	callstack 22
  3301                           
  3302                           ; BSR set to: 57
  3303                           ;incstack = 0
  3304   0026E6  006F FFE8  F003    	movff	pclath,??_INTERRUPT_InterruptManager
  3305   0026EC  006F FFEC  F004    	movff	pclatu,??_INTERRUPT_InterruptManager+1
  3306   0026F2                     
  3307                           ;mcc_generated_files/system/src/interrupt.c: 83:     if(PIE6bits.U2TXIE == 1 && PIR6bits
      +                          .U2TXIF == 1)
  3308   0026F2  0139               	movlb	57	; () banked
  3309   0026F4  A796               	btfss	150,3,b	;volatile
  3310   0026F6  EF7F  F013         	goto	i2u119_41
  3311   0026FA  EF81  F013         	goto	i2u119_40
  3312   0026FE                     i2u119_41:
  3313   0026FE  EF98  F013         	goto	i2l81
  3314   002702                     i2u119_40:
  3315   002702                     
  3316                           ; BSR set to: 57
  3317   002702  A7A6               	btfss	166,3,b	;volatile
  3318   002704  EF86  F013         	goto	i2u120_41
  3319   002708  EF88  F013         	goto	i2u120_40
  3320   00270C                     i2u120_41:
  3321   00270C  EF98  F013         	goto	i2l81
  3322   002710                     i2u120_40:
  3323   002710                     
  3324                           ; BSR set to: 57
  3325                           ;mcc_generated_files/system/src/interrupt.c: 84:     {;mcc_generated_files/system/src/in
      +                          terrupt.c: 85:         UART2_TxInterruptHandler();
  3326   002710  D802               	call	i2u121_48
  3327   002712  EF96  F013         	goto	i2u121_49
  3328   002716                     i2u121_48:
  3329   002716  0005               	push	
  3330   002718  6EFA               	movwf	pclath,c
  3331   00271A  0100               	movlb	0	; () banked
  3332   00271C  51A6               	movf	_UART2_TxInterruptHandler& (0+255),w,b
  3333   00271E  6EFD               	movwf	tosl,c
  3334   002720  51A7               	movf	(_UART2_TxInterruptHandler+1)& (0+255),w,b
  3335   002722  6EFE               	movwf	tosh,c
  3336   002724  51A8               	movf	(_UART2_TxInterruptHandler+2)& (0+255),w,b
  3337   002726  6EFF               	movwf	tosu,c
  3338   002728  50FA               	movf	pclath,w,c
  3339   00272A  0012               	return		;indir
  3340   00272C                     i2u121_49:
  3341                           
  3342                           ;mcc_generated_files/system/src/interrupt.c: 86:     }
  3343   00272C  EFB4  F013         	goto	i2l85
  3344   002730                     i2l81:
  3345                           
  3346                           ; BSR set to: 57
  3347   002730  A596               	btfss	150,2,b	;volatile
  3348   002732  EF9D  F013         	goto	i2u122_41
  3349   002736  EF9F  F013         	goto	i2u122_40
  3350   00273A                     i2u122_41:
  3351   00273A  EFB4  F013         	goto	i2l85
  3352   00273E                     i2u122_40:
  3353   00273E                     
  3354                           ; BSR set to: 57
  3355   00273E  A5A6               	btfss	166,2,b	;volatile
  3356   002740  EFA4  F013         	goto	i2u123_41
  3357   002744  EFA6  F013         	goto	i2u123_40
  3358   002748                     i2u123_41:
  3359   002748  EFB4  F013         	goto	i2l85
  3360   00274C                     i2u123_40:
  3361   00274C                     
  3362                           ; BSR set to: 57
  3363                           ;mcc_generated_files/system/src/interrupt.c: 88:     {;mcc_generated_files/system/src/in
      +                          terrupt.c: 89:         UART2_RxInterruptHandler();
  3364   00274C  D802               	call	i2u124_48
  3365   00274E  EFB4  F013         	goto	i2u124_49
  3366   002752                     i2u124_48:
  3367   002752  0005               	push	
  3368   002754  6EFA               	movwf	pclath,c
  3369   002756  0100               	movlb	0	; () banked
  3370   002758  51A3               	movf	_UART2_RxInterruptHandler& (0+255),w,b
  3371   00275A  6EFD               	movwf	tosl,c
  3372   00275C  51A4               	movf	(_UART2_RxInterruptHandler+1)& (0+255),w,b
  3373   00275E  6EFE               	movwf	tosh,c
  3374   002760  51A5               	movf	(_UART2_RxInterruptHandler+2)& (0+255),w,b
  3375   002762  6EFF               	movwf	tosu,c
  3376   002764  50FA               	movf	pclath,w,c
  3377   002766  0012               	return		;indir
  3378   002768                     i2u124_49:
  3379   002768                     i2l85:
  3380   002768  0060  F013  FFFB   	movff	??_INTERRUPT_InterruptManager+1,pclatu
  3381   00276E  0060  F00F  FFFA   	movff	??_INTERRUPT_InterruptManager,pclath
  3382   002774  0011               	retfie		f
  3383   002776                     __end_of_INTERRUPT_InterruptManager:
  3384                           	callstack 0
  3385                           
  3386 ;; *************** function _UART2_TransmitISR *****************
  3387 ;; Defined at:
  3388 ;;		line 391 in file "mcc_generated_files/uart/src/uart2.c"
  3389 ;; Parameters:    Size  Location     Type
  3390 ;;		None
  3391 ;; Auto vars:     Size  Location     Type
  3392 ;;  tempTxTail      1    0[COMRAM] unsigned char 
  3393 ;; Return value:  Size  Location     Type
  3394 ;;                  1    wreg      void 
  3395 ;; Registers used:
  3396 ;;		wreg, fsr2l, fsr2h, status,2, status,0
  3397 ;; Tracked objects:
  3398 ;;		On entry : 0/0
  3399 ;;		On exit  : 0/0
  3400 ;;		Unchanged: 0/0
  3401 ;; Data sizes:     COMRAM   BANK0   BANK1   BANK2   BANK3   BANK4   BANK5   BANK6   BANK7   BANK8   BANK9  BANK10  BANK1
      +1  BANK12  BANK13  BANK14  BANK15  BANK16  BANK17  BANK18  BANK19  BANK20  BANK21  BANK22  BANK23  BANK24  BANK25  BANK2
      +6  BANK27  BANK28  BANK29  BANK30  BANK31
  3402 ;;      Params:         0       0       0       0       0       0       0       0       0       0       0       0       
      +0       0       0       0       0       0       0       0       0       0       0       0       0       0       0       
      +0       0       0       0       0       0
  3403 ;;      Locals:         1       0       0       0       0       0       0       0       0       0       0       0       
      +0       0       0       0       0       0       0       0       0       0       0       0       0       0       0       
      +0       0       0       0       0       0
  3404 ;;      Temps:          0       0       0       0       0       0       0       0       0       0       0       0       
      +0       0       0       0       0       0       0       0       0       0       0       0       0       0       0       
      +0       0       0       0       0       0
  3405 ;;      Totals:         1       0       0       0       0       0       0       0       0       0       0       0       
      +0       0       0       0       0       0       0       0       0       0       0       0       0       0       0       
      +0       0       0       0       0       0
  3406 ;;Total ram usage:        1 bytes
  3407 ;; Hardware stack levels used: 1
  3408 ;; This function calls:
  3409 ;;		Nothing
  3410 ;; This function is called by:
  3411 ;;		_UART2_Initialize
  3412 ;;		_INTERRUPT_InterruptManager
  3413 ;; This function uses a non-reentrant model
  3414 ;;
  3415                           
  3416                           	psect	text28
  3417   002A86                     __ptext28:
  3418                           	callstack 0
  3419   002A86                     _UART2_TransmitISR:
  3420                           	callstack 23
  3421   002A86                     
  3422                           ;mcc_generated_files/uart/src/uart2.c: 393:     uint8_t tempTxTail;;mcc_generated_files/
      +                          uart/src/uart2.c: 395:     if(sizeof(uart2TxBuffer) > uart2TxBufferRemaining)
  3423   002A86  0E08               	movlw	8
  3424   002A88  6055               	cpfslt	_uart2TxBufferRemaining^0,c	;volatile
  3425   002A8A  EF49  F015         	goto	i2u118_41
  3426   002A8E  EF4B  F015         	goto	i2u118_40
  3427   002A92                     i2u118_41:
  3428   002A92  EF5A  F015         	goto	i2l470
  3429   002A96                     i2u118_40:
  3430   002A96                     
  3431                           ;mcc_generated_files/uart/src/uart2.c: 396:     {;mcc_generated_files/uart/src/uart2.c: 
      +                          397:        U2TXB = uart2TxBuffer[uart2TxTail];
  3432   002A96  5056               	movf	_uart2TxTail^0,w,c
  3433   002A98  0F98               	addlw	low _uart2TxBuffer
  3434   002A9A  6ED9               	movwf	fsr2l,c
  3435   002A9C  6ADA               	clrf	fsr2h,c
  3436   002A9E  50DF               	movf	indf2,w,c
  3437   002AA0  013D               	movlb	61	; () banked
  3438   002AA2  6FD2               	movwf	210,b	;volatile
  3439   002AA4                     
  3440                           ; BSR set to: 61
  3441                           ;mcc_generated_files/uart/src/uart2.c: 398:        tempTxTail = (uart2TxTail + 1) & ((8)
      +                           - 1);
  3442   002AA4  2856               	incf	_uart2TxTail^0,w,c	;volatile
  3443   002AA6  0B07               	andlw	7
  3444   002AA8  6E01               	movwf	UART2_TransmitISR@tempTxTail^0,c
  3445   002AAA                     
  3446                           ; BSR set to: 61
  3447                           ;mcc_generated_files/uart/src/uart2.c: 400:        uart2TxTail = tempTxTail;
  3448   002AAA  C001  F056         	movff	UART2_TransmitISR@tempTxTail,_uart2TxTail	;volatile
  3449   002AAE                     
  3450                           ; BSR set to: 61
  3451                           ;mcc_generated_files/uart/src/uart2.c: 401:        uart2TxBufferRemaining++;
  3452   002AAE  2A55               	incf	_uart2TxBufferRemaining^0,f,c	;volatile
  3453                           
  3454                           ;mcc_generated_files/uart/src/uart2.c: 402:     }
  3455   002AB0  EF5C  F015         	goto	i2l473
  3456   002AB4                     i2l470:
  3457                           
  3458                           ;mcc_generated_files/uart/src/uart2.c: 404:     {;mcc_generated_files/uart/src/uart2.c: 
      +                          405:         PIE6bits.U2TXIE = 0;
  3459   002AB4  0139               	movlb	57	; () banked
  3460   002AB6  9796               	bcf	150,3,b	;volatile
  3461   002AB8                     i2l473:
  3462   002AB8  0012               	return		;funcret
  3463   002ABA                     __end_of_UART2_TransmitISR:
  3464                           	callstack 0
  3465                           
  3466 ;; *************** function _UART2_ReceiveISR *****************
  3467 ;; Defined at:
  3468 ;;		line 322 in file "mcc_generated_files/uart/src/uart2.c"
  3469 ;; Parameters:    Size  Location     Type
  3470 ;;		None
  3471 ;; Auto vars:     Size  Location     Type
  3472 ;;  tempRxHead      1    1[COMRAM] unsigned char 
  3473 ;;  regValue        1    0[COMRAM] unsigned char 
  3474 ;; Return value:  Size  Location     Type
  3475 ;;                  1    wreg      void 
  3476 ;; Registers used:
  3477 ;;		wreg, fsr2l, fsr2h, status,2, status,0, pcl, pclath, pclatu, tosl, prodl, prodh, cstack
  3478 ;; Tracked objects:
  3479 ;;		On entry : 0/0
  3480 ;;		On exit  : 0/0
  3481 ;;		Unchanged: 0/0
  3482 ;; Data sizes:     COMRAM   BANK0   BANK1   BANK2   BANK3   BANK4   BANK5   BANK6   BANK7   BANK8   BANK9  BANK10  BANK1
      +1  BANK12  BANK13  BANK14  BANK15  BANK16  BANK17  BANK18  BANK19  BANK20  BANK21  BANK22  BANK23  BANK24  BANK25  BANK2
      +6  BANK27  BANK28  BANK29  BANK30  BANK31
  3483 ;;      Params:         0       0       0       0       0       0       0       0       0       0       0       0       
      +0       0       0       0       0       0       0       0       0       0       0       0       0       0       0       
      +0       0       0       0       0       0
  3484 ;;      Locals:         2       0       0       0       0       0       0       0       0       0       0       0       
      +0       0       0       0       0       0       0       0       0       0       0       0       0       0       0       
      +0       0       0       0       0       0
  3485 ;;      Temps:          0       0       0       0       0       0       0       0       0       0       0       0       
      +0       0       0       0       0       0       0       0       0       0       0       0       0       0       0       
      +0       0       0       0       0       0
  3486 ;;      Totals:         2       0       0       0       0       0       0       0       0       0       0       0       
      +0       0       0       0       0       0       0       0       0       0       0       0       0       0       0       
      +0       0       0       0       0       0
  3487 ;;Total ram usage:        2 bytes
  3488 ;; Hardware stack levels used: 1
  3489 ;; Hardware stack levels required when called: 1
  3490 ;; This function calls:
  3491 ;;		NULL
  3492 ;;		_UART2_DefaultFramingErrorCallback
  3493 ;;		_UART2_DefaultOverrunErrorCallback
  3494 ;; This function is called by:
  3495 ;;		_UART2_Initialize
  3496 ;;		_INTERRUPT_InterruptManager
  3497 ;; This function uses a non-reentrant model
  3498 ;;
  3499                           
  3500                           	psect	text29
  3501   00223E                     __ptext29:
  3502                           	callstack 0
  3503   00223E                     _UART2_ReceiveISR:
  3504                           	callstack 22
  3505   00223E                     
  3506                           ;mcc_generated_files/uart/src/uart2.c: 324:     uint8_t regValue;;mcc_generated_files/ua
      +                          rt/src/uart2.c: 325:  uint8_t tempRxHead;;mcc_generated_files/uart/src/uart2.c: 327:    
      +                           uart2RxStatusBuffer[uart2RxHead].status = 0;
  3507   00223E  5054               	movf	_uart2RxHead^0,w,c
  3508   002240  0D02               	mullw	2
  3509   002242  50F3               	movf	243,w,c
  3510   002244  0F80               	addlw	low _uart2RxStatusBuffer
  3511   002246  6ED9               	movwf	fsr2l,c
  3512   002248  6ADA               	clrf	fsr2h,c
  3513   00224A  6ADE               	clrf	postinc2,c
  3514   00224C  6ADD               	clrf	postdec2,c
  3515   00224E                     
  3516                           ;mcc_generated_files/uart/src/uart2.c: 329:     if(U2ERRIRbits.FERIF)
  3517   00224E  013D               	movlb	61	; () banked
  3518   002250  A7E1               	btfss	225,3,b	;volatile
  3519   002252  EF2D  F011         	goto	i2u111_41
  3520   002256  EF2F  F011         	goto	i2u111_40
  3521   00225A                     i2u111_41:
  3522   00225A  EF4E  F011         	goto	i2l2193
  3523   00225E                     i2u111_40:
  3524   00225E                     
  3525                           ; BSR set to: 61
  3526                           ;mcc_generated_files/uart/src/uart2.c: 330:     {;mcc_generated_files/uart/src/uart2.c: 
      +                          331:         uart2RxStatusBuffer[uart2RxHead].ferr = 1;
  3527   00225E  5054               	movf	_uart2RxHead^0,w,c
  3528   002260  0D02               	mullw	2
  3529   002262  50F3               	movf	243,w,c
  3530   002264  0F80               	addlw	low _uart2RxStatusBuffer
  3531   002266  6ED9               	movwf	fsr2l,c
  3532   002268  6ADA               	clrf	fsr2h,c
  3533   00226A  0100               	movlb	0	; () banked
  3534   00226C  82DF               	bsf	indf2,1,c
  3535   00226E                     
  3536                           ; BSR set to: 0
  3537                           ;mcc_generated_files/uart/src/uart2.c: 332:         if(((void*)0) != UART2_FramingErrorH
      +                          andler)
  3538   00226E  503F               	movf	_UART2_FramingErrorHandler^0,w,c
  3539   002270  1040               	iorwf	(_UART2_FramingErrorHandler+1)^0,w,c
  3540   002272  1041               	iorwf	(_UART2_FramingErrorHandler+2)^0,w,c
  3541   002274  B4D8               	btfsc	status,2,c
  3542   002276  EF3F  F011         	goto	i2u112_41
  3543   00227A  EF41  F011         	goto	i2u112_40
  3544   00227E                     i2u112_41:
  3545   00227E  EF4E  F011         	goto	i2l2193
  3546   002282                     i2u112_40:
  3547   002282                     
  3548                           ; BSR set to: 0
  3549                           ;mcc_generated_files/uart/src/uart2.c: 333:         {;mcc_generated_files/uart/src/uart2
      +                          .c: 334:             UART2_FramingErrorHandler();
  3550   002282  D802               	call	i2u113_48
  3551   002284  EF4E  F011         	goto	i2u113_49
  3552   002288                     i2u113_48:
  3553   002288  0005               	push	
  3554   00228A  6EFA               	movwf	pclath,c
  3555   00228C  503F               	movf	_UART2_FramingErrorHandler^0,w,c
  3556   00228E  6EFD               	movwf	tosl,c
  3557   002290  5040               	movf	(_UART2_FramingErrorHandler+1)^0,w,c
  3558   002292  6EFE               	movwf	tosh,c
  3559   002294  5041               	movf	(_UART2_FramingErrorHandler+2)^0,w,c
  3560   002296  6EFF               	movwf	tosu,c
  3561   002298  50FA               	movf	pclath,w,c
  3562   00229A  0012               	return		;indir
  3563   00229C                     i2u113_49:
  3564   00229C                     i2l2193:
  3565                           
  3566                           ;mcc_generated_files/uart/src/uart2.c: 337:     if(U2ERRIRbits.RXFOIF)
  3567   00229C  013D               	movlb	61	; () banked
  3568   00229E  A3E1               	btfss	225,1,b	;volatile
  3569   0022A0  EF54  F011         	goto	i2u114_41
  3570   0022A4  EF56  F011         	goto	i2u114_40
  3571   0022A8                     i2u114_41:
  3572   0022A8  EF75  F011         	goto	i2l2201
  3573   0022AC                     i2u114_40:
  3574   0022AC                     
  3575                           ; BSR set to: 61
  3576                           ;mcc_generated_files/uart/src/uart2.c: 338:     {;mcc_generated_files/uart/src/uart2.c: 
      +                          339:         uart2RxStatusBuffer[uart2RxHead].oerr = 1;
  3577   0022AC  5054               	movf	_uart2RxHead^0,w,c
  3578   0022AE  0D02               	mullw	2
  3579   0022B0  50F3               	movf	243,w,c
  3580   0022B2  0F80               	addlw	low _uart2RxStatusBuffer
  3581   0022B4  6ED9               	movwf	fsr2l,c
  3582   0022B6  6ADA               	clrf	fsr2h,c
  3583   0022B8  0100               	movlb	0	; () banked
  3584   0022BA  84DF               	bsf	indf2,2,c
  3585   0022BC                     
  3586                           ; BSR set to: 0
  3587                           ;mcc_generated_files/uart/src/uart2.c: 340:         if(((void*)0) != UART2_OverrunErrorH
      +                          andler)
  3588   0022BC  503C               	movf	_UART2_OverrunErrorHandler^0,w,c
  3589   0022BE  103D               	iorwf	(_UART2_OverrunErrorHandler+1)^0,w,c
  3590   0022C0  103E               	iorwf	(_UART2_OverrunErrorHandler+2)^0,w,c
  3591   0022C2  B4D8               	btfsc	status,2,c
  3592   0022C4  EF66  F011         	goto	i2u115_41
  3593   0022C8  EF68  F011         	goto	i2u115_40
  3594   0022CC                     i2u115_41:
  3595   0022CC  EF75  F011         	goto	i2l2201
  3596   0022D0                     i2u115_40:
  3597   0022D0                     
  3598                           ; BSR set to: 0
  3599                           ;mcc_generated_files/uart/src/uart2.c: 341:         {;mcc_generated_files/uart/src/uart2
      +                          .c: 342:             UART2_OverrunErrorHandler();
  3600   0022D0  D802               	call	i2u116_48
  3601   0022D2  EF75  F011         	goto	i2u116_49
  3602   0022D6                     i2u116_48:
  3603   0022D6  0005               	push	
  3604   0022D8  6EFA               	movwf	pclath,c
  3605   0022DA  503C               	movf	_UART2_OverrunErrorHandler^0,w,c
  3606   0022DC  6EFD               	movwf	tosl,c
  3607   0022DE  503D               	movf	(_UART2_OverrunErrorHandler+1)^0,w,c
  3608   0022E0  6EFE               	movwf	tosh,c
  3609   0022E2  503E               	movf	(_UART2_OverrunErrorHandler+2)^0,w,c
  3610   0022E4  6EFF               	movwf	tosu,c
  3611   0022E6  50FA               	movf	pclath,w,c
  3612   0022E8  0012               	return		;indir
  3613   0022EA                     i2u116_49:
  3614   0022EA                     i2l2201:
  3615                           
  3616                           ;mcc_generated_files/uart/src/uart2.c: 346:     regValue = U2RXB;
  3617   0022EA  006F F740  F001    	movff	15824,UART2_ReceiveISR@regValue	;volatile
  3618   0022F0                     
  3619                           ;mcc_generated_files/uart/src/uart2.c: 348:     tempRxHead = (uart2RxHead + 1) & ((8) - 
      +                          1);
  3620   0022F0  2854               	incf	_uart2RxHead^0,w,c	;volatile
  3621   0022F2  0B07               	andlw	7
  3622   0022F4  6E02               	movwf	UART2_ReceiveISR@tempRxHead^0,c
  3623   0022F6                     
  3624                           ;mcc_generated_files/uart/src/uart2.c: 349:     if (tempRxHead == uart2RxTail)
  3625   0022F6  5053               	movf	_uart2RxTail^0,w,c	;volatile
  3626   0022F8  1802               	xorwf	UART2_ReceiveISR@tempRxHead^0,w,c
  3627   0022FA  A4D8               	btfss	status,2,c
  3628   0022FC  EF82  F011         	goto	i2u117_41
  3629   002300  EF84  F011         	goto	i2u117_40
  3630   002304                     i2u117_41:
  3631   002304  EF86  F011         	goto	i2l2209
  3632   002308                     i2u117_40:
  3633   002308  EF90  F011         	goto	i2l460
  3634   00230C                     i2l2209:
  3635                           
  3636                           ;mcc_generated_files/uart/src/uart2.c: 354:     {;mcc_generated_files/uart/src/uart2.c: 
      +                          355:         uart2RxBuffer[uart2RxHead] = regValue;
  3637   00230C  5054               	movf	_uart2RxHead^0,w,c
  3638   00230E  0F90               	addlw	low _uart2RxBuffer
  3639   002310  6ED9               	movwf	fsr2l,c
  3640   002312  6ADA               	clrf	fsr2h,c
  3641   002314  0060  F007  FFDF   	movff	UART2_ReceiveISR@regValue,indf2
  3642   00231A                     
  3643                           ;mcc_generated_files/uart/src/uart2.c: 356:   uart2RxHead = tempRxHead;
  3644   00231A  C002  F054         	movff	UART2_ReceiveISR@tempRxHead,_uart2RxHead	;volatile
  3645   00231E                     
  3646                           ;mcc_generated_files/uart/src/uart2.c: 357:   uart2RxCount++;
  3647   00231E  2A52               	incf	_uart2RxCount^0,f,c	;volatile
  3648   002320                     i2l460:
  3649   002320  0012               	return		;funcret
  3650   002322                     __end_of_UART2_ReceiveISR:
  3651                           	callstack 0
  3652                           
  3653 ;; *************** function _UART2_DefaultOverrunErrorCallback *****************
  3654 ;; Defined at:
  3655 ;;		line 434 in file "mcc_generated_files/uart/src/uart2.c"
  3656 ;; Parameters:    Size  Location     Type
  3657 ;;		None
  3658 ;; Auto vars:     Size  Location     Type
  3659 ;;		None
  3660 ;; Return value:  Size  Location     Type
  3661 ;;                  1    wreg      void 
  3662 ;; Registers used:
  3663 ;;		None
  3664 ;; Tracked objects:
  3665 ;;		On entry : 0/0
  3666 ;;		On exit  : 0/0
  3667 ;;		Unchanged: 0/0
  3668 ;; Data sizes:     COMRAM   BANK0   BANK1   BANK2   BANK3   BANK4   BANK5   BANK6   BANK7   BANK8   BANK9  BANK10  BANK1
      +1  BANK12  BANK13  BANK14  BANK15  BANK16  BANK17  BANK18  BANK19  BANK20  BANK21  BANK22  BANK23  BANK24  BANK25  BANK2
      +6  BANK27  BANK28  BANK29  BANK30  BANK31
  3669 ;;      Params:         0       0       0       0       0       0       0       0       0       0       0       0       
      +0       0       0       0       0       0       0       0       0       0       0       0       0       0       0       
      +0       0       0       0       0       0
  3670 ;;      Locals:         0       0       0       0       0       0       0       0       0       0       0       0       
      +0       0       0       0       0       0       0       0       0       0       0       0       0       0       0       
      +0       0       0       0       0       0
  3671 ;;      Temps:          0       0       0       0       0       0       0       0       0       0       0       0       
      +0       0       0       0       0       0       0       0       0       0       0       0       0       0       0       
      +0       0       0       0       0       0
  3672 ;;      Totals:         0       0       0       0       0       0       0       0       0       0       0       0       
      +0       0       0       0       0       0       0       0       0       0       0       0       0       0       0       
      +0       0       0       0       0       0
  3673 ;;Total ram usage:        0 bytes
  3674 ;; Hardware stack levels used: 1
  3675 ;; This function calls:
  3676 ;;		Nothing
  3677 ;; This function is called by:
  3678 ;;		_UART2_Initialize
  3679 ;;		_UART2_ReceiveISR
  3680 ;; This function uses a non-reentrant model
  3681 ;;
  3682                           
  3683                           	psect	text30
  3684   002C06                     __ptext30:
  3685                           	callstack 0
  3686   002C06                     _UART2_DefaultOverrunErrorCallback:
  3687                           	callstack 22
  3688   002C06  0012               	return		;funcret
  3689   002C08                     __end_of_UART2_DefaultOverrunErrorCallback:
  3690                           	callstack 0
  3691                           
  3692 ;; *************** function _UART2_DefaultFramingErrorCallback *****************
  3693 ;; Defined at:
  3694 ;;		line 429 in file "mcc_generated_files/uart/src/uart2.c"
  3695 ;; Parameters:    Size  Location     Type
  3696 ;;		None
  3697 ;; Auto vars:     Size  Location     Type
  3698 ;;		None
  3699 ;; Return value:  Size  Location     Type
  3700 ;;                  1    wreg      void 
  3701 ;; Registers used:
  3702 ;;		None
  3703 ;; Tracked objects:
  3704 ;;		On entry : 0/0
  3705 ;;		On exit  : 0/0
  3706 ;;		Unchanged: 0/0
  3707 ;; Data sizes:     COMRAM   BANK0   BANK1   BANK2   BANK3   BANK4   BANK5   BANK6   BANK7   BANK8   BANK9  BANK10  BANK1
      +1  BANK12  BANK13  BANK14  BANK15  BANK16  BANK17  BANK18  BANK19  BANK20  BANK21  BANK22  BANK23  BANK24  BANK25  BANK2
      +6  BANK27  BANK28  BANK29  BANK30  BANK31
  3708 ;;      Params:         0       0       0       0       0       0       0       0       0       0       0       0       
      +0       0       0       0       0       0       0       0       0       0       0       0       0       0       0       
      +0       0       0       0       0       0
  3709 ;;      Locals:         0       0       0       0       0       0       0       0       0       0       0       0       
      +0       0       0       0       0       0       0       0       0       0       0       0       0       0       0       
      +0       0       0       0       0       0
  3710 ;;      Temps:          0       0       0       0       0       0       0       0       0       0       0       0       
      +0       0       0       0       0       0       0       0       0       0       0       0       0       0       0       
      +0       0       0       0       0       0
  3711 ;;      Totals:         0       0       0       0       0       0       0       0       0       0       0       0       
      +0       0       0       0       0       0       0       0       0       0       0       0       0       0       0       
      +0       0       0       0       0       0
  3712 ;;Total ram usage:        0 bytes
  3713 ;; Hardware stack levels used: 1
  3714 ;; This function calls:
  3715 ;;		Nothing
  3716 ;; This function is called by:
  3717 ;;		_UART2_Initialize
  3718 ;;		_UART2_ReceiveISR
  3719 ;; This function uses a non-reentrant model
  3720 ;;
  3721                           
  3722                           	psect	text31
  3723   002C08                     __ptext31:
  3724                           	callstack 0
  3725   002C08                     _UART2_DefaultFramingErrorCallback:
  3726                           	callstack 22
  3727   002C08  0012               	return		;funcret
  3728   002C0A                     __end_of_UART2_DefaultFramingErrorCallback:
  3729                           	callstack 0
  3730                           
  3731                           ;
  3732                           ; H/W Interrupt Vector Table @ 0x8
  3733                           ;
  3734                           
  3735                           	psect	ivt0x8
  3736   000008                     __pivt0x8:
  3737                           	callstack 0
  3738   000008                     ivt0x8_base:
  3739                           	callstack 0
  3740                           
  3741                           ; high-priority vector
  3742   000008  EF73  F013         	goto	_INTERRUPT_InterruptManager
  3743   000018                     	org	16
  3744                           
  3745                           ; low-priority vector
  3746   000018  00FF               	reset	
  3747                           
  3748                           	psect	rparam
  3749   000000                     
  3750                           	psect	config
  3751                           
  3752                           ;Config register CONFIG1L @ 0x300000
  3753                           ;	External Oscillator Selection
  3754                           ;	FEXTOSC = ECH, EC (external clock) above 8 MHz; PFM set to high power
  3755                           ;	Reset Oscillator Selection
  3756                           ;	RSTOSC = HFINTOSC_64MHZ, HFINTOSC with HFFRQ = 64 MHz and CDIV = 1:1
  3757   300000                     	org	3145728
  3758   300000  8F                 	db	143
  3759                           
  3760                           ;Config register CONFIG1H @ 0x300001
  3761                           ;	Clock out Enable bit
  3762                           ;	CLKOUTEN = OFF, CLKOUT function is disabled
  3763                           ;	PRLOCKED One-Way Set Enable bit
  3764                           ;	PR1WAY = ON, PRLOCK bit can be cleared and set only once
  3765                           ;	Clock Switch Enable bit
  3766                           ;	CSWEN = ON, Writing to NOSC and NDIV is allowed
  3767                           ;	Fail-Safe Clock Monitor Enable bit
  3768                           ;	FCMEN = ON, Fail-Safe Clock Monitor enabled
  3769   300001                     	org	3145729
  3770   300001  FF                 	db	255
  3771                           
  3772                           ;Config register CONFIG2L @ 0x300002
  3773                           ;	MCLR Enable bit
  3774                           ;	MCLRE = EXTMCLR, If LVP = 0, MCLR pin is MCLR; If LVP = 1, RE3 pin function is MCLR
  3775                           ;	Power-up timer selection bits
  3776                           ;	PWRTS = PWRT_OFF, PWRT is disabled
  3777                           ;	Multi-vector enable bit
  3778                           ;	MVECEN = OFF, Interrupt contoller does not use vector table to prioritze interrupts
  3779                           ;	IVTLOCK bit One-way set enable bit
  3780                           ;	IVT1WAY = ON, IVTLOCK bit can be cleared and set only once
  3781                           ;	Low Power BOR Enable bit
  3782                           ;	LPBOREN = OFF, ULPBOR disabled
  3783                           ;	Brown-out Reset Enable bits
  3784                           ;	BOREN = SBORDIS, Brown-out Reset enabled , SBOREN bit is ignored
  3785   300002                     	org	3145730
  3786   300002  F7                 	db	247
  3787                           
  3788                           ;Config register CONFIG2H @ 0x300003
  3789                           ;	Brown-out Reset Voltage Selection bits
  3790                           ;	BORV = VBOR_2P45, Brown-out Reset Voltage (VBOR) set to 2.45V
  3791                           ;	ZCD Disable bit
  3792                           ;	ZCD = OFF, ZCD disabled. ZCD can be enabled by setting the ZCDSEN bit of ZCDCON
  3793                           ;	PPSLOCK bit One-Way Set Enable bit
  3794                           ;	PPS1WAY = ON, PPSLOCK bit can be cleared and set only once; PPS registers remain locke
      +                          d after one clear/set cycle
  3795                           ;	Stack Full/Underflow Reset Enable bit
  3796                           ;	STVREN = ON, Stack full/underflow will cause Reset
  3797                           ;	Debugger Enable bit
  3798                           ;	DEBUG = 0x1, unprogrammed default
  3799                           ;	Extended Instruction Set Enable bit
  3800                           ;	XINST = OFF, Extended Instruction Set and Indexed Addressing Mode disabled
  3801   300003                     	org	3145731
  3802   300003  FF                 	db	255
  3803                           
  3804                           ;Config register CONFIG3L @ 0x300004
  3805                           ;	WDT Period selection bits
  3806                           ;	WDTCPS = WDTCPS_31, Divider ratio 1:65536; software control of WDTPS
  3807                           ;	WDT operating mode
  3808                           ;	WDTE = OFF, WDT Disabled; SWDTEN is ignored
  3809   300004                     	org	3145732
  3810   300004  9F                 	db	159
  3811                           
  3812                           ;Config register CONFIG3H @ 0x300005
  3813                           ;	WDT Window Select bits
  3814                           ;	WDTCWS = WDTCWS_7, window always open (100%); software control; keyed access not requi
      +                          red
  3815                           ;	WDT input clock selector
  3816                           ;	WDTCCS = SC, Software Control
  3817   300005                     	org	3145733
  3818   300005  FF                 	db	255
  3819                           
  3820                           ;Config register CONFIG4L @ 0x300006
  3821                           ;	Boot Block Size selection bits
  3822                           ;	BBSIZE = BBSIZE_512, Boot Block size is 512 words
  3823                           ;	Boot Block enable bit
  3824                           ;	BBEN = OFF, Boot block disabled
  3825                           ;	Storage Area Flash enable bit
  3826                           ;	SAFEN = OFF, SAF disabled
  3827                           ;	Application Block write protection bit
  3828                           ;	WRTAPP = OFF, Application Block not write protected
  3829   300006                     	org	3145734
  3830   300006  FF                 	db	255
  3831                           
  3832                           ;Config register CONFIG4H @ 0x300007
  3833                           ;	Boot Block Write Protection bit
  3834                           ;	WRTB = OFF, Boot Block not write-protected
  3835                           ;	Configuration Register Write Protection bit
  3836                           ;	WRTC = OFF, Configuration registers not write-protected
  3837                           ;	Data EEPROM Write Protection bit
  3838                           ;	WRTD = OFF, Data EEPROM not write-protected
  3839                           ;	SAF Write protection bit
  3840                           ;	WRTSAF = OFF, SAF not Write Protected
  3841                           ;	Low Voltage Programming Enable bit
  3842                           ;	LVP = ON, Low voltage programming enabled. MCLR/VPP pin function is MCLR. MCLRE config
      +                          uration bit is ignored
  3843   300007                     	org	3145735
  3844   300007  FF                 	db	255
  3845                           
  3846                           ;Config register CONFIG5L @ 0x300008
  3847                           ;	PFM and Data EEPROM Code Protection bit
  3848                           ;	CP = OFF, PFM and Data EEPROM code protection disabled
  3849   300008                     	org	3145736
  3850   300008  FF                 	db	255
  3851                           
  3852                           ;Config register CONFIG5H @ 0x300009
  3853                           ;	unspecified, using default values
  3854   300009                     	org	3145737
  3855   300009  FF                 	db	255
  3856                           tosu	equ	0x3FFF
  3857                           tosh	equ	0x3FFE
  3858                           tosl	equ	0x3FFD
  3859                           stkptr	equ	0x3FFC
  3860                           pclatu	equ	0x3FFB
  3861                           pclath	equ	0x3FFA
  3862                           pcl	equ	0x3FF9
  3863                           tblptru	equ	0x3FF8
  3864                           tblptrh	equ	0x3FF7
  3865                           tblptrl	equ	0x3FF6
  3866                           tablat	equ	0x3FF5
  3867                           prodh	equ	0x3FF4
  3868                           prodl	equ	0x3FF3
  3869                           indf0	equ	0x3FEF
  3870                           postinc0	equ	0x3FEE
  3871                           postdec0	equ	0x3FED
  3872                           preinc0	equ	0x3FEC
  3873                           plusw0	equ	0x3FEB
  3874                           fsr0h	equ	0x3FEA
  3875                           fsr0l	equ	0x3FE9
  3876                           wreg	equ	0x3FE8
  3877                           indf1	equ	0x3FE7
  3878                           postinc1	equ	0x3FE6
  3879                           postdec1	equ	0x3FE5
  3880                           preinc1	equ	0x3FE4
  3881                           plusw1	equ	0x3FE3
  3882                           fsr1h	equ	0x3FE2
  3883                           fsr1l	equ	0x3FE1
  3884                           bsr	equ	0x3FE0
  3885                           indf2	equ	0x3FDF
  3886                           postinc2	equ	0x3FDE
  3887                           postdec2	equ	0x3FDD
  3888                           preinc2	equ	0x3FDC
  3889                           plusw2	equ	0x3FDB
  3890                           fsr2h	equ	0x3FDA
  3891                           fsr2l	equ	0x3FD9
  3892                           status	equ	0x3FD8

Data Sizes:
    Strings     23
    Constant    72
    Data        0
    BSS         105
    Persistent  6
    Stack       0

Auto Spaces:
    Space          Size  Autos    Used
    COMRAM           95     53      91
    BANK0           160      2      75
    BANK1           256      0       0
    BANK2           256      0       0
    BANK3           256      0       0
    BANK4           256      0       0
    BANK5           256      0       0
    BANK6           256      0       0
    BANK7           256      0       0
    BANK8           256      0       0
    BANK9           256      0       0
    BANK10          256      0       0
    BANK11          256      0       0
    BANK12          256      0       0
    BANK13          256      0       0
    BANK14          256      0       0
    BANK15          256      0       0
    BANK16          256      0       0
    BANK17          256      0       0
    BANK18          256      0       0
    BANK19          256      0       0
    BANK20          256      0       0
    BANK21          256      0       0
    BANK22          256      0       0
    BANK23          256      0       0
    BANK24          256      0       0
    BANK25          256      0       0
    BANK26          256      0       0
    BANK27          256      0       0
    BANK28          256      0       0
    BANK29          256      0       0
    BANK30          256      0       0
    BANK31          256      0       0

Pointer List with Targets:

    fputc@fp	PTR struct _IO_FILE size(2) Largest target is 0
		 -> NULL(NULL[0]), 

    fputc@fp$.$buffer	PTR unsigned char  size(2) Largest target is 0

    fputc@fp$.$source	PTR const unsigned char  size(2) Largest target is 0

    INT0_InterruptHandler	PTR FTN()void  size(3) Largest target is 1
		 -> INT0_DefaultInterruptHandler(), NULL(), 

    INT0_SetInterruptHandler@InterruptHandler	PTR FTN()void  size(3) Largest target is 1
		 -> INT0_DefaultInterruptHandler(), 

    INT1_InterruptHandler	PTR FTN()void  size(3) Largest target is 1
		 -> INT1_DefaultInterruptHandler(), NULL(), 

    INT1_SetInterruptHandler@InterruptHandler	PTR FTN()void  size(3) Largest target is 1
		 -> INT1_DefaultInterruptHandler(), 

    INT2_InterruptHandler	PTR FTN()void  size(3) Largest target is 1
		 -> INT2_DefaultInterruptHandler(), NULL(), 

    INT2_SetInterruptHandler@InterruptHandler	PTR FTN()void  size(3) Largest target is 1
		 -> INT2_DefaultInterruptHandler(), 

    printf@ap	PTR void [1] size(1) Largest target is 2
		 -> ?_printf(COMRAM[2]), 

    printf@fmt	PTR const unsigned char  size(1) Largest target is 18
		 -> STR_1(CODE[18]), STR_2(CODE[5]), 

    S1443$buffer	PTR unsigned char  size(2) Largest target is 0

    S1443$source	PTR const unsigned char  size(2) Largest target is 0

    S450$17$0	PTR FTN()void  size(3) Largest target is 0

    S450$18$0	PTR FTN()void  size(3) Largest target is 0

    S450$20$0	PTR FTN()void  size(3) Largest target is 1
		 -> UART2_DefaultFramingErrorCallback(), 

    S450$21$0	PTR FTN()void  size(3) Largest target is 1
		 -> UART2_DefaultOverrunErrorCallback(), 

    S450$22$0	PTR FTN()void  size(3) Largest target is 1
		 -> UART2_DefaultParityErrorCallback(), 

    S450$AutoBaudEventEnableGet	PTR FTN()_Bool  size(3) Largest target is 1
		 -> NULL(), 

    S450$AutoBaudQuery	PTR FTN()_Bool  size(3) Largest target is 1
		 -> UART2_AutoBaudQuery(), 

    S450$AutoBaudSet	PTR FTN(_Bool ,)void  size(3) Largest target is 1
		 -> UART2_AutoBaudSet(), 

    S450$BaudRateGet	PTR FTN()unsigned long  size(3) Largest target is 1
		 -> NULL(), 

    S450$BaudRateSet	PTR FTN(unsigned long ,)void  size(3) Largest target is 1
		 -> NULL(), 

    S450$BRGCountGet	PTR FTN()unsigned long  size(3) Largest target is 1
		 -> NULL(), 

    S450$BRGCountSet	PTR FTN(unsigned long ,)void  size(3) Largest target is 1
		 -> NULL(), 

    S450$Deinitialize	PTR FTN()void  size(3) Largest target is 1
		 -> UART2_Deinitialize(), 

    S450$ErrorGet	PTR FTN()unsigned int  size(3) Largest target is 2
		 -> UART2_ErrorGet(), 

    S450$EventCallbackRegister	PTR FTN(PTR FTN()void ,)void  size(3) Largest target is 1
		 -> NULL(), 

    S450$FramingErrorCallbackRegister	PTR FTN(PTR FTN()void ,)void  size(3) Largest target is 1
		 -> UART2_FramingErrorCallbackRegister(), 

    S450$Initialize	PTR FTN()void  size(3) Largest target is 1
		 -> UART2_Initialize(), 

    S450$IsRxReady	PTR FTN()_Bool  size(3) Largest target is 1
		 -> UART2_IsRxReady(), 

    S450$IsTxDone	PTR FTN()_Bool  size(3) Largest target is 1
		 -> UART2_IsTxDone(), 

    S450$IsTxReady	PTR FTN()_Bool  size(3) Largest target is 1
		 -> UART2_IsTxReady(), 

    S450$OverrunErrorCallbackRegister	PTR FTN(PTR FTN()void ,)void  size(3) Largest target is 1
		 -> UART2_OverrunErrorCallbackRegister(), 

    S450$ParityErrorCallbackRegister	PTR FTN(PTR FTN()void ,)void  size(3) Largest target is 1
		 -> UART2_ParityErrorCallbackRegister(), 

    S450$Read	PTR FTN()unsigned char  size(3) Largest target is 1
		 -> UART2_Read(), 

    S450$RxCompleteCallbackRegister	PTR FTN(PTR FTN()void ,)void  size(3) Largest target is 1
		 -> UART2_RxCompleteCallbackRegister(), 

    S450$TransmitDisable	PTR FTN()void  size(3) Largest target is 1
		 -> UART2_TransmitDisable(), 

    S450$TransmitEnable	PTR FTN()void  size(3) Largest target is 1
		 -> UART2_TransmitEnable(), 

    S450$TxCollisionCallbackRegister	PTR FTN(PTR FTN()void ,)void  size(3) Largest target is 1
		 -> NULL(), 

    S450$TxCompleteCallbackRegister	PTR FTN(PTR FTN()void ,)void  size(3) Largest target is 1
		 -> UART2_TxCompleteCallbackRegister(), 

    S450$Write	PTR FTN(unsigned char ,)void  size(3) Largest target is 1
		 -> UART2_Write(), 

    time@t	PTR unsigned long  size(2) Largest target is 0
		 -> NULL(NULL[0]), 

    UART2$AutoBaudEventEnableGet	PTR FTN()_Bool  size(3) Largest target is 1
		 -> NULL(), 

    UART2$AutoBaudQuery	PTR FTN()_Bool  size(3) Largest target is 1
		 -> UART2_AutoBaudQuery(), 

    UART2$AutoBaudSet	PTR FTN(_Bool ,)void  size(3) Largest target is 1
		 -> UART2_AutoBaudSet(), 

    UART2$BaudRateGet	PTR FTN()unsigned long  size(3) Largest target is 1
		 -> NULL(), 

    UART2$BaudRateSet	PTR FTN(unsigned long ,)void  size(3) Largest target is 1
		 -> NULL(), 

    UART2$BRGCountGet	PTR FTN()unsigned long  size(3) Largest target is 1
		 -> NULL(), 

    UART2$BRGCountSet	PTR FTN(unsigned long ,)void  size(3) Largest target is 1
		 -> NULL(), 

    UART2$Deinitialize	PTR FTN()void  size(3) Largest target is 1
		 -> UART2_Deinitialize(), 

    UART2$ErrorGet	PTR FTN()unsigned int  size(3) Largest target is 2
		 -> UART2_ErrorGet(), 

    UART2$EventCallbackRegister	PTR FTN(PTR FTN()void ,)void  size(3) Largest target is 1
		 -> NULL(), 

    UART2$FramingErrorCallbackRegister	PTR FTN(PTR FTN()void ,)void  size(3) Largest target is 1
		 -> UART2_FramingErrorCallbackRegister(), 

    UART2$Initialize	PTR FTN()void  size(3) Largest target is 1
		 -> UART2_Initialize(), 

    UART2$IsRxReady	PTR FTN()_Bool  size(3) Largest target is 1
		 -> UART2_IsRxReady(), 

    UART2$IsTxDone	PTR FTN()_Bool  size(3) Largest target is 1
		 -> UART2_IsTxDone(), 

    UART2$IsTxReady	PTR FTN()_Bool  size(3) Largest target is 1
		 -> UART2_IsTxReady(), 

    UART2$OverrunErrorCallbackRegister	PTR FTN(PTR FTN()void ,)void  size(3) Largest target is 1
		 -> UART2_OverrunErrorCallbackRegister(), 

    UART2$ParityErrorCallbackRegister	PTR FTN(PTR FTN()void ,)void  size(3) Largest target is 1
		 -> UART2_ParityErrorCallbackRegister(), 

    UART2$Read	PTR FTN()unsigned char  size(3) Largest target is 1
		 -> UART2_Read(), 

    UART2$RxCompleteCallbackRegister	PTR FTN(PTR FTN()void ,)void  size(3) Largest target is 1
		 -> UART2_RxCompleteCallbackRegister(), 

    UART2$TransmitDisable	PTR FTN()void  size(3) Largest target is 1
		 -> UART2_TransmitDisable(), 

    UART2$TransmitEnable	PTR FTN()void  size(3) Largest target is 1
		 -> UART2_TransmitEnable(), 

    UART2$TxCollisionCallbackRegister	PTR FTN(PTR FTN()void ,)void  size(3) Largest target is 1
		 -> NULL(), 

    UART2$TxCompleteCallbackRegister	PTR FTN(PTR FTN()void ,)void  size(3) Largest target is 1
		 -> UART2_TxCompleteCallbackRegister(), 

    UART2$Write	PTR FTN(unsigned char ,)void  size(3) Largest target is 1
		 -> UART2_Write(), 

    UART2_FramingErrorCallbackRegister@callbackHandler	PTR FTN()void  size(3) Largest target is 1
		 -> UART2_DefaultFramingErrorCallback(), 

    UART2_FramingErrorHandler	PTR FTN()void  size(3) Largest target is 1
		 -> UART2_DefaultFramingErrorCallback(), NULL(), 

    UART2_OverrunErrorCallbackRegister@callbackHandler	PTR FTN()void  size(3) Largest target is 1
		 -> UART2_DefaultOverrunErrorCallback(), 

    UART2_OverrunErrorHandler	PTR FTN()void  size(3) Largest target is 1
		 -> UART2_DefaultOverrunErrorCallback(), NULL(), 

    UART2_ParityErrorCallbackRegister@callbackHandler	PTR FTN()void  size(3) Largest target is 1
		 -> UART2_DefaultParityErrorCallback(), 

    UART2_ParityErrorHandler	PTR FTN()void  size(3) Largest target is 1
		 -> UART2_DefaultParityErrorCallback(), NULL(), 

    UART2_RxCompleteInterruptHandler	PTR FTN()void  size(3) Largest target is 1
		 -> NULL(), 

    UART2_RxInterruptHandler	PTR FTN()void  size(3) Largest target is 1
		 -> UART2_ReceiveISR(), NULL(), 

    UART2_TxCompleteInterruptHandler	PTR FTN()void  size(3) Largest target is 1
		 -> NULL(), 

    UART2_TxInterruptHandler	PTR FTN()void  size(3) Largest target is 1
		 -> UART2_TransmitISR(), NULL(), 

    vfpfcnvrt@ap	PTR PTR void  size(1) Largest target is 1
		 -> printf@ap(COMRAM[1]), 

    vfpfcnvrt@cp	PTR unsigned char  size(1) Largest target is 18
		 -> STR_1(CODE[18]), STR_2(CODE[5]), 

    vfpfcnvrt@fmt	PTR PTR unsigned char  size(1) Largest target is 1
		 -> vfprintf@cfmt(COMRAM[1]), 

    vfpfcnvrt@fp	PTR struct _IO_FILE size(2) Largest target is 0
		 -> NULL(NULL[0]), 

    vfprintf@ap	PTR PTR void  size(1) Largest target is 1
		 -> printf@ap(COMRAM[1]), 

    vfprintf@cfmt	PTR unsigned char  size(1) Largest target is 18
		 -> STR_1(CODE[18]), STR_2(CODE[5]), 

    vfprintf@fmt	PTR const unsigned char  size(1) Largest target is 18
		 -> STR_1(CODE[18]), STR_2(CODE[5]), 

    vfprintf@fp	PTR struct _IO_FILE size(2) Largest target is 0
		 -> NULL(NULL[0]), 


Critical Paths under _main in COMRAM

    _main->_printf
    _srand->_time
    _random_number->___awmod
    _rand->___lmul
    _printf->_vfprintf
    _vfprintf->_vfpfcnvrt
    _vfpfcnvrt->_abs
    _fputc->_putch
    _putch->_UART2_Write
    _abs->___awmod
    ___awmod->_rand
    _UART2_Initialize->_UART2_FramingErrorCallbackRegister
    _UART2_Initialize->_UART2_OverrunErrorCallbackRegister
    _UART2_Initialize->_UART2_ParityErrorCallbackRegister
    _INTERRUPT_Initialize->_INT0_SetInterruptHandler
    _INTERRUPT_Initialize->_INT1_SetInterruptHandler
    _INTERRUPT_Initialize->_INT2_SetInterruptHandler

Critical Paths under _INTERRUPT_InterruptManager in COMRAM

    _INTERRUPT_InterruptManager->_UART2_ReceiveISR

Critical Paths under _main in BANK0

    None.

Critical Paths under _INTERRUPT_InterruptManager in BANK0

    None.

Critical Paths under _main in BANK1

    None.

Critical Paths under _INTERRUPT_InterruptManager in BANK1

    None.

Critical Paths under _main in BANK2

    None.

Critical Paths under _INTERRUPT_InterruptManager in BANK2

    None.

Critical Paths under _main in BANK3

    None.

Critical Paths under _INTERRUPT_InterruptManager in BANK3

    None.

Critical Paths under _main in BANK4

    None.

Critical Paths under _INTERRUPT_InterruptManager in BANK4

    None.

Critical Paths under _main in BANK5

    None.

Critical Paths under _INTERRUPT_InterruptManager in BANK5

    None.

Critical Paths under _main in BANK6

    None.

Critical Paths under _INTERRUPT_InterruptManager in BANK6

    None.

Critical Paths under _main in BANK7

    None.

Critical Paths under _INTERRUPT_InterruptManager in BANK7

    None.

Critical Paths under _main in BANK8

    None.

Critical Paths under _INTERRUPT_InterruptManager in BANK8

    None.

Critical Paths under _main in BANK9

    None.

Critical Paths under _INTERRUPT_InterruptManager in BANK9

    None.

Critical Paths under _main in BANK10

    None.

Critical Paths under _INTERRUPT_InterruptManager in BANK10

    None.

Critical Paths under _main in BANK11

    None.

Critical Paths under _INTERRUPT_InterruptManager in BANK11

    None.

Critical Paths under _main in BANK12

    None.

Critical Paths under _INTERRUPT_InterruptManager in BANK12

    None.

Critical Paths under _main in BANK13

    None.

Critical Paths under _INTERRUPT_InterruptManager in BANK13

    None.

Critical Paths under _main in BANK14

    None.

Critical Paths under _INTERRUPT_InterruptManager in BANK14

    None.

Critical Paths under _main in BANK15

    None.

Critical Paths under _INTERRUPT_InterruptManager in BANK15

    None.

Critical Paths under _main in BANK16

    None.

Critical Paths under _INTERRUPT_InterruptManager in BANK16

    None.

Critical Paths under _main in BANK17

    None.

Critical Paths under _INTERRUPT_InterruptManager in BANK17

    None.

Critical Paths under _main in BANK18

    None.

Critical Paths under _INTERRUPT_InterruptManager in BANK18

    None.

Critical Paths under _main in BANK19

    None.

Critical Paths under _INTERRUPT_InterruptManager in BANK19

    None.

Critical Paths under _main in BANK20

    None.

Critical Paths under _INTERRUPT_InterruptManager in BANK20

    None.

Critical Paths under _main in BANK21

    None.

Critical Paths under _INTERRUPT_InterruptManager in BANK21

    None.

Critical Paths under _main in BANK22

    None.

Critical Paths under _INTERRUPT_InterruptManager in BANK22

    None.

Critical Paths under _main in BANK23

    None.

Critical Paths under _INTERRUPT_InterruptManager in BANK23

    None.

Critical Paths under _main in BANK24

    None.

Critical Paths under _INTERRUPT_InterruptManager in BANK24

    None.

Critical Paths under _main in BANK25

    None.

Critical Paths under _INTERRUPT_InterruptManager in BANK25

    None.

Critical Paths under _main in BANK26

    None.

Critical Paths under _INTERRUPT_InterruptManager in BANK26

    None.

Critical Paths under _main in BANK27

    None.

Critical Paths under _INTERRUPT_InterruptManager in BANK27

    None.

Critical Paths under _main in BANK28

    None.

Critical Paths under _INTERRUPT_InterruptManager in BANK28

    None.

Critical Paths under _main in BANK29

    None.

Critical Paths under _INTERRUPT_InterruptManager in BANK29

    None.

Critical Paths under _main in BANK30

    None.

Critical Paths under _INTERRUPT_InterruptManager in BANK30

    None.

Critical Paths under _main in BANK31

    None.

Critical Paths under _INTERRUPT_InterruptManager in BANK31

    None.

Call Graph Tables:

 ---------------------------------------------------------------------------------
 (Depth) Function   	        Calls       Base Space   Used Autos Params    Refs
 ---------------------------------------------------------------------------------
 (0) _main                                                 2     2      0    5942
                                              0 BANK0      2     2      0
                  _SYSTEM_Initialize
                   _UART2_Initialize
                             _printf
                      _random_number
                              _srand
                               _time
 ---------------------------------------------------------------------------------
 (1) _time                                                 4     0      4     120
                                              4 COMRAM     4     0      4
 ---------------------------------------------------------------------------------
 (1) _srand                                                4     2      2      98
                                              8 COMRAM     4     2      2
                               _time (ARG)
 ---------------------------------------------------------------------------------
 (1) _random_number                                       11     7      4    1327
                                             28 COMRAM     9     5      4
                            ___awmod
                               _rand
 ---------------------------------------------------------------------------------
 (2) _rand                                                 6     4      2     370
                                             16 COMRAM     6     4      2
                             ___lmul
 ---------------------------------------------------------------------------------
 (3) ___lmul                                              12     4      8     370
                                              4 COMRAM    12     4      8
 ---------------------------------------------------------------------------------
 (1) _printf                                               6     3      3    3383
                                             49 COMRAM     4     1      3
                      _random_number (ARG)
                           _vfprintf
 ---------------------------------------------------------------------------------
 (2) _vfprintf                                             5     1      4    3177
                                             44 COMRAM     5     1      4
                          _vfpfcnvrt
 ---------------------------------------------------------------------------------
 (3) _vfpfcnvrt                                           12     8      4    2827
                                             32 COMRAM    12     8      4
                            ___awdiv
                            ___awmod
                                _abs
                              _fputc
 ---------------------------------------------------------------------------------
 (4) _fputc                                                9     5      4     871
                                              7 COMRAM     9     5      4
                              _putch
 ---------------------------------------------------------------------------------
 (5) _putch                                                1     1      0      89
                                              6 COMRAM     1     1      0
                    _UART2_IsTxReady
                        _UART2_Write
 ---------------------------------------------------------------------------------
 (6) _UART2_Write                                          2     2      0      67
                                              4 COMRAM     2     2      0
 ---------------------------------------------------------------------------------
 (6) _UART2_IsTxReady                                      0     0      0       0
 ---------------------------------------------------------------------------------
 (4) _abs                                                  4     2      2     142
                                             28 COMRAM     4     2      2
                            ___awmod (ARG)
 ---------------------------------------------------------------------------------
 (2) ___awmod                                              6     2      4     600
                                             22 COMRAM     6     2      4
                               _rand (ARG)
 ---------------------------------------------------------------------------------
 (4) ___awdiv                                              8     4      4     452
                                              4 COMRAM     8     4      4
 ---------------------------------------------------------------------------------
 (1) _SYSTEM_Initialize                                    0     0      0     654
                   _CLOCK_Initialize
               _INTERRUPT_Initialize
             _PIN_MANAGER_Initialize
                   _UART2_Initialize
 ---------------------------------------------------------------------------------
 (1) _UART2_Initialize                                     0     0      0     360
 _UART2_FramingErrorCallbackRegister
 _UART2_OverrunErrorCallbackRegister
  _UART2_ParityErrorCallbackRegister
 ---------------------------------------------------------------------------------
 (2) _UART2_ParityErrorCallbackRegister                    3     0      3     120
                                              4 COMRAM     3     0      3
 ---------------------------------------------------------------------------------
 (2) _UART2_OverrunErrorCallbackRegister                   3     0      3     120
                                              4 COMRAM     3     0      3
 ---------------------------------------------------------------------------------
 (2) _UART2_FramingErrorCallbackRegister                   3     0      3     120
                                              4 COMRAM     3     0      3
 ---------------------------------------------------------------------------------
 (2) _PIN_MANAGER_Initialize                               0     0      0       0
 ---------------------------------------------------------------------------------
 (2) _INTERRUPT_Initialize                                 0     0      0     294
           _INT0_SetInterruptHandler
           _INT1_SetInterruptHandler
           _INT2_SetInterruptHandler
 ---------------------------------------------------------------------------------
 (3) _INT2_SetInterruptHandler                             3     0      3      98
                                              4 COMRAM     3     0      3
 ---------------------------------------------------------------------------------
 (3) _INT1_SetInterruptHandler                             3     0      3      98
                                              4 COMRAM     3     0      3
 ---------------------------------------------------------------------------------
 (3) _INT0_SetInterruptHandler                             3     0      3      98
                                              4 COMRAM     3     0      3
 ---------------------------------------------------------------------------------
 (2) _CLOCK_Initialize                                     0     0      0       0
 ---------------------------------------------------------------------------------
 Estimated maximum stack depth 6
 ---------------------------------------------------------------------------------
 (Depth) Function   	        Calls       Base Space   Used Autos Params    Refs
 ---------------------------------------------------------------------------------
 (7) _INTERRUPT_InterruptManager                           2     2      0      91
                                              2 COMRAM     2     2      0
                                NULL *
                   _UART2_ReceiveISR *
                  _UART2_TransmitISR *
 ---------------------------------------------------------------------------------
 (8) _UART2_TransmitISR                                    1     1      0      23
                                              0 COMRAM     1     1      0
 ---------------------------------------------------------------------------------
 (8) _UART2_ReceiveISR                                     2     2      0      68
                                              0 COMRAM     2     2      0
                                NULL *
  _UART2_DefaultFramingErrorCallback *
  _UART2_DefaultOverrunErrorCallback *
 ---------------------------------------------------------------------------------
 (9) _UART2_DefaultOverrunErrorCallback                    0     0      0       0
 ---------------------------------------------------------------------------------
 (9) _UART2_DefaultFramingErrorCallback                    0     0      0       0
 ---------------------------------------------------------------------------------
 (9) NULL(Fake)                                            0     0      0       0
 ---------------------------------------------------------------------------------
 Estimated maximum stack depth 9
 ---------------------------------------------------------------------------------

 Call Graph Graphs:

 _main (ROOT)
   _SYSTEM_Initialize
     _CLOCK_Initialize
     _INTERRUPT_Initialize
       _INT0_SetInterruptHandler
       _INT1_SetInterruptHandler
       _INT2_SetInterruptHandler
     _PIN_MANAGER_Initialize
     _UART2_Initialize
       _UART2_FramingErrorCallbackRegister
       _UART2_OverrunErrorCallbackRegister
       _UART2_ParityErrorCallbackRegister
   _UART2_Initialize
   _printf
     _random_number (ARG)
       ___awmod
         _rand (ARG)
           ___lmul
       _rand
     _vfprintf (ARG)
       _vfpfcnvrt
         ___awdiv
         ___awmod
         _abs
           ___awmod (ARG)
         _fputc
           _putch
             _UART2_IsTxReady
             _UART2_Write
   _random_number
   _srand
     _time (ARG)
   _time

 _INTERRUPT_InterruptManager (ROOT)
   NULL(Fake) *
   _UART2_ReceiveISR *
     NULL(Fake) *
     _UART2_DefaultFramingErrorCallback *
     _UART2_DefaultOverrunErrorCallback *
   _UART2_TransmitISR *

 Address spaces:
Name               Size   Autos  Total    Cost      Usage
BIGRAM            1FFF      0       0      95        0.0%
EEDATA             400      0       0       0        0.0%
BITBIGSFRlhhhhh    2E7      0       0      78        0.0%
BITBIGSFRlhhhhh    1D7      0       0      72        0.0%
BITBIGSFRlll       196      0       0      94        0.0%
BITBANK31          100      0       0      67        0.0%
BANK31             100      0       0      68        0.0%
BITBANK30          100      0       0      65        0.0%
BANK30             100      0       0      66        0.0%
BITBANK29          100      0       0      63        0.0%
BANK29             100      0       0      64        0.0%
BITBANK28          100      0       0      61        0.0%
BANK28             100      0       0      62        0.0%
BITBANK27          100      0       0      59        0.0%
BANK27             100      0       0      60        0.0%
BITBANK26          100      0       0      57        0.0%
BANK26             100      0       0      58        0.0%
BITBANK25          100      0       0      55        0.0%
BANK25             100      0       0      56        0.0%
BITBANK24          100      0       0      53        0.0%
BANK24             100      0       0      54        0.0%
BITBANK23          100      0       0      51        0.0%
BANK23             100      0       0      52        0.0%
BITBANK22          100      0       0      49        0.0%
BANK22             100      0       0      50        0.0%
BITBANK21          100      0       0      47        0.0%
BANK21             100      0       0      48        0.0%
BITBANK20          100      0       0      45        0.0%
BANK20             100      0       0      46        0.0%
BITBANK19          100      0       0      43        0.0%
BANK19             100      0       0      44        0.0%
BITBANK18          100      0       0      41        0.0%
BANK18             100      0       0      42        0.0%
BITBANK17          100      0       0      39        0.0%
BANK17             100      0       0      40        0.0%
BITBANK16          100      0       0      37        0.0%
BANK16             100      0       0      38        0.0%
BITBANK15          100      0       0      35        0.0%
BANK15             100      0       0      36        0.0%
BITBANK14          100      0       0      33        0.0%
BANK14             100      0       0      34        0.0%
BITBANK13          100      0       0      31        0.0%
BANK13             100      0       0      32        0.0%
BITBANK12          100      0       0      29        0.0%
BANK12             100      0       0      30        0.0%
BITBANK11          100      0       0      27        0.0%
BANK11             100      0       0      28        0.0%
BITBANK10          100      0       0      25        0.0%
BANK10             100      0       0      26        0.0%
BITBANK9           100      0       0      23        0.0%
BANK9              100      0       0      24        0.0%
BITBANK8           100      0       0      21        0.0%
BANK8              100      0       0      22        0.0%
BITBANK7           100      0       0      19        0.0%
BANK7              100      0       0      20        0.0%
BITBANK6           100      0       0      17        0.0%
BANK6              100      0       0      18        0.0%
BITBANK5           100      0       0      14        0.0%
BANK5              100      0       0      15        0.0%
BITBANK4           100      0       0      12        0.0%
BANK4              100      0       0      13        0.0%
BITBANK3           100      0       0      10        0.0%
BANK3              100      0       0      11        0.0%
BITBANK2           100      0       0       8        0.0%
BANK2              100      0       0       9        0.0%
BITBANK1           100      0       0       6        0.0%
BANK1              100      0       0       7        0.0%
BITBANK0            A0      0       0       4        0.0%
BANK0               A0      2      4B       5       46.9%
BITBIGSFRlhhhhh     60      0       0      79        0.0%
BITCOMRAM           5F      0       0       0        0.0%
COMRAM              5F     35      5B       1       95.8%
BITBIGSFRlhhhhh     38      0       0      88        0.0%
BITBIGSFRlhhhl      31      0       0      91        0.0%
BITBIGSFRh          2D      0       0      69        0.0%
BITBIGSFRlhhhhh     27      0       0      87        0.0%
BITBIGSFRlhhhhh      B      0       0      70        0.0%
BITBIGSFRllh         A      0       0      93        0.0%
BITBIGSFRlhhhhh      8      0       0      86        0.0%
BITBIGSFRlhhhhh      5      0       0      81        0.0%
BITBIGSFRlhhhhh      4      0       0      80        0.0%
BITBIGSFRlhhhhh      4      0       0      82        0.0%
BITBIGSFRlhhhhh      4      0       0      84        0.0%
BITBIGSFRlhhhhh      3      0       0      71        0.0%
BITBIGSFRlhl         3      0       0      92        0.0%
BITBIGSFRlhhhhh      2      0       0      83        0.0%
BITBIGSFRlhhhhh      2      0       0      85        0.0%
BITBIGSFRlhhhhh      1      0       0      73        0.0%
BITBIGSFRlhhhhh      1      0       0      74        0.0%
BITBIGSFRlhhhhh      1      0       0      75        0.0%
BITBIGSFRlhhhhh      1      0       0      76        0.0%
BITBIGSFRlhhhhh      1      0       0      77        0.0%
BITBIGSFRlhhhhh      1      0       0      89        0.0%
BITBIGSFRlhhhhl      1      0       0      90        0.0%
BIGSFR               0      0       0     200        0.0%
BITSFR_8             0      0       0     200        0.0%
SFR_8                0      0       0     200        0.0%
BITSFR_7             0      0       0     200        0.0%
SFR_7                0      0       0     200        0.0%
BITSFR_6             0      0       0     200        0.0%
SFR_6                0      0       0     200        0.0%
BITSFR_5             0      0       0     200        0.0%
SFR_5                0      0       0     200        0.0%
BITSFR_4             0      0       0     200        0.0%
SFR_4                0      0       0     200        0.0%
BITSFR_3             0      0       0     200        0.0%
SFR_3                0      0       0     200        0.0%
BITSFR_2             0      0       0     200        0.0%
SFR_2                0      0       0     200        0.0%
BITSFR_1             0      0       0     200        0.0%
SFR_1                0      0       0     200        0.0%
BITSFR               0      0       0     200        0.0%
SFR                  0      0       0     200        0.0%
STACK                0      0       0       2        0.0%
NULL                 0      0       0       0        0.0%
ABS                  0      0      A6      16        0.0%
DATA                 0      0      A6       3        0.0%
CODE                 0      0       0       0        0.0%


Microchip Technology PIC18 Macro Assembler V2.46 build 20240104201356 
Symbol Table                                                                                   Mon May 06 23:39:49 2024

                                               l25 27F8                                                 l76 2A18  
                                               l95 2C04                                       ___awdiv@sign 000A  
                                              l121 2BE8                                                l108 2BF6  
                                              l137 2BB2                                                l250 2580  
                                              l502 2B26                                                l440 2BC8  
                                              l506 2B04                                                l543 292E  
                                              l464 2988                                                l544 293E  
                                              l529 2BDA                                                l378 2634  
                                              l467 298A                                                l485 2B66  
                                              l498 2B48                                                l763 24BC  
                                              l776 26E4                                                u700 2BC8  
                                              u710 2952                                                u711 294E  
                                              u800 2648                                                u720 296C  
                                              u801 2644                                                u721 2968  
                                              u810 2662                                                u730 2B60  
                                              u811 265E                                                u731 2B5C  
                                              u740 240C                                                u820 267C  
                                              u900 2A60                                                u741 2408  
                                              u821 2678                                                u901 2A5C  
                                              u910 2B3C                                                u750 2426  
                                              u830 269A                                                u911 2B38  
                                              u751 2422                                                u831 2696  
                                              u920 2B1A                                                u760 244C  
                                              u840 26B0                                                u921 2B16  
                                              u761 2448                                                u841 26AC  
                            __end_of_random_number 27FA                                                u930 2AF8  
                                              u770 246A                                                u850 26D4  
                                              u690 2BC6                                                u931 2AF4  
                                              u771 2466                                                u851 26D0  
                                              u691 2BC0                                                u780 2486  
                                              u860 2334                                                u940 28F4  
                                              u781 2482                                                u861 2330  
                                              u941 28F0                                                u790 24AC  
                                              u870 2346                                                u950 292E  
                                              u791 24A8                                                u871 2342  
                                              u951 292A                                                u880 236E  
                                              u960 208A                                                u881 236A  
                                              u961 2086                                                u890 23A4  
                                              u970 20CE                                                u891 23A0  
                                              u971 20CA                                                u980 20F0  
                                              u981 20EC                                                u990 212A  
                                              u991 2124                         ??_INT0_SetInterruptHandler 0008  
                                              _abs 2A52         __end_of_UART2_FramingErrorCallbackRegister 2B4A  
             ??_UART2_FramingErrorCallbackRegister 0008                ?_UART2_FramingErrorCallbackRegister 0005  
               _UART2_FramingErrorCallbackRegister 2B28                                       ___awmod@sign 001C  
                                              tosl 3FFD                                                wreg 3FE8  
                       UART2_ReceiveISR@tempRxHead 0002                                     _UART2_IsTxDone 0000  
                                             l2001 20AC                                               l1210 2B9A  
                                             l2011 212E                                               l2003 20CE  
                                             ?_abs 001D                                               l2101 2630  
                                             l2021 21AC                                               l2013 215E  
                                             l2005 20F0                                               l2111 2A02  
                                             l2103 29D4                                               l2023 21BC  
                                             l2015 217A                                               l2007 210C  
                                             l2031 2204                                               l2113 2A06  
                                             l2105 29DC                                               l2025 21CE  
                                             l2017 218C                                               l2009 2116  
                                             l2121 29CA                                               l2041 286A  
                                             l2107 29EC                                               l2051 2594  
                                             l2027 21EC                                               l2019 219C  
                                             l2035 2210                                               l2115 298C  
                                             l2043 28A6                                               l2131 27AC  
                                             l2109 29F0                                               l2061 25B8  
                                             l2053 25A6                                               l2141 2BCA  
                                             l1261 2A84                                               l2029 21EE  
                                             l2117 2994                                               l2133 27BC  
                                             l2125 2776                                               l1254 29D2  
                                             l2071 25CC                                               l2063 25BC  
                                             l2055 25AC                                               l2047 2582  
                                             l2143 2BD2                                               l2119 29A8  
                                             l2135 27C8                                               l2127 2786  
                                             l2151 2A48                                               l1248 223C  
                                             l1601 2528                                               l2081 25E0  
                                             l2073 25D0                                               l2065 25C0  
                                             l2057 25B0                                               l2049 2586  
                                             l2145 2BD6                                               l1273 23F8  
                                             l2137 27D0                                               l2129 27A4  
                                             l1258 2A6C                                               l1603 252A  
                                             l2091 261C                                               l2083 25F0  
                                             l2075 25D4                                               l2067 25C4  
                                             l2059 25B4                                               l2155 2B68  
                                             l2147 2A1A                                               l2093 2620  
                                             l2085 2600                                               l2077 25D8  
                                             l2069 25C8                                               l2157 2B82  
                                             l1293 2A50                                               l2149 2A2C  
                                             l1286 2B80                                               l2095 2624  
                                             l2087 2610                                               l2079 25DC  
                                             l2159 2B86                                               l2271 2824  
                                             l2263 27FA                                               l2097 2628  
                                             l2089 2618                                               l1289 28D4  
                                             l2273 2848                                               l2265 2802  
                                             l2099 262C                                               l2267 281A  
                                             l1573 2B9C                                               l1581 24D6  
                                             l1901 249C                                               l2269 281C  
                                             l1591 251A                                               l1583 24E0  
                                             l1575 24BE                                               l1903 24AC  
                                             l1911 263A                                               l1593 251C  
                                             l1585 24E4                                               l1577 24D2  
                                             l1905 24B4                                               l1921 266A  
                                             l1913 2648                                               l1841 2942  
                                             l1595 251E                                               l1587 24E6  
                                             l1579 24D4                                               l1931 26B0  
                                             l1923 267C                                               l1915 2650  
                                             l1851 2980                                               l1843 2952  
                                             l1597 2524                                               l1589 2518  
                                             l1941 26DC                                               l1933 26B8  
                                             l1925 2684                                               l1917 2654  
                                             l1909 2636                                               l1837 2BB4  
                                             l1853 2984                                               l1845 295C  
                                             l1861 2B60                                               l1599 2526  
                                             l1871 2414                                               l1935 26BE  
                                             l1927 268C                                               l1919 2662  
                                             l1855 2986                                               l1847 296C  
                                             l1951 2350                                               l1881 243A  
                                             l1873 2418                                               l1865 23FA  
                                             l1929 269A                                               l1937 26C4  
                                             l1961 2A60                                               l1849 297A  
                                             l1857 2B4C                                               l1953 236E  
                                             l1945 2322                                               l1963 2BF8  
                                             l1971 2B3C                                               l1891 2470  
                                             l1883 244C                                               l1875 2426  
                                             l1867 23FE                                               l1939 26D4  
                                             l1859 2B4C                                               l1955 23A4  
                                             l1947 2334                                               l1965 2BEA  
                                             l1973 2B06                                               l1893 2486  
                                             l1885 2454                                               l1877 242E  
                                             l1869 240C                                               l1949 2346  
                                             l1981 28D6                                               l1967 2BDC  
                                             l1975 2B1A                                               l1895 248E  
                                             l1887 245C                                               l1879 2432  
                                             l1959 2A52                                               l1991 2062  
                                             l1983 28E6                                               l1969 2B28  
                                             l1977 2AE4                                               l1897 2490  
                                             l1889 246A                                               l1993 208A  
                                             l1985 28F4                                               l1979 2AF8  
                                             l1899 2496                                               l1995 2092  
                                             l1987 2904                                               l1997 209E  
                                             l1989 290E                                               l1999 20A2  
                                             STR_1 2049                                               STR_2 205B  
                                             u1000 212C                                               u1010 218C  
                                             u1011 2188                                               u1020 219C  
                                             u1021 2198                                               u1030 21AC  
                                             u1031 21A8                                               u1040 21BC  
                                             u1041 21B8                                               u1050 2200  
                                             u1051 21FC                                               u1060 28C6  
                                             u1070 29CA                                               u1071 29C6  
                                             u1080 27A4                                               u1065 28BC  
                                             u1081 27A0                                               u1090 2A2C  
                                             u1091 2A28                                               _LATA 3FBA  
                                             _LATB 3FBB                                               _LATC 3FBC  
                                             _LATD 3FBD                                               _LATE 3FBE  
                                             u1267 2854                                               i2l81 2730  
                                             i2l85 2768                                               _WPUA 3A41  
                                             _WPUB 3A51                                               _WPUC 3A61  
                                             _WPUD 3A71                                               _WPUE 3A81  
                                   _UART2_ErrorGet 0000                                               abs@a 001D  
                                             _dbuf 0060                                               _main 27FA  
                                             _rand 286A                                               _seed 0058  
                                             _prec 004D                                               _time 2A1A  
                                             fsr1h 3FE2                                               fsr2h 3FDA  
                                             indf2 3FDF                                               fsr1l 3FE1  
                                             fsr2l 3FD9                          ?_INT2_SetInterruptHandler 0005  
                                             prodl 3FF3                                               start 001A  
                                     ___param_bank 0000                                              ??_abs 001F  
                                  _UART2_IsRxReady 0000                                    _UART2_IsTxReady 2BB4  
                                            ?_main 0001                                              ?_rand 0011  
                                  __end_of___awdiv 24BE                                    __end_of___awmod 26E6  
                                            ?_time 0005                                    ___awdiv@divisor 0007  
                                            _U2P1L 3DD4                                              _U2P2L 3DD6  
                                            _U2P3L 3DD8                                              _IOCAF 3A47  
                                            _IOCBF 3A57                                              _IOCCF 3A67  
                                            _IOCEF 3A87                                              _IOCAN 3A46  
                                            _IOCBN 3A56                                              _IOCAP 3A45  
                                            _IOCCN 3A66                                              _IOCBP 3A55  
                                            _IOCCP 3A65                                              _IOCEN 3A86  
                                            _IOCEP 3A85                                              _U2UIR 3DE0  
                                            _U2RXB 3DD0                                              _U2TXB 3DD2  
                                            i2l460 2320                                              i2l470 2AB4  
                                            i2l473 2AB8                                              i2l491 2C06  
                                            i2l488 2C08                                    ___awdiv@counter 0009  
                                            _OSCEN 39DD                                              _UART2 2001  
                                     vfpfcnvrt@fmt 0023                                              _TRISA 3FC2  
                                            _TRISB 3FC3                                              _TRISC 3FC4  
                                            _TRISD 3FC5                                              _TRISE 3FC6  
                              ___lmul@multiplicand 0009                                              _flags 0051  
                                            _fputc 2322                                              _srand 2B68  
                                            _width 004B                                              _putch 2B4A  
                         _INT1_SetInterruptHandler 2BEA                                              pclath 3FFA  
                                            pclatu 3FFB                                              tablat 3FF5  
                                            time@t 0005                                              status 3FD8  
                                  __initialization 2ABA                                       __end_of_main 286A  
                                     __end_of_rand 28D6                                       __end_of_time 2A52  
                      ?_INTERRUPT_InterruptManager 0001                                       ?_UART2_Write 0001  
                                           ??_main 00A9                                             ??_rand 0013  
                                           ??_time 0009                                      __activetblptr 0003  
       __end_of_UART2_OverrunErrorCallbackRegister 2B28               ??_UART2_OverrunErrorCallbackRegister 0008  
              ?_UART2_OverrunErrorCallbackRegister 0005                 _UART2_OverrunErrorCallbackRegister 2B06  
 UART2_ParityErrorCallbackRegister@callbackHandler 0005  UART2_OverrunErrorCallbackRegister@callbackHandler 0005  
UART2_FramingErrorCallbackRegister@callbackHandler 0005                                             ?_fputc 0008  
                                 ___awdiv@dividend 0005                                             ?_srand 0009  
                                           _ANSELA 3A40                                             ?_putch 0001  
                                           _ANSELB 3A50                                             _ANSELC 3A60  
                                           _ANSELD 3A70                                             _ANSELE 3A80  
                                           _RB1I2C 3A5A                                             _RB2I2C 3A5B  
                                           _RD0I2C 3A7A                                             _RD1I2C 3A7B  
                                           _RC3I2C 3A6A                                             _RC4I2C 3A6B  
                                           _U2CON0 3DDA                                             _U2CON1 3DDB  
                                           _U2CON2 3DDC                                             _U2BRGH 3DDE  
                                           _U2FIFO 3DDF                                             _U2BRGL 3DDD  
                                           _RD0PPS 3A18                                             _ODCONA 3A42  
                                           _ODCONB 3A52                                             _ODCONC 3A62  
                                           _ODCOND 3A72                                             _ODCONE 3A82  
                                           i2l2201 22EA                                             i2l2211 231A  
                                           i2l2203 22F0                                             i2l2213 231E  
                                           i2l2205 22F6                                             i2l2221 2AA4  
                                           i2l2223 2AAA                                             i2l2209 230C  
                                           i2l2225 2AAE                                             i2l2217 2A86  
                                           i2l2241 26F2                                             i2l2219 2A96  
                                           i2l2243 2702                                             i2l2245 2710  
                                           i2l2191 2282                                             i2l2183 223E  
                                           i2l2247 273E                                             i2l2193 229C  
                                           i2l2185 224E                                             i2l2249 274C  
                                           i2l2195 22AC                                             i2l2187 225E  
                                           i2l2197 22BC                                             i2l2189 226E  
                                           i2l2199 22D0                                             _INLVLA 3A44  
                                           _INLVLB 3A54                                             _INLVLC 3A64  
                                           _INLVLD 3A74                                             _INLVLE 3A84  
                                           _OSCFRQ 39DF                                      vfpfcnvrt@done 0026  
                                 _UART2_Initialize 2582                            __end_of_UART2_IsTxReady 2BCA  
                        _UART2_OverrunErrorHandler 003C                                       vfprintf@cfmt 0031  
                              _uart2RxStatusBuffer 0080                                             ___lmul 28D6  
                                        ??___awdiv 0009                                          ??___awmod 001B  
                                 _UART2_ReceiveISR 223E                                             clear_0 2AC0  
                                           clear_1 2ACC                   _UART2_DefaultParityErrorCallback 0000  
                                 ___awdiv@quotient 000B                                    ___awmod@divisor 0019  
                                           isa$std 0001                                    ___awmod@counter 001B  
                                           _printf 2B82                                  ?_CLOCK_Initialize 0001  
                                           fputc@c 0008                       _INT2_DefaultInterruptHandler 0000  
                               ??_CLOCK_Initialize 0005                                       __mediumconst 0000  
                                           tblptrh 3FF7                                             tblptrl 3FF6  
                                           tblptru 3FF8                                             srand@s 0009  
                                 __end_of_vfprintf 29D4           INT2_SetInterruptHandler@InterruptHandler 0005  
         INT1_SetInterruptHandler@InterruptHandler 0005           INT0_SetInterruptHandler@InterruptHandler 0005  
                 _UART2_TxCompleteInterruptHandler 0039                                  _SYSTEM_Initialize 2BCA  
                                       __accesstop 0060                            __end_of__initialization 2ADE  
                               ?_SYSTEM_Initialize 0001                                      ___rparam_used 0001  
                              _UART2_AutoBaudQuery 0000                                      __end_of_UART2 2049  
                                   __pcstackCOMRAM 0001                                ??_SYSTEM_Initialize 0008  
                                    __end_of_fputc 23FA                                      __end_of_srand 2B82  
                                    __end_of_putch 2B68          __end_of_UART2_DefaultFramingErrorCallback 2C0A  
              ??_UART2_DefaultFramingErrorCallback 0001                 ?_UART2_DefaultFramingErrorCallback 0001  
                _UART2_DefaultFramingErrorCallback 2C08                   __end_of_INT2_SetInterruptHandler 2BEA  
                         _UART2_RxInterruptHandler 00A3                                            ??_fputc 000C  
                        __end_of_SYSTEM_Initialize 2BDC                                            ??_srand 000B  
                                          ??_putch 0007                                         __pbssBANK0 0060  
                                _UART2_AutoBaudSet 0000                              _INT0_InterruptHandler 0048  
                                          IVTBASEH 3FD6                                            IVTBASEL 3FD5  
                                          IVTBASEU 3FD7                                   ?_UART2_IsTxReady 0001  
                                          ?___lmul 0005                                     ___lmul@product 000D  
                                          ?_printf 0032                              _UART2_TransmitDisable 0000  
                                          _U2ERRIE 3DE2                                            _U2ERRIR 3DE1  
                       ??_INT1_SetInterruptHandler 0008                                            _U2RXPPS 3AE8  
                                          _OSCCON1 39D9                                            _OSCCON3 39DB  
                                          _OSCTUNE 39DE                                            _SLRCONA 3A43  
                                          _SLRCONB 3A53                                            _SLRCONC 3A63  
                                          _SLRCOND 3A73                                            _SLRCONE 3A83  
                        ?_INT0_SetInterruptHandler 0005                                            __Hparam 0000  
                                          __Lparam 0000                                            ___awdiv 23FA  
                                          ___awmod 2636                                          ?_vfprintf 002D  
                                     __psmallconst 2000                                            __pcinit 2ABA  
                                          __ramtop 2000                                            __ptext0 27FA  
                                          __ptext1 2A1A                                            __ptext2 2B68  
                                          __ptext3 2776                                            __ptext4 286A  
                                          __ptext5 28D6                                            __ptext6 2B82  
                                          __ptext7 298C                                            __ptext8 2062  
                                          __ptext9 2322          __end_of_UART2_DefaultOverrunErrorCallback 2C08  
              ??_UART2_DefaultOverrunErrorCallback 0001                 ?_UART2_DefaultOverrunErrorCallback 0001  
                _UART2_DefaultOverrunErrorCallback 2C06                                   ___awmod@dividend 0017  
                         ??_PIN_MANAGER_Initialize 0005                           __end_of_UART2_Initialize 2636  
                         __end_of_UART2_ReceiveISR 2322                               end_of_initialization 2ADE  
                         _INT2_SetInterruptHandler 2BDC                                          _U2UIRbits 3DE0  
        __end_of_UART2_ParityErrorCallbackRegister 2B06                ??_UART2_ParityErrorCallbackRegister 0008  
               ?_UART2_ParityErrorCallbackRegister 0005                  _UART2_ParityErrorCallbackRegister 2AE4  
                                          fputc@fp 000A                   _UART2_RxCompleteCallbackRegister 0000  
                               _UART2_Deinitialize 0000                                  __end_of_vfpfcnvrt 223E  
                                          postdec2 3FDD                                            postinc0 3FEE  
                                          postinc1 3FE6                                            postinc2 3FDE  
                                 vfpfcnvrt@convarg 0028                                         ??_vfprintf 0031  
                            _INT1_InterruptHandler 0045                                      _random_number 2776  
                              random_number@hi_num 0022                       __end_of_INTERRUPT_Initialize 2A1A  
                     _INT0_DefaultInterruptHandler 0000                                     __end_of___lmul 2940  
                                      vfpfcnvrt@ap 0024                                        vfpfcnvrt@cp 0027  
                                      vfpfcnvrt@fp 0021                                     ?_random_number 001D  
                                   __end_of_printf 2B9C                                start_initialization 2ABA  
                                      __end_of_abs 2A86                                        putch@txData 0007  
                                       ivt0x8_base 0008                                  _UART2_TransmitISR 2A86  
                                    _uart2RxBuffer 0090                                      _uart2TxBuffer 0098  
                               ?_UART2_TransmitISR 0001                                        vfprintf@fmt 002F  
                                         ??___lmul 000D                                ??_UART2_TransmitISR 0001  
                                UART2_Write@txData 0006                                           ??_printf 0035  
                                      __pbssCOMRAM 0036                   __end_of_INT0_SetInterruptHandler 2C06  
                        _UART2_FramingErrorHandler 003F                                      __pcstackBANK0 00A9  
                         _UART2_TxInterruptHandler 00A6                          __end_of_UART2_TransmitISR 2ABA  
                            _INT2_InterruptHandler 0042                                          __pnvBANK0 00A3  
                           _PIN_MANAGER_Initialize 24BE                                           ?___awdiv 0005  
                                         ?___awmod 0017                               _UART2_TransmitEnable 0000  
                                    ??_UART2_Write 0005                                    ??_random_number 0021  
                     ??_INTERRUPT_InterruptManager 0003                        UART2_TransmitISR@tempTxTail 0001  
                                      __smallconst 2000                         ??_INT2_SetInterruptHandler 0008  
                                ?_UART2_Initialize 0001                           _UART2_ParityErrorHandler 00A0  
                               ??_UART2_Initialize 0008                               _INTERRUPT_Initialize 29D4  
                                ?_UART2_ReceiveISR 0001                                   _uart2RxLastError 004F  
                                 _CLOCK_Initialize 2B9C                                        _U2ERRIRbits 3DE1  
                               ??_UART2_ReceiveISR 0001                          ?_INT1_SetInterruptHandler 0005  
                                         _PIE6bits 3996                                           i2u111_40 225E  
                                         i2u111_41 225A                                           i2u112_40 2282  
                                         i2u120_40 2710                                           i2u112_41 227E  
                                         i2u120_41 270C                                           i2u114_40 22AC  
                                         i2u113_48 2288                                           i2u122_40 273E  
                                         i2u121_48 2716                                           i2u114_41 22A8  
                                         i2u113_49 229C                                           i2u122_41 273A  
                                         i2u121_49 272C                                           i2u115_40 22D0  
                                         i2u123_40 274C                                           i2u115_41 22CC  
                                         i2u123_41 2748                                           i2u117_40 2308  
                                         i2u116_48 22D6                                           i2u124_48 2752  
                                         i2u117_41 2304                                           i2u116_49 22EA  
                                         i2u124_49 2768                                           i2u118_40 2A96  
                                         i2u118_41 2A92                                           i2u119_40 2702  
                                         i2u119_41 26FE                                           _PIR1bits 39A1  
                                         _PIR5bits 39A5                                           _PIR6bits 39A6  
                                         _PIR7bits 39A7                                          _vfpfcnvrt 2062  
                              __end_of_UART2_Write 298C                                         vfpfcnvrt@c 002C  
                                      _INTCON0bits 3FD2                                  ___lmul@multiplier 0005  
                            ?_INTERRUPT_Initialize 0001                           _INT0_SetInterruptHandler 2BF8  
                                     _uart2RxCount 0052                                           __Hrparam 0000  
                                       vfprintf@ap 0030                                           __Lrparam 0000  
                                       vfprintf@fp 002D                                         ?_vfpfcnvrt 0021  
                 _UART2_TxCompleteCallbackRegister 0000                                           __pivt0x8 0008  
                                         __ptext10 2B4A                                           __ptext11 2940  
                                         __ptext20 2B28                                           __ptext12 2BB4  
                                         __ptext21 24BE                                           __ptext13 2A52  
                                         __ptext30 2C06                                           __ptext22 29D4  
                                         __ptext14 2636                                           __ptext31 2C08  
                                         __ptext23 2BDC                                           __ptext15 23FA  
                                         __ptext24 2BEA                                           __ptext16 2BCA  
                                         __ptext25 2BF8                                           __ptext17 2582  
                                         __ptext26 2B9C                                           __ptext18 2AE4  
                                         __ptext27 26E6                                           __ptext19 2B06  
                                         __ptext28 2A86                                           __ptext29 223E  
                                ??_UART2_IsTxReady 0005                              UART2_Write@tempTxHead 0005  
                                       _U2CON0bits 3DDA                                         _U2CON1bits 3DDB  
                                         isa$xinst 0000                   _UART2_RxCompleteInterruptHandler 0036  
                                         _vfprintf 298C                 __end_of_INTERRUPT_InterruptManager 2776  
                       _INTERRUPT_InterruptManager 26E6                                          printf@fmt 0032  
                     _INT1_DefaultInterruptHandler 0000                                        _UART2_Write 2940  
                                      _uart2RxHead 0054                                        _uart2TxHead 0057  
                                      _uart2RxTail 0053                                        _uart2TxTail 0056  
                           ??_INTERRUPT_Initialize 0008                                           intlevel2 0000  
                          ?_PIN_MANAGER_Initialize 0001                                           printf@ap 0035  
                                       _UART2_Read 0000                                        ??_vfpfcnvrt 0025  
                           _uart2TxBufferRemaining 0055                           __end_of_CLOCK_Initialize 2BB4  
                         UART2_ReceiveISR@regValue 0001                   __end_of_INT1_SetInterruptHandler 2BF8  
                   __end_of_PIN_MANAGER_Initialize 2582                               random_number@max_num 001F  
                             random_number@min_num 001D                               random_number@low_num 0024  
