

Microchip MPLAB XC8 Assembler V2.46 build 20240104201356 
                                                                                               Wed May 01 21:41:38 2024

Microchip MPLAB XC8 C Compiler v2.46 (Free license) build 20240104201356 Og1 
     1                           	processor	18F47K42
     2                           	fnconf	rparam,??,?,0
     3                           	pagewidth 120
     4                           	opt	flic
     5                           	psect	smallconst,global,reloc=2,class=SMALLCONST,delta=1,noexec
     6                           	psect	cinit,global,reloc=2,class=CODE,delta=1
     7                           	psect	bssCOMRAM,global,class=COMRAM,space=1,delta=1,lowdata,noexec
     8                           	psect	bssBANK0,global,class=BANK0,space=1,delta=1,lowdata,noexec
     9                           	psect	cstackBANK0,global,class=BANK0,space=1,delta=1,lowdata,noexec
    10                           	psect	cstackCOMRAM,global,class=COMRAM,space=1,delta=1,lowdata,noexec
    11                           	psect	text0,global,reloc=2,class=CODE,delta=1
    12                           	psect	text1,global,reloc=2,class=CODE,delta=1,group=3
    13                           	psect	text2,global,reloc=2,class=CODE,delta=1,group=3
    14                           	psect	text3,global,reloc=2,class=CODE,delta=1,group=1
    15                           	psect	text4,global,reloc=2,class=CODE,delta=1,group=1
    16                           	psect	text5,global,reloc=2,class=CODE,delta=1,group=1
    17                           	psect	text6,global,reloc=2,class=CODE,delta=1,group=2
    18                           	psect	text7,global,reloc=2,class=CODE,delta=1,group=1
    19                           	psect	text8,global,reloc=2,class=CODE,delta=1,group=3
    20                           	psect	text9,global,reloc=2,class=CODE,delta=1,group=1
    21                           	psect	text10,global,reloc=2,class=CODE,delta=1,group=3
    22                           	psect	text11,global,reloc=2,class=CODE,delta=1,group=3
    23                           	psect	text12,global,reloc=2,class=CODE,delta=1,group=3
    24                           	psect	text13,global,reloc=2,class=CODE,delta=1,group=3
    25                           	psect	text14,global,reloc=2,class=CODE,delta=1,group=3
    26                           	psect	text15,global,reloc=2,class=CODE,delta=1,group=3
    27                           	psect	text16,global,reloc=2,class=CODE,delta=1,group=3
    28                           	psect	text17,global,reloc=2,class=CODE,delta=1,group=2
    29                           	psect	text18,global,reloc=2,class=CODE,delta=1,group=2
    30                           	psect	text19,global,reloc=2,class=CODE,delta=1,group=2
    31                           	psect	text20,global,reloc=2,class=CODE,delta=1,group=2
    32                           	psect	text21,global,reloc=2,class=CODE,delta=1,group=2
    33                           	psect	text22,global,reloc=2,class=CODE,delta=1,group=2
    34                           	psect	text23,global,reloc=2,class=CODE,delta=1,group=2
    35                           	psect	text24,global,reloc=2,class=CODE,delta=1,group=2
    36                           	psect	text25,global,reloc=2,class=CODE,delta=1,group=2
    37                           	psect	text26,global,reloc=2,class=CODE,delta=1
    38                           	psect	text27,global,reloc=2,class=CODE,delta=1
    39                           	psect	text28,global,reloc=2,class=CODE,delta=1
    40                           	psect	text29,global,reloc=2,class=CODE,delta=1
    41                           	psect	text30,global,reloc=2,class=CODE,delta=1
    42                           	psect	text31,global,reloc=2,class=CODE,delta=1
    43                           	psect	text32,global,reloc=2,class=CODE,delta=1
    44                           	psect	text33,global,reloc=2,class=CODE,delta=1
    45                           	psect	intsave_regs,global,class=BIGRAM,space=1,delta=1,noexec
    46                           	psect	rparam,global,class=COMRAM,space=1,delta=1,noexec
    47                           	psect	config,global,abs,ovrld,class=CONFIG,space=4,delta=1,noexec
    48   000000                     
    49                           ; Generated 12/10/2023 GMT
    50                           ; 
    51                           ; Copyright © 2023, Microchip Technology Inc. and its subsidiaries ("Microchip")
    52                           ; All rights reserved.
    53                           ; 
    54                           ; This software is developed by Microchip Technology Inc. and its subsidiaries ("Microch
      +                          ip").
    55                           ; 
    56                           ; Redistribution and use in source and binary forms, with or without modification, are
    57                           ; permitted provided that the following conditions are met:
    58                           ; 
    59                           ;     1. Redistributions of source code must retain the above copyright notice, this lis
      +                          t of
    60                           ;        conditions and the following disclaimer.
    61                           ; 
    62                           ;     2. Redistributions in binary form must reproduce the above copyright notice, this 
      +                          list
    63                           ;        of conditions and the following disclaimer in the documentation and/or other
    64                           ;        materials provided with the distribution. Publication is not required when
    65                           ;        this file is used in an embedded application.
    66                           ; 
    67                           ;     3. Microchip's name may not be used to endorse or promote products derived from th
      +                          is
    68                           ;        software without specific prior written permission.
    69                           ; 
    70                           ; THIS SOFTWARE IS PROVIDED BY MICROCHIP "AS IS" AND ANY EXPRESS OR IMPLIED WARRANTIES,
    71                           ; INCLUDING, BUT NOT LIMITED TO, THE IMPLIED WARRANTIES OF MERCHANTABILITY AND FITNESS F
      +                          OR
    72                           ; PURPOSE ARE DISCLAIMED.  IN NO EVENT SHALL MICROCHIP BE LIABLE FOR ANY DIRECT, INDIREC
      +                          T,
    73                           ; INCIDENTAL, SPECIAL, EXEMPLARY, OR CONSEQUENTIAL DAMAGES (INCLUDING BUT NOT LIMITED TO
    74                           ; PROCUREMENT OF SUBSTITUTE GOODS OR SERVICES; LOSS OF USE, DATA OR PROFITS; OR BUSINESS
    75                           ; INTERRUPTION) HOWSOEVER CAUSED AND ON ANY THEORY OF LIABILITY, WHETHER IN CONTRACT, ST
      +                          RICT
    76                           ; LIABILITY, OR TORT (INCLUDING NEGLIGENCE OR OTHERWISE) ARISING IN ANY WAY OUT OF THE U
      +                          SE OF
    77                           ; THIS SOFTWARE, EVEN IF ADVISED OF THE POSSIBILITY OF SUCH DAMAGE.
    78                           ; 
    79                           ; 
    80                           ; Code-generator required, PIC18F47K42 Definitions
    81                           ; 
    82                           ; SFR Addresses
    83   000000                     _ADPREH	set	16119
    84   000000                     _LATD1	set	130537
    85   000000                     _ANSELAbits	set	14912
    86   000000                     _ADRESL	set	16111
    87   000000                     _ADRESH	set	16112
    88   000000                     _ADCON0bits	set	16120
    89   000000                     _ADCLK	set	16127
    90   000000                     _LATB	set	16315
    91   000000                     _TRISB	set	16323
    92   000000                     _ADACQL	set	16115
    93   000000                     _ADPREL	set	16118
    94   000000                     _ADPCH	set	16113
    95   000000                     _TRISD	set	16325
    96   000000                     _LATD0	set	130536
    97   000000                     _TRISAbits	set	16322
    98   000000                     _ADACQH	set	16116
    99                           
   100                           	psect	smallconst
   101   002000                     __psmallconst:
   102                           	callstack 0
   103   002000  00                 	db	0
   104   002001                     STR_3:
   105                           
   106                           ; BSR set to: 62
   107   002001  49                 	db	73	;'I'
   108   002002  6E                 	db	110	;'n'
   109   002003  70                 	db	112	;'p'
   110   002004  75                 	db	117	;'u'
   111   002005  74                 	db	116	;'t'
   112   002006  20                 	db	32
   113   002007  56                 	db	86	;'V'
   114   002008  6F                 	db	111	;'o'
   115   002009  6C                 	db	108	;'l'
   116   00200A  74                 	db	116	;'t'
   117   00200B  61                 	db	97	;'a'
   118   00200C  67                 	db	103	;'g'
   119   00200D  65                 	db	101	;'e'
   120   00200E  3A                 	db	58	;':'
   121   00200F  00                 	db	0
   122   002010                     STR_1:
   123                           
   124                           ; BSR set to: 62
   125   002010  25                 	db	37
   126   002011  2E                 	db	46
   127   002012  33                 	db	51	;'3'
   128   002013  66                 	db	102	;'f'
   129   002014  00                 	db	0
   130   002015                     STR_4:
   131                           
   132                           ; BSR set to: 62
   133   002015  69                 	db	105	;'i'
   134   002016  6E                 	db	110	;'n'
   135   002017  66                 	db	102	;'f'
   136   002018  00                 	db	0
   137   002019                     STR_7:
   138                           
   139                           ; BSR set to: 62
   140   002019  6E                 	db	110	;'n'
   141   00201A  61                 	db	97	;'a'
   142   00201B  6E                 	db	110	;'n'
   143   00201C  00                 	db	0
   144   00201D                     STR_2:
   145                           
   146                           ; BSR set to: 62
   147   00201D  20                 	db	32
   148   00201E  56                 	db	86	;'V'
   149   00201F  00                 	db	0
   150   002020  00                 	db	0	; dummy byte at the end
   151   000000                     
   152                           ; #config settings
   153                           
   154                           	psect	cinit
   155   0046CA                     __pcinit:
   156                           	callstack 0
   157   0046CA                     start_initialization:
   158                           	callstack 0
   159   0046CA                     __initialization:
   160                           	callstack 0
   161                           
   162                           ; Clear objects allocated to BANK0 (108 bytes)
   163   0046CA  EE00  F060         	lfsr	0,__pbssBANK0
   164   0046CE  0E6C               	movlw	108
   165   0046D0                     clear_0:
   166   0046D0  6AEE               	clrf	postinc0,c
   167   0046D2  06E8               	decf	wreg,f,c
   168   0046D4  E1FD               	bnz	clear_0
   169                           
   170                           ; Clear objects allocated to COMRAM (1 bytes)
   171   0046D6  6A5E               	clrf	__pbssCOMRAM& (0+255),c
   172   0046D8                     end_of_initialization:
   173                           	callstack 0
   174   0046D8                     __end_of__initialization:
   175                           	callstack 0
   176   0046D8  0100               	movlb	0
   177   0046DA  EFA9  F01F         	goto	_main	;jump to C main() function
   178                           
   179                           	psect	bssCOMRAM
   180   00005E                     __pbssCOMRAM:
   181                           	callstack 0
   182   00005E                     _flags:
   183                           	callstack 0
   184   00005E                     	ds	1
   185                           
   186                           	psect	bssBANK0
   187   000060                     __pbssBANK0:
   188                           	callstack 0
   189   000060                     floorf@F521:
   190                           	callstack 0
   191   000060                     	ds	4
   192   000064                     ___fpclassifyf@F465:
   193                           	callstack 0
   194   000064                     	ds	4
   195   000068                     _voltage:
   196                           	callstack 0
   197   000068                     	ds	4
   198   00006C                     _width:
   199                           	callstack 0
   200   00006C                     	ds	2
   201   00006E                     _prec:
   202                           	callstack 0
   203   00006E                     	ds	2
   204   000070                     _digital:
   205                           	callstack 0
   206   000070                     	ds	2
   207   000072                     _dbuf:
   208                           	callstack 0
   209   000072                     	ds	80
   210   0000C2                     _data:
   211                           	callstack 0
   212   0000C2                     	ds	10
   213                           
   214                           	psect	cstackBANK0
   215   0000CC                     __pcstackBANK0:
   216                           	callstack 0
   217   0000CC                     efgtoa@ne:
   218                           	callstack 0
   219                           
   220                           ; 2 bytes @ 0x0
   221   0000CC                     	ds	2
   222   0000CE                     efgtoa@p:
   223                           	callstack 0
   224                           
   225                           ; 2 bytes @ 0x2
   226   0000CE                     	ds	2
   227   0000D0                     efgtoa@t:
   228                           	callstack 0
   229                           
   230                           ; 2 bytes @ 0x4
   231   0000D0                     	ds	2
   232   0000D2                     _efgtoa$802:
   233                           	callstack 0
   234                           
   235                           ; 2 bytes @ 0x6
   236   0000D2                     	ds	2
   237   0000D4                     efgtoa@pp:
   238                           	callstack 0
   239                           
   240                           ; 1 bytes @ 0x8
   241   0000D4                     	ds	1
   242   0000D5                     efgtoa@mode:
   243                           	callstack 0
   244                           
   245                           ; 1 bytes @ 0x9
   246   0000D5                     	ds	1
   247   0000D6                     efgtoa@nmode:
   248                           	callstack 0
   249                           
   250                           ; 1 bytes @ 0xA
   251   0000D6                     	ds	1
   252   0000D7                     efgtoa@d:
   253                           	callstack 0
   254                           
   255                           ; 2 bytes @ 0xB
   256   0000D7                     	ds	2
   257   0000D9                     efgtoa@m:
   258                           	callstack 0
   259                           
   260                           ; 2 bytes @ 0xD
   261   0000D9                     	ds	2
   262   0000DB                     efgtoa@e:
   263                           	callstack 0
   264                           
   265                           ; 2 bytes @ 0xF
   266   0000DB                     	ds	2
   267   0000DD                     efgtoa@w:
   268                           	callstack 0
   269                           
   270                           ; 2 bytes @ 0x11
   271   0000DD                     	ds	2
   272   0000DF                     efgtoa@ou:
   273                           	callstack 0
   274                           
   275                           ; 4 bytes @ 0x13
   276   0000DF                     	ds	4
   277   0000E3                     efgtoa@i:
   278                           	callstack 0
   279                           
   280                           ; 2 bytes @ 0x17
   281   0000E3                     	ds	2
   282   0000E5                     efgtoa@h:
   283                           	callstack 0
   284                           
   285                           ; 4 bytes @ 0x19
   286   0000E5                     	ds	4
   287   0000E9                     efgtoa@l:
   288                           	callstack 0
   289                           
   290                           ; 4 bytes @ 0x1D
   291   0000E9                     	ds	4
   292   0000ED                     efgtoa@sign:
   293                           	callstack 0
   294                           
   295                           ; 1 bytes @ 0x21
   296   0000ED                     	ds	1
   297   0000EE                     efgtoa@n:
   298                           	callstack 0
   299                           
   300                           ; 2 bytes @ 0x22
   301   0000EE                     	ds	2
   302   0000F0                     efgtoa@g:
   303                           	callstack 0
   304                           
   305                           ; 4 bytes @ 0x24
   306   0000F0                     	ds	4
   307   0000F4                     efgtoa@u:
   308                           	callstack 0
   309                           
   310                           ; 4 bytes @ 0x28
   311   0000F4                     	ds	4
   312   0000F8                     ?_sprintf:
   313                           	callstack 0
   314   0000F8                     sprintf@s:
   315                           	callstack 0
   316                           
   317                           ; 1 bytes @ 0x2C
   318   0000F8                     	ds	1
   319   0000F9                     sprintf@fmt:
   320                           	callstack 0
   321                           
   322                           ; 1 bytes @ 0x2D
   323   0000F9                     	ds	5
   324                           
   325                           	psect	cstackCOMRAM
   326   000001                     __pcstackCOMRAM:
   327                           	callstack 0
   328   000001                     ?___fpclassifyf:
   329                           	callstack 0
   330   000001                     ?___wmul:
   331                           	callstack 0
   332   000001                     ?___fladd:
   333                           	callstack 0
   334   000001                     ?___fldiv:
   335                           	callstack 0
   336   000001                     ?_labs:
   337                           	callstack 0
   338   000001                     ?___flneg:
   339                           	callstack 0
   340   000001                     ?___fltol:
   341                           	callstack 0
   342   000001                     ?___xxtofl:
   343                           	callstack 0
   344   000001                     memcpy@d1:
   345                           	callstack 0
   346   000001                     strcat@dest:
   347                           	callstack 0
   348   000001                     strcpy@dest:
   349                           	callstack 0
   350   000001                     MSdelay@val:
   351                           	callstack 0
   352   000001                     ___wmul@multiplier:
   353                           	callstack 0
   354   000001                     fputc@c:
   355                           	callstack 0
   356   000001                     ___fleq@ff1:
   357                           	callstack 0
   358   000001                     ___flneg@f1:
   359                           	callstack 0
   360   000001                     ___fltol@f1:
   361                           	callstack 0
   362   000001                     ___fladd@b:
   363                           	callstack 0
   364   000001                     ___fldiv@b:
   365                           	callstack 0
   366   000001                     ___xxtofl@val:
   367                           	callstack 0
   368   000001                     ___fpclassifyf@x:
   369                           	callstack 0
   370   000001                     labs@a:
   371                           	callstack 0
   372                           
   373                           ; 4 bytes @ 0x0
   374   000001                     	ds	1
   375   000002                     memcpy@s1:
   376                           	callstack 0
   377   000002                     strcat@src:
   378                           	callstack 0
   379   000002                     strcpy@src:
   380                           	callstack 0
   381                           
   382                           ; 1 bytes @ 0x1
   383   000002                     	ds	1
   384   000003                     ??_strcpy:
   385   000003                     fputc@fp:
   386                           	callstack 0
   387   000003                     MSdelay@i:
   388                           	callstack 0
   389   000003                     ___wmul@multiplicand:
   390                           	callstack 0
   391   000003                     memcpy@n:
   392                           	callstack 0
   393   000003                     strcat@i:
   394                           	callstack 0
   395                           
   396                           ; 2 bytes @ 0x2
   397   000003                     	ds	1
   398   000004                     ??_fputc:
   399   000004                     strcpy@d:
   400                           	callstack 0
   401                           
   402                           ; 1 bytes @ 0x3
   403   000004                     	ds	1
   404   000005                     ??___fpclassifyf:
   405   000005                     ??_labs:
   406   000005                     ??___fltol:
   407   000005                     ??___xxtofl:
   408   000005                     memcpy@tmp:
   409                           	callstack 0
   410   000005                     MSdelay@j:
   411                           	callstack 0
   412   000005                     ___wmul@product:
   413                           	callstack 0
   414   000005                     ___fleq@ff2:
   415                           	callstack 0
   416   000005                     ___fladd@a:
   417                           	callstack 0
   418   000005                     ___fldiv@a:
   419                           	callstack 0
   420                           
   421                           ; 4 bytes @ 0x4
   422   000005                     	ds	1
   423   000006                     memcpy@d:
   424                           	callstack 0
   425                           
   426                           ; 1 bytes @ 0x5
   427   000006                     	ds	1
   428   000007                     ?_read_prec_or_width:
   429                           	callstack 0
   430   000007                     LCD_Command@cmd:
   431                           	callstack 0
   432   000007                     LCD_Char@dat:
   433                           	callstack 0
   434   000007                     read_prec_or_width@fmt:
   435                           	callstack 0
   436   000007                     memcpy@s:
   437                           	callstack 0
   438                           
   439                           ; 1 bytes @ 0x6
   440   000007                     	ds	1
   441   000008                     read_prec_or_width@ap:
   442                           	callstack 0
   443   000008                     LCD_String@msg:
   444                           	callstack 0
   445                           
   446                           ; 2 bytes @ 0x7
   447   000008                     	ds	1
   448   000009                     ??___fladd:
   449   000009                     ??___fldiv:
   450   000009                     ??___fleq:
   451   000009                     ___fltol@sign1:
   452                           	callstack 0
   453   000009                     ___xxtofl@sign:
   454                           	callstack 0
   455   000009                     read_prec_or_width@c:
   456                           	callstack 0
   457   000009                     fputs@s:
   458                           	callstack 0
   459   000009                     ___fpclassifyf@e:
   460                           	callstack 0
   461                           
   462                           ; 2 bytes @ 0x8
   463   000009                     	ds	1
   464   00000A                     LCD_String_xy@pos:
   465                           	callstack 0
   466   00000A                     ___fltol@exp1:
   467                           	callstack 0
   468   00000A                     ___xxtofl@exp:
   469                           	callstack 0
   470   00000A                     fputs@fp:
   471                           	callstack 0
   472   00000A                     read_prec_or_width@n:
   473                           	callstack 0
   474                           
   475                           ; 2 bytes @ 0x9
   476   00000A                     	ds	1
   477   00000B                     fputs@c:
   478                           	callstack 0
   479   00000B                     LCD_String_xy@msg:
   480                           	callstack 0
   481   00000B                     ___xxtofl@arg:
   482                           	callstack 0
   483   00000B                     ___fpclassifyf@u:
   484                           	callstack 0
   485                           
   486                           ; 4 bytes @ 0xA
   487   00000B                     	ds	1
   488   00000C                     fputs@i:
   489                           	callstack 0
   490                           
   491                           ; 2 bytes @ 0xB
   492   00000C                     	ds	1
   493   00000D                     LCD_String_xy@row:
   494                           	callstack 0
   495   00000D                     ___fladd@signs:
   496                           	callstack 0
   497   00000D                     ___fldiv@rem:
   498                           	callstack 0
   499                           
   500                           ; 4 bytes @ 0xC
   501   00000D                     	ds	1
   502   00000E                     LCD_String_xy@location:
   503                           	callstack 0
   504   00000E                     ___fladd@aexp:
   505                           	callstack 0
   506   00000E                     pad@fp:
   507                           	callstack 0
   508                           
   509                           ; 1 bytes @ 0xD
   510   00000E                     	ds	1
   511   00000F                     ?___flmul:
   512                           	callstack 0
   513   00000F                     ___fladd@bexp:
   514                           	callstack 0
   515   00000F                     pad@buf:
   516                           	callstack 0
   517   00000F                     ___flmul@b:
   518                           	callstack 0
   519                           
   520                           ; 4 bytes @ 0xE
   521   00000F                     	ds	1
   522   000010                     ___fladd@grs:
   523                           	callstack 0
   524   000010                     pad@p:
   525                           	callstack 0
   526                           
   527                           ; 2 bytes @ 0xF
   528   000010                     	ds	1
   529   000011                     ___fldiv@sign:
   530                           	callstack 0
   531                           
   532                           ; 1 bytes @ 0x10
   533   000011                     	ds	1
   534   000012                     ??_pad:
   535   000012                     ___fldiv@new_exp:
   536                           	callstack 0
   537                           
   538                           ; 2 bytes @ 0x11
   539   000012                     	ds	1
   540   000013                     pad@i:
   541                           	callstack 0
   542   000013                     ___flmul@a:
   543                           	callstack 0
   544                           
   545                           ; 4 bytes @ 0x12
   546   000013                     	ds	1
   547   000014                     ___fldiv@grs:
   548                           	callstack 0
   549                           
   550                           ; 4 bytes @ 0x13
   551   000014                     	ds	3
   552   000017                     ??___flmul:
   553                           
   554                           ; 1 bytes @ 0x16
   555   000017                     	ds	1
   556   000018                     ___fldiv@bexp:
   557                           	callstack 0
   558                           
   559                           ; 1 bytes @ 0x17
   560   000018                     	ds	1
   561   000019                     ___fldiv@aexp:
   562                           	callstack 0
   563                           
   564                           ; 1 bytes @ 0x18
   565   000019                     	ds	1
   566   00001A                     ?_floorf:
   567                           	callstack 0
   568   00001A                     floorf@x:
   569                           	callstack 0
   570                           
   571                           ; 4 bytes @ 0x19
   572   00001A                     	ds	1
   573   00001B                     ___flmul@sign:
   574                           	callstack 0
   575                           
   576                           ; 1 bytes @ 0x1A
   577   00001B                     	ds	1
   578   00001C                     ___flmul@grs:
   579                           	callstack 0
   580                           
   581                           ; 4 bytes @ 0x1B
   582   00001C                     	ds	2
   583   00001E                     ??_floorf:
   584                           
   585                           ; 1 bytes @ 0x1D
   586   00001E                     	ds	2
   587   000020                     ___flmul@aexp:
   588                           	callstack 0
   589                           
   590                           ; 1 bytes @ 0x1F
   591   000020                     	ds	1
   592   000021                     ___flmul@bexp:
   593                           	callstack 0
   594                           
   595                           ; 1 bytes @ 0x20
   596   000021                     	ds	1
   597   000022                     ___flmul@prod:
   598                           	callstack 0
   599                           
   600                           ; 4 bytes @ 0x21
   601   000022                     	ds	2
   602   000024                     floorf@m:
   603                           	callstack 0
   604                           
   605                           ; 4 bytes @ 0x23
   606   000024                     	ds	2
   607   000026                     ___flmul@temp:
   608                           	callstack 0
   609                           
   610                           ; 2 bytes @ 0x25
   611   000026                     	ds	2
   612   000028                     ?___flsub:
   613                           	callstack 0
   614   000028                     floorf@e:
   615                           	callstack 0
   616   000028                     ___flge@ff1:
   617                           	callstack 0
   618   000028                     ___flsub@b:
   619                           	callstack 0
   620                           
   621                           ; 4 bytes @ 0x27
   622   000028                     	ds	2
   623   00002A                     floorf@u:
   624                           	callstack 0
   625                           
   626                           ; 4 bytes @ 0x29
   627   00002A                     	ds	2
   628   00002C                     ___flge@ff2:
   629                           	callstack 0
   630   00002C                     ___flsub@a:
   631                           	callstack 0
   632                           
   633                           ; 4 bytes @ 0x2B
   634   00002C                     	ds	4
   635   000030                     ??___flge:
   636                           
   637                           ; 1 bytes @ 0x2F
   638   000030                     	ds	4
   639   000034                     efgtoa@fp:
   640                           	callstack 0
   641                           
   642                           ; 1 bytes @ 0x33
   643   000034                     	ds	1
   644   000035                     efgtoa@f:
   645                           	callstack 0
   646                           
   647                           ; 4 bytes @ 0x34
   648   000035                     	ds	4
   649   000039                     efgtoa@c:
   650                           	callstack 0
   651                           
   652                           ; 1 bytes @ 0x38
   653   000039                     	ds	1
   654   00003A                     ??_efgtoa:
   655                           
   656                           ; 1 bytes @ 0x39
   657   00003A                     	ds	1
   658   00003B                     vfpfcnvrt@fp:
   659                           	callstack 0
   660                           
   661                           ; 1 bytes @ 0x3A
   662   00003B                     	ds	1
   663   00003C                     vfpfcnvrt@fmt:
   664                           	callstack 0
   665                           
   666                           ; 1 bytes @ 0x3B
   667   00003C                     	ds	1
   668   00003D                     vfpfcnvrt@ap:
   669                           	callstack 0
   670                           
   671                           ; 1 bytes @ 0x3C
   672   00003D                     	ds	1
   673   00003E                     ??_vfpfcnvrt:
   674                           
   675                           ; 1 bytes @ 0x3D
   676   00003E                     	ds	1
   677   00003F                     vfpfcnvrt@convarg:
   678                           	callstack 0
   679                           
   680                           ; 4 bytes @ 0x3E
   681   00003F                     	ds	4
   682   000043                     vfpfcnvrt@c:
   683                           	callstack 0
   684                           
   685                           ; 1 bytes @ 0x42
   686   000043                     	ds	1
   687   000044                     vfpfcnvrt@cp:
   688                           	callstack 0
   689                           
   690                           ; 1 bytes @ 0x43
   691   000044                     	ds	1
   692   000045                     ?_vfprintf:
   693                           	callstack 0
   694   000045                     vfprintf@fp:
   695                           	callstack 0
   696                           
   697                           ; 1 bytes @ 0x44
   698   000045                     	ds	1
   699   000046                     vfprintf@fmt:
   700                           	callstack 0
   701                           
   702                           ; 1 bytes @ 0x45
   703   000046                     	ds	1
   704   000047                     vfprintf@ap:
   705                           	callstack 0
   706                           
   707                           ; 1 bytes @ 0x46
   708   000047                     	ds	1
   709   000048                     vfprintf@cfmt:
   710                           	callstack 0
   711                           
   712                           ; 1 bytes @ 0x47
   713   000048                     	ds	1
   714   000049                     sprintf@ap:
   715                           	callstack 0
   716                           
   717                           ; 1 bytes @ 0x48
   718   000049                     	ds	1
   719   00004A                     sprintf@f:
   720                           	callstack 0
   721                           
   722                           ; 12 bytes @ 0x49
   723   00004A                     	ds	12
   724   000056                     ??_main:
   725                           
   726                           ; 1 bytes @ 0x55
   727   000056                     	ds	2
   728   000058                     main@voltage:
   729                           	callstack 0
   730                           
   731                           ; 4 bytes @ 0x57
   732   000058                     	ds	4
   733   00005C                     main@digital:
   734                           	callstack 0
   735                           
   736                           ; 2 bytes @ 0x5B
   737   00005C                     	ds	2
   738                           
   739 ;;
   740 ;;Main: autosize = 0, tempsize = 2, incstack = 0, save=0
   741 ;;
   742 ;; *************** function _main *****************
   743 ;; Defined at:
   744 ;;		line 97 in file "main.c"
   745 ;; Parameters:    Size  Location     Type
   746 ;;		None
   747 ;; Auto vars:     Size  Location     Type
   748 ;;  voltage         4   87[COMRAM] float 
   749 ;;  digital         2   91[COMRAM] int 
   750 ;;  lux             4    0        float 
   751 ;; Return value:  Size  Location     Type
   752 ;;                  1    wreg      void 
   753 ;; Registers used:
   754 ;;		wreg, fsr1l, fsr1h, fsr2l, fsr2h, status,2, status,0, tblptrl, tblptrh, tblptru, prodl, prodh, cstack
   755 ;; Tracked objects:
   756 ;;		On entry : 0/0
   757 ;;		On exit  : 0/0
   758 ;;		Unchanged: 0/0
   759 ;; Data sizes:     COMRAM   BANK0   BANK1   BANK2   BANK3   BANK4   BANK5   BANK6   BANK7   BANK8   BANK9  BANK10  BANK1
      +1  BANK12  BANK13  BANK14  BANK15  BANK16  BANK17  BANK18  BANK19  BANK20  BANK21  BANK22  BANK23  BANK24  BANK25  BANK2
      +6  BANK27  BANK28  BANK29  BANK30  BANK31
   760 ;;      Params:         0       0       0       0       0       0       0       0       0       0       0       0       
      +0       0       0       0       0       0       0       0       0       0       0       0       0       0       0       
      +0       0       0       0       0       0
   761 ;;      Locals:         6       0       0       0       0       0       0       0       0       0       0       0       
      +0       0       0       0       0       0       0       0       0       0       0       0       0       0       0       
      +0       0       0       0       0       0
   762 ;;      Temps:          2       0       0       0       0       0       0       0       0       0       0       0       
      +0       0       0       0       0       0       0       0       0       0       0       0       0       0       0       
      +0       0       0       0       0       0
   763 ;;      Totals:         8       0       0       0       0       0       0       0       0       0       0       0       
      +0       0       0       0       0       0       0       0       0       0       0       0       0       0       0       
      +0       0       0       0       0       0
   764 ;;Total ram usage:        8 bytes
   765 ;; Hardware stack levels required when called: 8
   766 ;; This function calls:
   767 ;;		_ADC_Init
   768 ;;		_LCD_Clear
   769 ;;		_LCD_Init
   770 ;;		_LCD_String_xy
   771 ;;		___flmul
   772 ;;		___xxtofl
   773 ;;		_sprintf
   774 ;;		_strcat
   775 ;; This function is called by:
   776 ;;		Startup code after reset
   777 ;; This function uses a non-reentrant model
   778 ;;
   779                           
   780                           	psect	text0
   781   003F52                     __ptext0:
   782                           	callstack 0
   783   003F52                     _main:
   784                           	callstack 23
   785   003F52                     
   786                           ;main.c: 101:     LCD_Init();
   787   003F52  EC1B  F023         	call	_LCD_Init	;wreg free
   788   003F56                     
   789                           ;main.c: 102:     ADC_Init();
   790   003F56  ECE4  F022         	call	_ADC_Init	;wreg free
   791   003F5A                     
   792                           ;main.c: 103:     LCD_Clear();
   793   003F5A  EC6F  F023         	call	_LCD_Clear	;wreg free
   794   003F5E                     l3267:
   795                           
   796                           ;main.c: 107:         ADCON0bits.GO = 1;
   797   003F5E  013E               	movlb	62	; () banked
   798   003F60  81F8               	bsf	248,0,b	;volatile
   799   003F62                     l62:
   800                           
   801                           ; BSR set to: 62
   802   003F62  B1F8               	btfsc	248,0,b	;volatile
   803   003F64  EFB6  F01F         	goto	u3621
   804   003F68  EFB8  F01F         	goto	u3620
   805   003F6C                     u3621:
   806   003F6C  EFB1  F01F         	goto	l62
   807   003F70                     u3620:
   808   003F70                     
   809                           ; BSR set to: 62
   810                           ;main.c: 110:         int digital = (ADRESH*256) | (ADRESL);
   811   003F70  51EF               	movf	239,w,b	;volatile
   812   003F72  006F FBC0  F056    	movff	16112,??_main	;volatile
   813   003F78  6A57               	clrf	(??_main+1)^0,c
   814   003F7A  C056  F057         	movff	??_main,??_main+1
   815   003F7E  6A56               	clrf	??_main^0,c
   816   003F80  1056               	iorwf	??_main^0,w,c
   817   003F82  6E5C               	movwf	main@digital^0,c
   818   003F84  5057               	movf	(??_main+1)^0,w,c
   819   003F86  6E5D               	movwf	(main@digital+1)^0,c
   820   003F88                     
   821                           ; BSR set to: 62
   822                           ;main.c: 111:         float voltage = (float)digital * ((float)5/4096);
   823   003F88  C05C  F001         	movff	main@digital,___xxtofl@val
   824   003F8C  C05D  F002         	movff	main@digital+1,___xxtofl@val+1
   825   003F90  0E00               	movlw	0
   826   003F92  BE02               	btfsc	(___xxtofl@val+1)^0,7,c
   827   003F94  0EFF               	movlw	-1
   828   003F96  6E03               	movwf	(___xxtofl@val+2)^0,c
   829   003F98  6E04               	movwf	(___xxtofl@val+3)^0,c
   830   003F9A  0E01               	movlw	1
   831   003F9C  EC4B  F01D         	call	___xxtofl
   832   003FA0  C001  F00F         	movff	?___xxtofl,___flmul@b
   833   003FA4  C002  F010         	movff	?___xxtofl+1,___flmul@b+1
   834   003FA8  C003  F011         	movff	?___xxtofl+2,___flmul@b+2
   835   003FAC  C004  F012         	movff	?___xxtofl+3,___flmul@b+3
   836   003FB0  0E00               	movlw	0
   837   003FB2  6E13               	movwf	___flmul@a^0,c
   838   003FB4  0E00               	movlw	0
   839   003FB6  6E14               	movwf	(___flmul@a+1)^0,c
   840   003FB8  0EA0               	movlw	160
   841   003FBA  6E15               	movwf	(___flmul@a+2)^0,c
   842   003FBC  0E3A               	movlw	58
   843   003FBE  6E16               	movwf	(___flmul@a+3)^0,c
   844   003FC0  EC45  F017         	call	___flmul	;wreg free
   845   003FC4  C00F  F058         	movff	?___flmul,main@voltage
   846   003FC8  C010  F059         	movff	?___flmul+1,main@voltage+1
   847   003FCC  C011  F05A         	movff	?___flmul+2,main@voltage+2
   848   003FD0  C012  F05B         	movff	?___flmul+3,main@voltage+3
   849   003FD4                     
   850                           ;main.c: 118:         sprintf(data,"%.3f",voltage);
   851   003FD4  0EC2               	movlw	low _data
   852   003FD6  0100               	movlb	0	; () banked
   853   003FD8  6FF8               	movwf	sprintf@s& (0+255),b
   854   003FDA  0E10               	movlw	low STR_1
   855   003FDC  6FF9               	movwf	sprintf@fmt& (0+255),b
   856   003FDE  C058  F0FA         	movff	main@voltage,?_sprintf+2
   857   003FE2  C059  F0FB         	movff	main@voltage+1,?_sprintf+3
   858   003FE6  C05A  F0FC         	movff	main@voltage+2,?_sprintf+4
   859   003FEA  C05B  F0FD         	movff	main@voltage+3,?_sprintf+5
   860   003FEE  EC00  F023         	call	_sprintf	;wreg free
   861   003FF2                     
   862                           ;main.c: 119:         strcat(data," V");
   863   003FF2  0EC2               	movlw	low _data
   864   003FF4  6E01               	movwf	strcat@dest^0,c
   865   003FF6  0E1D               	movlw	low STR_2
   866   003FF8  6E02               	movwf	strcat@src^0,c
   867   003FFA  EC55  F021         	call	_strcat	;wreg free
   868   003FFE                     
   869                           ;main.c: 120:         LCD_String_xy(2,4,data);
   870   003FFE  0E04               	movlw	4
   871   004000  6E0A               	movwf	LCD_String_xy@pos^0,c
   872   004002  0EC2               	movlw	low _data
   873   004004  6E0B               	movwf	LCD_String_xy@msg^0,c
   874   004006  6A0C               	clrf	(LCD_String_xy@msg+1)^0,c
   875   004008  0E02               	movlw	2
   876   00400A  EC6D  F022         	call	_LCD_String_xy
   877   00400E                     
   878                           ;main.c: 121:         LCD_String_xy(1,0,"Input Voltage:");
   879   00400E  0E00               	movlw	0
   880   004010  6E0A               	movwf	LCD_String_xy@pos^0,c
   881   004012  0E01               	movlw	low STR_3
   882   004014  6E0B               	movwf	LCD_String_xy@msg^0,c
   883   004016  500B               	movf	LCD_String_xy@msg^0,w,c
   884   004018  A4D8               	btfss	status,2,c
   885   00401A  0E20               	movlw	high __smallconst
   886   00401C  6E0C               	movwf	(LCD_String_xy@msg+1)^0,c
   887   00401E  0E01               	movlw	1
   888   004020  EC6D  F022         	call	_LCD_String_xy
   889   004024  EFAF  F01F         	goto	l3267
   890   004028  EFFE  F0FF         	goto	start
   891   00402C                     __end_of_main:
   892                           	callstack 0
   893                           
   894 ;; *************** function _strcat *****************
   895 ;; Defined at:
   896 ;;		line 3 in file "C:\Program Files\Microchip\xc8\v2.46\pic\sources\c99\common\strcat.c"
   897 ;; Parameters:    Size  Location     Type
   898 ;;  dest            1    0[COMRAM] PTR unsigned char 
   899 ;;		 -> data(10), 
   900 ;;  src             1    1[COMRAM] PTR const unsigned char 
   901 ;;		 -> STR_2(3), 
   902 ;; Auto vars:     Size  Location     Type
   903 ;;  i               2    2[COMRAM] unsigned int 
   904 ;; Return value:  Size  Location     Type
   905 ;;                  1    wreg      PTR unsigned char 
   906 ;; Registers used:
   907 ;;		wreg, fsr2l, fsr2h, status,2, status,0, tblptrl, tblptrh, tblptru
   908 ;; Tracked objects:
   909 ;;		On entry : 0/0
   910 ;;		On exit  : 0/0
   911 ;;		Unchanged: 0/0
   912 ;; Data sizes:     COMRAM   BANK0   BANK1   BANK2   BANK3   BANK4   BANK5   BANK6   BANK7   BANK8   BANK9  BANK10  BANK1
      +1  BANK12  BANK13  BANK14  BANK15  BANK16  BANK17  BANK18  BANK19  BANK20  BANK21  BANK22  BANK23  BANK24  BANK25  BANK2
      +6  BANK27  BANK28  BANK29  BANK30  BANK31
   913 ;;      Params:         2       0       0       0       0       0       0       0       0       0       0       0       
      +0       0       0       0       0       0       0       0       0       0       0       0       0       0       0       
      +0       0       0       0       0       0
   914 ;;      Locals:         2       0       0       0       0       0       0       0       0       0       0       0       
      +0       0       0       0       0       0       0       0       0       0       0       0       0       0       0       
      +0       0       0       0       0       0
   915 ;;      Temps:          0       0       0       0       0       0       0       0       0       0       0       0       
      +0       0       0       0       0       0       0       0       0       0       0       0       0       0       0       
      +0       0       0       0       0       0
   916 ;;      Totals:         4       0       0       0       0       0       0       0       0       0       0       0       
      +0       0       0       0       0       0       0       0       0       0       0       0       0       0       0       
      +0       0       0       0       0       0
   917 ;;Total ram usage:        4 bytes
   918 ;; Hardware stack levels used: 1
   919 ;; This function calls:
   920 ;;		Nothing
   921 ;; This function is called by:
   922 ;;		_main
   923 ;; This function uses a non-reentrant model
   924 ;;
   925                           
   926                           	psect	text1
   927   0042AA                     __ptext1:
   928                           	callstack 0
   929   0042AA                     _strcat:
   930                           	callstack 30
   931   0042AA  0E00               	movlw	0
   932   0042AC  6E04               	movwf	(strcat@i+1)^0,c
   933   0042AE  0E00               	movlw	0
   934   0042B0  6E03               	movwf	strcat@i^0,c
   935   0042B2  EF5D  F021         	goto	l3193
   936   0042B6                     l3191:
   937   0042B6  4A03               	infsnz	strcat@i^0,f,c
   938   0042B8  2A04               	incf	(strcat@i+1)^0,f,c
   939   0042BA                     l3193:
   940   0042BA  5001               	movf	strcat@dest^0,w,c
   941   0042BC  2403               	addwf	strcat@i^0,w,c
   942   0042BE  6ED9               	movwf	fsr2l,c
   943   0042C0  6ADA               	clrf	fsr2h,c
   944   0042C2  50DF               	movf	indf2,w,c
   945   0042C4  A4D8               	btfss	status,2,c
   946   0042C6  EF67  F021         	goto	u3491
   947   0042CA  EF69  F021         	goto	u3490
   948   0042CE                     u3491:
   949   0042CE  EF5B  F021         	goto	l3191
   950   0042D2                     u3490:
   951   0042D2  EF6E  F021         	goto	l3197
   952   0042D6                     l3195:
   953   0042D6  4A03               	infsnz	strcat@i^0,f,c
   954   0042D8  2A04               	incf	(strcat@i+1)^0,f,c
   955   0042DA  2A02               	incf	strcat@src^0,f,c
   956   0042DC                     l3197:
   957   0042DC  0060  F00B  FFF6   	movff	strcat@src,tblptrl
   958   0042E2                     	if	1	;There is more than 1 active tblptr byte
   959   0042E2  0E20               	movlw	high __smallconst
   960   0042E4  6EF7               	movwf	tblptrh,c
   961   0042E6                     	endif
   962   0042E6                     	if	0	;tblptru may be non-zero
   963   0042E6                     	endif
   964   0042E6                     	if	1	;Program memory is > 0xFFFF, there are 3 active tblptr bytes
   965   0042E6  0E00               	movlw	low (__smallconst shr (0+16))
   966   0042E8  6EF8               	movwf	tblptru,c
   967   0042EA                     	endif
   968   0042EA  5001               	movf	strcat@dest^0,w,c
   969   0042EC  2403               	addwf	strcat@i^0,w,c
   970   0042EE  6ED9               	movwf	fsr2l,c
   971   0042F0  6ADA               	clrf	fsr2h,c
   972   0042F2  0008               	tblrd		*
   973   0042F4  006F FFD7 FFDF     	movff	tablat,indf2
   974   0042FA  50DF               	movf	indf2,w,c
   975   0042FC  A4D8               	btfss	status,2,c
   976   0042FE  EF83  F021         	goto	u3501
   977   004302  EF85  F021         	goto	u3500
   978   004306                     u3501:
   979   004306  EF6B  F021         	goto	l3195
   980   00430A                     u3500:
   981   00430A  0012               	return		;funcret
   982   00430C                     __end_of_strcat:
   983                           	callstack 0
   984                           
   985 ;; *************** function _sprintf *****************
   986 ;; Defined at:
   987 ;;		line 9 in file "C:\Program Files\Microchip\xc8\v2.46\pic\sources\c99\common\nf_sprintf.c"
   988 ;; Parameters:    Size  Location     Type
   989 ;;  s               1   44[BANK0 ] PTR unsigned char 
   990 ;;		 -> data(10), 
   991 ;;  fmt             1   45[BANK0 ] PTR const unsigned char 
   992 ;;		 -> STR_1(5), 
   993 ;; Auto vars:     Size  Location     Type
   994 ;;  f              12   73[COMRAM] struct _IO_FILE
   995 ;;  ret             2    0        int 
   996 ;;  ap              1   72[COMRAM] PTR void [1]
   997 ;;		 -> ?_sprintf(2), 
   998 ;; Return value:  Size  Location     Type
   999 ;;                  2   44[BANK0 ] int 
  1000 ;; Registers used:
  1001 ;;		wreg, fsr1l, fsr1h, fsr2l, fsr2h, status,2, status,0, tblptrl, tblptrh, tblptru, prodl, prodh, cstack
  1002 ;; Tracked objects:
  1003 ;;		On entry : 0/0
  1004 ;;		On exit  : 0/0
  1005 ;;		Unchanged: 0/0
  1006 ;; Data sizes:     COMRAM   BANK0   BANK1   BANK2   BANK3   BANK4   BANK5   BANK6   BANK7   BANK8   BANK9  BANK10  BANK1
      +1  BANK12  BANK13  BANK14  BANK15  BANK16  BANK17  BANK18  BANK19  BANK20  BANK21  BANK22  BANK23  BANK24  BANK25  BANK2
      +6  BANK27  BANK28  BANK29  BANK30  BANK31
  1007 ;;      Params:         0       6       0       0       0       0       0       0       0       0       0       0       
      +0       0       0       0       0       0       0       0       0       0       0       0       0       0       0       
      +0       0       0       0       0       0
  1008 ;;      Locals:        13       0       0       0       0       0       0       0       0       0       0       0       
      +0       0       0       0       0       0       0       0       0       0       0       0       0       0       0       
      +0       0       0       0       0       0
  1009 ;;      Temps:          0       0       0       0       0       0       0       0       0       0       0       0       
      +0       0       0       0       0       0       0       0       0       0       0       0       0       0       0       
      +0       0       0       0       0       0
  1010 ;;      Totals:        13       6       0       0       0       0       0       0       0       0       0       0       
      +0       0       0       0       0       0       0       0       0       0       0       0       0       0       0       
      +0       0       0       0       0       0
  1011 ;;Total ram usage:       19 bytes
  1012 ;; Hardware stack levels used: 1
  1013 ;; Hardware stack levels required when called: 7
  1014 ;; This function calls:
  1015 ;;		_vfprintf
  1016 ;; This function is called by:
  1017 ;;		_main
  1018 ;; This function uses a non-reentrant model
  1019 ;;
  1020                           
  1021                           	psect	text2
  1022   004600                     __ptext2:
  1023                           	callstack 0
  1024   004600                     _sprintf:
  1025                           	callstack 23
  1026   004600  0EFA               	movlw	low (?_sprintf+2)
  1027   004602  6E49               	movwf	sprintf@ap^0,c
  1028   004604  C0F8  F04A         	movff	sprintf@s,sprintf@f
  1029   004608  0E00               	movlw	0
  1030   00460A  6E4E               	movwf	(sprintf@f+4)^0,c
  1031   00460C  0E00               	movlw	0
  1032   00460E  6E4D               	movwf	(sprintf@f+3)^0,c
  1033   004610  0E00               	movlw	0
  1034   004612  6E55               	movwf	(sprintf@f+11)^0,c
  1035   004614  0E00               	movlw	0
  1036   004616  6E54               	movwf	(sprintf@f+10)^0,c
  1037   004618  0E4A               	movlw	low sprintf@f
  1038   00461A  6E45               	movwf	vfprintf@fp^0,c
  1039   00461C  C0F9  F046         	movff	sprintf@fmt,vfprintf@fmt
  1040   004620  0E49               	movlw	low sprintf@ap
  1041   004622  6E47               	movwf	vfprintf@ap^0,c
  1042   004624  EC2A  F022         	call	_vfprintf	;wreg free
  1043   004628  0100               	movlb	0	; () banked
  1044   00462A  51F8               	movf	sprintf@s& (0+255),w,b
  1045   00462C  244D               	addwf	(sprintf@f+3)^0,w,c
  1046   00462E  6ED9               	movwf	fsr2l,c
  1047   004630  6ADA               	clrf	fsr2h,c
  1048   004632  6ADF               	clrf	indf2,c
  1049   004634                     
  1050                           ; BSR set to: 0
  1051   004634  0012               	return		;funcret
  1052   004636                     __end_of_sprintf:
  1053                           	callstack 0
  1054                           
  1055 ;; *************** function _vfprintf *****************
  1056 ;; Defined at:
  1057 ;;		line 1817 in file "C:\Program Files\Microchip\xc8\v2.46\pic\sources\c99\common\doprnt.c"
  1058 ;; Parameters:    Size  Location     Type
  1059 ;;  fp              1   68[COMRAM] PTR struct _IO_FILE
  1060 ;;		 -> sprintf@f(12), 
  1061 ;;  fmt             1   69[COMRAM] PTR const unsigned char 
  1062 ;;		 -> STR_1(5), 
  1063 ;;  ap              1   70[COMRAM] PTR PTR void 
  1064 ;;		 -> sprintf@ap(1), 
  1065 ;; Auto vars:     Size  Location     Type
  1066 ;;  cfmt            1   71[COMRAM] PTR unsigned char 
  1067 ;;		 -> STR_1(5), 
  1068 ;; Return value:  Size  Location     Type
  1069 ;;                  2   68[COMRAM] int 
  1070 ;; Registers used:
  1071 ;;		wreg, fsr1l, fsr1h, fsr2l, fsr2h, status,2, status,0, tblptrl, tblptrh, tblptru, prodl, prodh, cstack
  1072 ;; Tracked objects:
  1073 ;;		On entry : 0/0
  1074 ;;		On exit  : 0/0
  1075 ;;		Unchanged: 0/0
  1076 ;; Data sizes:     COMRAM   BANK0   BANK1   BANK2   BANK3   BANK4   BANK5   BANK6   BANK7   BANK8   BANK9  BANK10  BANK1
      +1  BANK12  BANK13  BANK14  BANK15  BANK16  BANK17  BANK18  BANK19  BANK20  BANK21  BANK22  BANK23  BANK24  BANK25  BANK2
      +6  BANK27  BANK28  BANK29  BANK30  BANK31
  1077 ;;      Params:         3       0       0       0       0       0       0       0       0       0       0       0       
      +0       0       0       0       0       0       0       0       0       0       0       0       0       0       0       
      +0       0       0       0       0       0
  1078 ;;      Locals:         1       0       0       0       0       0       0       0       0       0       0       0       
      +0       0       0       0       0       0       0       0       0       0       0       0       0       0       0       
      +0       0       0       0       0       0
  1079 ;;      Temps:          0       0       0       0       0       0       0       0       0       0       0       0       
      +0       0       0       0       0       0       0       0       0       0       0       0       0       0       0       
      +0       0       0       0       0       0
  1080 ;;      Totals:         4       0       0       0       0       0       0       0       0       0       0       0       
      +0       0       0       0       0       0       0       0       0       0       0       0       0       0       0       
      +0       0       0       0       0       0
  1081 ;;Total ram usage:        4 bytes
  1082 ;; Hardware stack levels used: 1
  1083 ;; Hardware stack levels required when called: 6
  1084 ;; This function calls:
  1085 ;;		_vfpfcnvrt
  1086 ;; This function is called by:
  1087 ;;		_sprintf
  1088 ;; This function uses a non-reentrant model
  1089 ;;
  1090                           
  1091                           	psect	text3
  1092   004454                     __ptext3:
  1093                           	callstack 0
  1094   004454                     _vfprintf:
  1095                           	callstack 23
  1096   004454                     
  1097                           ;C:\Program Files\Microchip\xc8\v2.46\pic\sources\c99\common\doprnt.c: 1817: int vfprint
      +                          f(FILE *fp, const char *fmt, va_list ap);C:\Program Files\Microchip\xc8\v2.46\pic\source
      +                          s\c99\common\doprnt.c: 1818: {;C:\Program Files\Microchip\xc8\v2.46\pic\sources\c99\comm
      +                          on\doprnt.c: 1820:     char *cfmt;;C:\Program Files\Microchip\xc8\v2.46\pic\sources\c99\
      +                          common\doprnt.c: 1822:     cfmt = (char *)fmt;
  1098   004454  C046  F048         	movff	vfprintf@fmt,vfprintf@cfmt
  1099                           
  1100                           ;C:\Program Files\Microchip\xc8\v2.46\pic\sources\c99\common\doprnt.c: 1826:     while (
      +                          *cfmt) {
  1101   004458  EF36  F022         	goto	l3153
  1102   00445C                     l3151:
  1103                           
  1104                           ;C:\Program Files\Microchip\xc8\v2.46\pic\sources\c99\common\doprnt.c: 1830:    vfpfcnvr
      +                          t(fp, &cfmt, ap);
  1105   00445C  C045  F03B         	movff	vfprintf@fp,vfpfcnvrt@fp
  1106   004460  0E48               	movlw	low vfprintf@cfmt
  1107   004462  6E3C               	movwf	vfpfcnvrt@fmt^0,c
  1108   004464  C047  F03D         	movff	vfprintf@ap,vfpfcnvrt@ap
  1109   004468  EC39  F01B         	call	_vfpfcnvrt	;wreg free
  1110   00446C                     l3153:
  1111                           
  1112                           ;C:\Program Files\Microchip\xc8\v2.46\pic\sources\c99\common\doprnt.c: 1826:     while (
      +                          *cfmt) {
  1113   00446C  0060  F123  FFF6   	movff	vfprintf@cfmt,tblptrl
  1114   004472                     	if	1	;There is more than 1 active tblptr byte
  1115   004472  0E20               	movlw	high __smallconst
  1116   004474  6EF7               	movwf	tblptrh,c
  1117   004476                     	endif
  1118   004476                     	if	0	;tblptru may be non-zero
  1119   004476                     	endif
  1120   004476                     	if	1	;Program memory is > 0xFFFF, there are 3 active tblptr bytes
  1121   004476  0E00               	movlw	low (__smallconst shr (0+16))
  1122   004478  6EF8               	movwf	tblptru,c
  1123   00447A                     	endif
  1124   00447A  0008               	tblrd		*
  1125   00447C  50F5               	movf	tablat,w,c
  1126   00447E  0900               	iorlw	0
  1127   004480  A4D8               	btfss	status,2,c
  1128   004482  EF45  F022         	goto	u3481
  1129   004486  EF47  F022         	goto	u3480
  1130   00448A                     u3481:
  1131   00448A  EF2E  F022         	goto	l3151
  1132   00448E                     u3480:
  1133   00448E                     
  1134                           ;C:\Program Files\Microchip\xc8\v2.46\pic\sources\c99\common\doprnt.c: 1835:  return 0;
  1135   00448E  0E00               	movlw	0
  1136   004490  6E46               	movwf	(?_vfprintf+1)^0,c
  1137   004492  0E00               	movlw	0
  1138   004494  6E45               	movwf	?_vfprintf^0,c
  1139   004496  0012               	return		;funcret
  1140   004498                     __end_of_vfprintf:
  1141                           	callstack 0
  1142                           
  1143 ;; *************** function _vfpfcnvrt *****************
  1144 ;; Defined at:
  1145 ;;		line 1177 in file "C:\Program Files\Microchip\xc8\v2.46\pic\sources\c99\common\doprnt.c"
  1146 ;; Parameters:    Size  Location     Type
  1147 ;;  fp              1   58[COMRAM] PTR struct _IO_FILE
  1148 ;;		 -> sprintf@f(12), 
  1149 ;;  fmt             1   59[COMRAM] PTR PTR unsigned char 
  1150 ;;		 -> vfprintf@cfmt(1), 
  1151 ;;  ap              1   60[COMRAM] PTR PTR void 
  1152 ;;		 -> sprintf@ap(1), 
  1153 ;; Auto vars:     Size  Location     Type
  1154 ;;  convarg         4   62[COMRAM] struct .
  1155 ;;  cp              1   67[COMRAM] PTR unsigned char 
  1156 ;;		 -> STR_1(5), 
  1157 ;;  c               1   66[COMRAM] unsigned char 
  1158 ;;  done            1    0        _Bool 
  1159 ;; Return value:  Size  Location     Type
  1160 ;;                  1    wreg      void 
  1161 ;; Registers used:
  1162 ;;		wreg, fsr1l, fsr1h, fsr2l, fsr2h, status,2, status,0, tblptrl, tblptrh, tblptru, prodl, prodh, cstack
  1163 ;; Tracked objects:
  1164 ;;		On entry : 0/0
  1165 ;;		On exit  : 0/0
  1166 ;;		Unchanged: 0/0
  1167 ;; Data sizes:     COMRAM   BANK0   BANK1   BANK2   BANK3   BANK4   BANK5   BANK6   BANK7   BANK8   BANK9  BANK10  BANK1
      +1  BANK12  BANK13  BANK14  BANK15  BANK16  BANK17  BANK18  BANK19  BANK20  BANK21  BANK22  BANK23  BANK24  BANK25  BANK2
      +6  BANK27  BANK28  BANK29  BANK30  BANK31
  1168 ;;      Params:         3       0       0       0       0       0       0       0       0       0       0       0       
      +0       0       0       0       0       0       0       0       0       0       0       0       0       0       0       
      +0       0       0       0       0       0
  1169 ;;      Locals:         6       0       0       0       0       0       0       0       0       0       0       0       
      +0       0       0       0       0       0       0       0       0       0       0       0       0       0       0       
      +0       0       0       0       0       0
  1170 ;;      Temps:          1       0       0       0       0       0       0       0       0       0       0       0       
      +0       0       0       0       0       0       0       0       0       0       0       0       0       0       0       
      +0       0       0       0       0       0
  1171 ;;      Totals:        10       0       0       0       0       0       0       0       0       0       0       0       
      +0       0       0       0       0       0       0       0       0       0       0       0       0       0       0       
      +0       0       0       0       0       0
  1172 ;;Total ram usage:       10 bytes
  1173 ;; Hardware stack levels used: 1
  1174 ;; Hardware stack levels required when called: 5
  1175 ;; This function calls:
  1176 ;;		_efgtoa
  1177 ;;		_fputc
  1178 ;;		_read_prec_or_width
  1179 ;; This function is called by:
  1180 ;;		_vfprintf
  1181 ;; This function uses a non-reentrant model
  1182 ;;
  1183                           
  1184                           	psect	text4
  1185   003672                     __ptext4:
  1186                           	callstack 0
  1187   003672                     _vfpfcnvrt:
  1188                           	callstack 23
  1189   003672                     
  1190                           ;C:\Program Files\Microchip\xc8\v2.46\pic\sources\c99\common\doprnt.c: 1177: vfpfcnvrt(F
      +                          ILE *fp, char *fmt[], va_list ap);C:\Program Files\Microchip\xc8\v2.46\pic\sources\c99\c
      +                          ommon\doprnt.c: 1178: {;C:\Program Files\Microchip\xc8\v2.46\pic\sources\c99\common\dopr
      +                          nt.c: 1179:     char c, *cp;;C:\Program Files\Microchip\xc8\v2.46\pic\sources\c99\common
      +                          \doprnt.c: 1180:     _Bool done;;C:\Program Files\Microchip\xc8\v2.46\pic\sources\c99\co
      +                          mmon\doprnt.c: 1188:  } convarg;;C:\Program Files\Microchip\xc8\v2.46\pic\sources\c99\co
      +                          mmon\doprnt.c: 1201:     if ((*fmt)[0] == '%') {
  1191   003672  503C               	movf	vfpfcnvrt@fmt^0,w,c
  1192   003674  6ED9               	movwf	fsr2l,c
  1193   003676  6ADA               	clrf	fsr2h,c
  1194   003678  006F FF7F FFF6     	movff	indf2,tblptrl
  1195   00367E                     	if	1	;There is more than 1 active tblptr byte
  1196   00367E  0E20               	movlw	high __smallconst
  1197   003680  6EF7               	movwf	tblptrh,c
  1198   003682                     	endif
  1199   003682                     	if	0	;tblptru may be non-zero
  1200   003682                     	endif
  1201   003682                     	if	1	;Program memory is > 0xFFFF, there are 3 active tblptr bytes
  1202   003682  0E00               	movlw	low (__smallconst shr (0+16))
  1203   003684  6EF8               	movwf	tblptru,c
  1204   003686                     	endif
  1205   003686  0008               	tblrd		*
  1206   003688  50F5               	movf	tablat,w,c
  1207   00368A  0A25               	xorlw	37
  1208   00368C  A4D8               	btfss	status,2,c
  1209   00368E  EF4B  F01B         	goto	u3421
  1210   003692  EF4D  F01B         	goto	u3420
  1211   003696                     u3421:
  1212   003696  EF2D  F01C         	goto	l3123
  1213   00369A                     u3420:
  1214   00369A                     
  1215                           ;C:\Program Files\Microchip\xc8\v2.46\pic\sources\c99\common\doprnt.c: 1202:         ++*
      +                          fmt;
  1216   00369A  503C               	movf	vfpfcnvrt@fmt^0,w,c
  1217   00369C  6ED9               	movwf	fsr2l,c
  1218   00369E  6ADA               	clrf	fsr2h,c
  1219   0036A0  2ADF               	incf	indf2,f,c
  1220   0036A2                     
  1221                           ;C:\Program Files\Microchip\xc8\v2.46\pic\sources\c99\common\doprnt.c: 1204:         fla
      +                          gs = width = 0;
  1222   0036A2  0E00               	movlw	0
  1223   0036A4  0100               	movlb	0	; () banked
  1224   0036A6  6F6D               	movwf	(_width+1)& (0+255),b
  1225   0036A8  0E00               	movlw	0
  1226   0036AA  6F6C               	movwf	_width& (0+255),b
  1227   0036AC  C06C  F05E         	movff	_width,_flags
  1228   0036B0                     
  1229                           ; BSR set to: 0
  1230                           ;C:\Program Files\Microchip\xc8\v2.46\pic\sources\c99\common\doprnt.c: 1205:         pre
      +                          c = -1;
  1231   0036B0  696E               	setf	_prec& (0+255),b
  1232   0036B2  696F               	setf	(_prec+1)& (0+255),b
  1233   0036B4                     
  1234                           ; BSR set to: 0
  1235                           ;C:\Program Files\Microchip\xc8\v2.46\pic\sources\c99\common\doprnt.c: 1265:         if 
      +                          ((*fmt)[0] == '.') {
  1236   0036B4  503C               	movf	vfpfcnvrt@fmt^0,w,c
  1237   0036B6  6ED9               	movwf	fsr2l,c
  1238   0036B8  6ADA               	clrf	fsr2h,c
  1239   0036BA  006F FF7F FFF6     	movff	indf2,tblptrl
  1240   0036C0                     	if	1	;There is more than 1 active tblptr byte
  1241   0036C0  0E20               	movlw	high __smallconst
  1242   0036C2  6EF7               	movwf	tblptrh,c
  1243   0036C4                     	endif
  1244   0036C4                     	if	0	;tblptru may be non-zero
  1245   0036C4                     	endif
  1246   0036C4                     	if	1	;Program memory is > 0xFFFF, there are 3 active tblptr bytes
  1247   0036C4  0E00               	movlw	low (__smallconst shr (0+16))
  1248   0036C6  6EF8               	movwf	tblptru,c
  1249   0036C8                     	endif
  1250   0036C8  0008               	tblrd		*
  1251   0036CA  50F5               	movf	tablat,w,c
  1252   0036CC  0A2E               	xorlw	46
  1253   0036CE  A4D8               	btfss	status,2,c
  1254   0036D0  EF6C  F01B         	goto	u3431
  1255   0036D4  EF6E  F01B         	goto	u3430
  1256   0036D8                     u3431:
  1257   0036D8  EF7C  F01B         	goto	l3085
  1258   0036DC                     u3430:
  1259   0036DC                     
  1260                           ; BSR set to: 0
  1261                           ;C:\Program Files\Microchip\xc8\v2.46\pic\sources\c99\common\doprnt.c: 1266:            
      +                           ++*fmt;
  1262   0036DC  503C               	movf	vfpfcnvrt@fmt^0,w,c
  1263   0036DE  6ED9               	movwf	fsr2l,c
  1264   0036E0  6ADA               	clrf	fsr2h,c
  1265   0036E2  2ADF               	incf	indf2,f,c
  1266   0036E4                     
  1267                           ; BSR set to: 0
  1268                           ;C:\Program Files\Microchip\xc8\v2.46\pic\sources\c99\common\doprnt.c: 1267:    prec = r
      +                          ead_prec_or_width(fmt, ap);
  1269   0036E4  C03C  F007         	movff	vfpfcnvrt@fmt,read_prec_or_width@fmt
  1270   0036E8  C03D  F008         	movff	vfpfcnvrt@ap,read_prec_or_width@ap
  1271   0036EC  EC16  F020         	call	_read_prec_or_width	;wreg free
  1272   0036F0  C007  F06E         	movff	?_read_prec_or_width,_prec
  1273   0036F4  C008  F06F         	movff	?_read_prec_or_width+1,_prec+1
  1274   0036F8                     l3085:
  1275                           
  1276                           ;C:\Program Files\Microchip\xc8\v2.46\pic\sources\c99\common\doprnt.c: 1689:   cp = *fmt
      +                          ;
  1277   0036F8  503C               	movf	vfpfcnvrt@fmt^0,w,c
  1278   0036FA  6ED9               	movwf	fsr2l,c
  1279   0036FC  6ADA               	clrf	fsr2h,c
  1280   0036FE  50DF               	movf	indf2,w,c
  1281   003700  6E44               	movwf	vfpfcnvrt@cp^0,c
  1282   003702                     
  1283                           ;C:\Program Files\Microchip\xc8\v2.46\pic\sources\c99\common\doprnt.c: 1690:   c = *cp;
  1284   003702  0060  F113  FFF6   	movff	vfpfcnvrt@cp,tblptrl
  1285   003708                     	if	1	;There is more than 1 active tblptr byte
  1286   003708  0E20               	movlw	high __smallconst
  1287   00370A  6EF7               	movwf	tblptrh,c
  1288   00370C                     	endif
  1289   00370C                     	if	0	;tblptru may be non-zero
  1290   00370C                     	endif
  1291   00370C                     	if	1	;Program memory is > 0xFFFF, there are 3 active tblptr bytes
  1292   00370C  0E00               	movlw	low (__smallconst shr (0+16))
  1293   00370E  6EF8               	movwf	tblptru,c
  1294   003710                     	endif
  1295   003710  0008               	tblrd		*
  1296   003712  006F FFD4  F043    	movff	tablat,vfpfcnvrt@c
  1297                           
  1298                           ;C:\Program Files\Microchip\xc8\v2.46\pic\sources\c99\common\doprnt.c: 1691:   switch(c)
      +                           {
  1299   003718  EF99  F01B         	goto	l3097
  1300   00371C                     l3089:
  1301                           
  1302                           ;C:\Program Files\Microchip\xc8\v2.46\pic\sources\c99\common\doprnt.c: 1695:     cp++;
  1303   00371C  2A44               	incf	vfpfcnvrt@cp^0,f,c
  1304                           
  1305                           ;C:\Program Files\Microchip\xc8\v2.46\pic\sources\c99\common\doprnt.c: 1696:     break;
  1306   00371E  EFA8  F01B         	goto	l3099
  1307   003722                     l3091:
  1308                           
  1309                           ;C:\Program Files\Microchip\xc8\v2.46\pic\sources\c99\common\doprnt.c: 1721:     c = 'l'
      +                          ;
  1310   003722  0E6C               	movlw	108
  1311   003724  6E43               	movwf	vfpfcnvrt@c^0,c
  1312                           
  1313                           ;C:\Program Files\Microchip\xc8\v2.46\pic\sources\c99\common\doprnt.c: 1722:     break;
  1314   003726  EFA8  F01B         	goto	l3099
  1315   00372A                     l3093:
  1316                           
  1317                           ;C:\Program Files\Microchip\xc8\v2.46\pic\sources\c99\common\doprnt.c: 1724:     c = 0;
  1318   00372A  0E00               	movlw	0
  1319   00372C  6E43               	movwf	vfpfcnvrt@c^0,c
  1320                           
  1321                           ;C:\Program Files\Microchip\xc8\v2.46\pic\sources\c99\common\doprnt.c: 1725:     break;
  1322   00372E  EFA8  F01B         	goto	l3099
  1323   003732                     l3097:
  1324   003732  5043               	movf	vfpfcnvrt@c^0,w,c
  1325                           
  1326                           ; Switch size 1, requested type "simple"
  1327                           ; Number of cases is 3, Range of values is 76 to 108
  1328                           ; switch strategies available:
  1329                           ; Name         Instructions Cycles
  1330                           ; simple_byte           10     6 (average)
  1331                           ;	Chosen strategy is simple_byte
  1332   003734  0A4C               	xorlw	76	; case 76
  1333   003736  B4D8               	btfsc	status,2,c
  1334   003738  EF8E  F01B         	goto	l3089
  1335   00373C  0A2A               	xorlw	42	; case 102
  1336   00373E  B4D8               	btfsc	status,2,c
  1337   003740  EF91  F01B         	goto	l3091
  1338   003744  0A0A               	xorlw	10	; case 108
  1339   003746  B4D8               	btfsc	status,2,c
  1340   003748  EF8E  F01B         	goto	l3089
  1341   00374C  EF95  F01B         	goto	l3093
  1342   003750                     l3099:
  1343   003750  0060  F113  FFF6   	movff	vfpfcnvrt@cp,tblptrl
  1344   003756                     	if	1	;There is more than 1 active tblptr byte
  1345   003756  0E20               	movlw	high __smallconst
  1346   003758  6EF7               	movwf	tblptrh,c
  1347   00375A                     	endif
  1348   00375A                     	if	0	;tblptru may be non-zero
  1349   00375A                     	endif
  1350   00375A                     	if	1	;Program memory is > 0xFFFF, there are 3 active tblptr bytes
  1351   00375A  0E00               	movlw	low (__smallconst shr (0+16))
  1352   00375C  6EF8               	movwf	tblptru,c
  1353   00375E                     	endif
  1354   00375E  0008               	tblrd		*
  1355   003760  50F5               	movf	tablat,w,c
  1356   003762  0A66               	xorlw	102
  1357   003764  A4D8               	btfss	status,2,c
  1358   003766  EFB7  F01B         	goto	u3441
  1359   00376A  EFB9  F01B         	goto	u3440
  1360   00376E                     u3441:
  1361   00376E  EF27  F01C         	goto	l3119
  1362   003772                     u3440:
  1363   003772  EFED  F01B         	goto	l3107
  1364   003776                     l3101:
  1365                           
  1366                           ;C:\Program Files\Microchip\xc8\v2.46\pic\sources\c99\common\doprnt.c: 1756:      convar
      +                          g.f = (long double)(*(double *)__va_arg(*(double **)ap, (double)0));
  1367   003776  503D               	movf	vfpfcnvrt@ap^0,w,c
  1368   003778  6ED9               	movwf	fsr2l,c
  1369   00377A  6ADA               	clrf	fsr2h,c
  1370   00377C  006F FF7C  F03E    	movff	indf2,??_vfpfcnvrt
  1371   003782  0E04               	movlw	4
  1372   003784  26DF               	addwf	indf2,f,c
  1373   003786  503E               	movf	??_vfpfcnvrt^0,w,c
  1374   003788  6ED9               	movwf	fsr2l,c
  1375   00378A  6ADA               	clrf	fsr2h,c
  1376   00378C  006F FF78  F03F    	movff	postinc2,vfpfcnvrt@convarg
  1377   003792  006F FF78  F040    	movff	postinc2,vfpfcnvrt@convarg+1
  1378   003798  006F FF78  F041    	movff	postinc2,vfpfcnvrt@convarg+2
  1379   00379E  006F FF78  F042    	movff	postinc2,vfpfcnvrt@convarg+3
  1380                           
  1381                           ;C:\Program Files\Microchip\xc8\v2.46\pic\sources\c99\common\doprnt.c: 1757:      break;
  1382   0037A4  EFF8  F01B         	goto	l3109
  1383   0037A8                     l3103:
  1384                           
  1385                           ;C:\Program Files\Microchip\xc8\v2.46\pic\sources\c99\common\doprnt.c: 1759:      convar
      +                          g.f = (long double)(*(long double *)__va_arg(*(long double **)ap, (long double)0));
  1386   0037A8  503D               	movf	vfpfcnvrt@ap^0,w,c
  1387   0037AA  6ED9               	movwf	fsr2l,c
  1388   0037AC  6ADA               	clrf	fsr2h,c
  1389   0037AE  006F FF7C  F03E    	movff	indf2,??_vfpfcnvrt
  1390   0037B4  0E04               	movlw	4
  1391   0037B6  26DF               	addwf	indf2,f,c
  1392   0037B8  503E               	movf	??_vfpfcnvrt^0,w,c
  1393   0037BA  6ED9               	movwf	fsr2l,c
  1394   0037BC  6ADA               	clrf	fsr2h,c
  1395   0037BE  006F FF78  F03F    	movff	postinc2,vfpfcnvrt@convarg
  1396   0037C4  006F FF78  F040    	movff	postinc2,vfpfcnvrt@convarg+1
  1397   0037CA  006F FF78  F041    	movff	postinc2,vfpfcnvrt@convarg+2
  1398   0037D0  006F FF78  F042    	movff	postinc2,vfpfcnvrt@convarg+3
  1399                           
  1400                           ;C:\Program Files\Microchip\xc8\v2.46\pic\sources\c99\common\doprnt.c: 1760:      break;
  1401   0037D6  EFF8  F01B         	goto	l3109
  1402   0037DA                     l3107:
  1403   0037DA  5043               	movf	vfpfcnvrt@c^0,w,c
  1404                           
  1405                           ; Switch size 1, requested type "simple"
  1406                           ; Number of cases is 2, Range of values is 76 to 108
  1407                           ; switch strategies available:
  1408                           ; Name         Instructions Cycles
  1409                           ; simple_byte            7     4 (average)
  1410                           ;	Chosen strategy is simple_byte
  1411   0037DC  0A4C               	xorlw	76	; case 76
  1412   0037DE  B4D8               	btfsc	status,2,c
  1413   0037E0  EFD4  F01B         	goto	l3103
  1414   0037E4  0A20               	xorlw	32	; case 108
  1415   0037E6  B4D8               	btfsc	status,2,c
  1416   0037E8  EFBB  F01B         	goto	l3101
  1417   0037EC  EFF8  F01B         	goto	l3109
  1418   0037F0                     l3109:
  1419                           
  1420                           ;C:\Program Files\Microchip\xc8\v2.46\pic\sources\c99\common\doprnt.c: 1762:    *fmt = c
      +                          p+1;
  1421   0037F0  503C               	movf	vfpfcnvrt@fmt^0,w,c
  1422   0037F2  6ED9               	movwf	fsr2l,c
  1423   0037F4  6ADA               	clrf	fsr2h,c
  1424   0037F6  2844               	incf	vfpfcnvrt@cp^0,w,c
  1425   0037F8  6EDF               	movwf	indf2,c
  1426                           
  1427                           ;C:\Program Files\Microchip\xc8\v2.46\pic\sources\c99\common\doprnt.c: 1763:    switch (
      +                          *cp) {
  1428   0037FA  EF18  F01C         	goto	l3117
  1429   0037FE                     l3111:
  1430                           
  1431                           ;C:\Program Files\Microchip\xc8\v2.46\pic\sources\c99\common\doprnt.c: 1790:      return
      +                           (void) efgtoa(fp, convarg.f, *cp);;	Return value of _vfpfcnvrt is never used
  1432   0037FE  C03B  F034         	movff	vfpfcnvrt@fp,efgtoa@fp
  1433   003802  C03F  F035         	movff	vfpfcnvrt@convarg,efgtoa@f
  1434   003806  C040  F036         	movff	vfpfcnvrt@convarg+1,efgtoa@f+1
  1435   00380A  C041  F037         	movff	vfpfcnvrt@convarg+2,efgtoa@f+2
  1436   00380E  C042  F038         	movff	vfpfcnvrt@convarg+3,efgtoa@f+3
  1437   003812  0060  F113  FFF6   	movff	vfpfcnvrt@cp,tblptrl
  1438   003818                     	if	1	;There is more than 1 active tblptr byte
  1439   003818  0E20               	movlw	high __smallconst
  1440   00381A  6EF7               	movwf	tblptrh,c
  1441   00381C                     	endif
  1442   00381C                     	if	0	;tblptru may be non-zero
  1443   00381C                     	endif
  1444   00381C                     	if	1	;Program memory is > 0xFFFF, there are 3 active tblptr bytes
  1445   00381C  0E00               	movlw	low (__smallconst shr (0+16))
  1446   00381E  6EF8               	movwf	tblptru,c
  1447   003820                     	endif
  1448   003820  0008               	tblrd		*
  1449   003822  006F FFD4  F039    	movff	tablat,efgtoa@c
  1450   003828  EC11  F010         	call	_efgtoa	;wreg free
  1451   00382C  EF41  F01C         	goto	l893
  1452   003830                     l3117:
  1453   003830  0060  F113  FFF6   	movff	vfpfcnvrt@cp,tblptrl
  1454   003836                     	if	1	;There is more than 1 active tblptr byte
  1455   003836  0E20               	movlw	high __smallconst
  1456   003838  6EF7               	movwf	tblptrh,c
  1457   00383A                     	endif
  1458   00383A                     	if	0	;tblptru may be non-zero
  1459   00383A                     	endif
  1460   00383A                     	if	1	;Program memory is > 0xFFFF, there are 3 active tblptr bytes
  1461   00383A  0E00               	movlw	low (__smallconst shr (0+16))
  1462   00383C  6EF8               	movwf	tblptru,c
  1463   00383E                     	endif
  1464   00383E  0008               	tblrd		*
  1465   003840  50F5               	movf	tablat,w,c
  1466                           
  1467                           ; Switch size 1, requested type "simple"
  1468                           ; Number of cases is 1, Range of values is 102 to 102
  1469                           ; switch strategies available:
  1470                           ; Name         Instructions Cycles
  1471                           ; simple_byte            4     3 (average)
  1472                           ;	Chosen strategy is simple_byte
  1473   003842  0A66               	xorlw	102	; case 102
  1474   003844  B4D8               	btfsc	status,2,c
  1475   003846  EFFF  F01B         	goto	l3111
  1476   00384A  EF27  F01C         	goto	l3119
  1477   00384E                     l3119:
  1478                           
  1479                           ;C:\Program Files\Microchip\xc8\v2.46\pic\sources\c99\common\doprnt.c: 1806:         ++*
      +                          fmt;
  1480   00384E  503C               	movf	vfpfcnvrt@fmt^0,w,c
  1481   003850  6ED9               	movwf	fsr2l,c
  1482   003852  6ADA               	clrf	fsr2h,c
  1483   003854  2ADF               	incf	indf2,f,c
  1484   003856  EF41  F01C         	goto	l893
  1485   00385A                     l3123:
  1486                           
  1487                           ;C:\Program Files\Microchip\xc8\v2.46\pic\sources\c99\common\doprnt.c: 1811:     fputc((
      +                          int)(*fmt)[0], fp);
  1488   00385A  503C               	movf	vfpfcnvrt@fmt^0,w,c
  1489   00385C  6ED9               	movwf	fsr2l,c
  1490   00385E  6ADA               	clrf	fsr2h,c
  1491   003860  006F FF7F FFF6     	movff	indf2,tblptrl
  1492   003866                     	if	1	;There is more than 1 active tblptr byte
  1493   003866  0E20               	movlw	high __smallconst
  1494   003868  6EF7               	movwf	tblptrh,c
  1495   00386A                     	endif
  1496   00386A                     	if	0	;tblptru may be non-zero
  1497   00386A                     	endif
  1498   00386A                     	if	1	;Program memory is > 0xFFFF, there are 3 active tblptr bytes
  1499   00386A  0E00               	movlw	low (__smallconst shr (0+16))
  1500   00386C  6EF8               	movwf	tblptru,c
  1501   00386E                     	endif
  1502   00386E  0008               	tblrd		*
  1503   003870  50F5               	movf	tablat,w,c
  1504   003872  6E01               	movwf	fputc@c^0,c
  1505   003874  6A02               	clrf	(fputc@c+1)^0,c
  1506   003876  C03B  F003         	movff	vfpfcnvrt@fp,fputc@fp
  1507   00387A  EC71  F020         	call	_fputc	;wreg free
  1508   00387E  EF27  F01C         	goto	l3119
  1509   003882                     l893:
  1510   003882  0012               	return		;funcret
  1511   003884                     __end_of_vfpfcnvrt:
  1512                           	callstack 0
  1513                           
  1514 ;; *************** function _read_prec_or_width *****************
  1515 ;; Defined at:
  1516 ;;		line 1158 in file "C:\Program Files\Microchip\xc8\v2.46\pic\sources\c99\common\doprnt.c"
  1517 ;; Parameters:    Size  Location     Type
  1518 ;;  fmt             1    6[COMRAM] PTR PTR const unsigned c
  1519 ;;		 -> vfprintf@cfmt(1), 
  1520 ;;  ap              1    7[COMRAM] PTR PTR void [1]
  1521 ;;		 -> sprintf@ap(1), 
  1522 ;; Auto vars:     Size  Location     Type
  1523 ;;  c               1    8[COMRAM] unsigned char 
  1524 ;;  n               2    9[COMRAM] int 
  1525 ;; Return value:  Size  Location     Type
  1526 ;;                  2    6[COMRAM] int 
  1527 ;; Registers used:
  1528 ;;		wreg, fsr2l, fsr2h, status,2, status,0, tblptrl, tblptrh, tblptru, prodl, prodh, cstack
  1529 ;; Tracked objects:
  1530 ;;		On entry : 0/0
  1531 ;;		On exit  : 0/0
  1532 ;;		Unchanged: 0/0
  1533 ;; Data sizes:     COMRAM   BANK0   BANK1   BANK2   BANK3   BANK4   BANK5   BANK6   BANK7   BANK8   BANK9  BANK10  BANK1
      +1  BANK12  BANK13  BANK14  BANK15  BANK16  BANK17  BANK18  BANK19  BANK20  BANK21  BANK22  BANK23  BANK24  BANK25  BANK2
      +6  BANK27  BANK28  BANK29  BANK30  BANK31
  1534 ;;      Params:         2       0       0       0       0       0       0       0       0       0       0       0       
      +0       0       0       0       0       0       0       0       0       0       0       0       0       0       0       
      +0       0       0       0       0       0
  1535 ;;      Locals:         3       0       0       0       0       0       0       0       0       0       0       0       
      +0       0       0       0       0       0       0       0       0       0       0       0       0       0       0       
      +0       0       0       0       0       0
  1536 ;;      Temps:          0       0       0       0       0       0       0       0       0       0       0       0       
      +0       0       0       0       0       0       0       0       0       0       0       0       0       0       0       
      +0       0       0       0       0       0
  1537 ;;      Totals:         5       0       0       0       0       0       0       0       0       0       0       0       
      +0       0       0       0       0       0       0       0       0       0       0       0       0       0       0       
      +0       0       0       0       0       0
  1538 ;;Total ram usage:        5 bytes
  1539 ;; Hardware stack levels used: 1
  1540 ;; Hardware stack levels required when called: 1
  1541 ;; This function calls:
  1542 ;;		___wmul
  1543 ;; This function is called by:
  1544 ;;		_vfpfcnvrt
  1545 ;; This function uses a non-reentrant model
  1546 ;;
  1547                           
  1548                           	psect	text5
  1549   00402C                     __ptext5:
  1550                           	callstack 0
  1551   00402C                     _read_prec_or_width:
  1552                           	callstack 26
  1553   00402C                     
  1554                           ;C:\Program Files\Microchip\xc8\v2.46\pic\sources\c99\common\doprnt.c: 1159:     int n =
      +                           0;
  1555   00402C  0E00               	movlw	0
  1556   00402E  6E0B               	movwf	(read_prec_or_width@n+1)^0,c
  1557   004030  0E00               	movlw	0
  1558   004032  6E0A               	movwf	read_prec_or_width@n^0,c
  1559   004034                     
  1560                           ;C:\Program Files\Microchip\xc8\v2.46\pic\sources\c99\common\doprnt.c: 1160:     if ((*f
      +                          mt)[0] == '*') {
  1561   004034  5007               	movf	read_prec_or_width@fmt^0,w,c
  1562   004036  6ED9               	movwf	fsr2l,c
  1563   004038  6ADA               	clrf	fsr2h,c
  1564   00403A  006F FF7F FFF6     	movff	indf2,tblptrl
  1565   004040                     	if	1	;There is more than 1 active tblptr byte
  1566   004040  0E20               	movlw	high __smallconst
  1567   004042  6EF7               	movwf	tblptrh,c
  1568   004044                     	endif
  1569   004044                     	if	0	;tblptru may be non-zero
  1570   004044                     	endif
  1571   004044                     	if	1	;Program memory is > 0xFFFF, there are 3 active tblptr bytes
  1572   004044  0E00               	movlw	low (__smallconst shr (0+16))
  1573   004046  6EF8               	movwf	tblptru,c
  1574   004048                     	endif
  1575   004048  0008               	tblrd		*
  1576   00404A  50F5               	movf	tablat,w,c
  1577   00404C  0A2A               	xorlw	42
  1578   00404E  A4D8               	btfss	status,2,c
  1579   004050  EF2C  F020         	goto	u3401
  1580   004054  EF2E  F020         	goto	u3400
  1581   004058                     u3401:
  1582   004058  EF56  F020         	goto	l3057
  1583   00405C                     u3400:
  1584   00405C                     
  1585                           ;C:\Program Files\Microchip\xc8\v2.46\pic\sources\c99\common\doprnt.c: 1161:         ++*
      +                          fmt;
  1586   00405C  5007               	movf	read_prec_or_width@fmt^0,w,c
  1587   00405E  6ED9               	movwf	fsr2l,c
  1588   004060  6ADA               	clrf	fsr2h,c
  1589   004062  2ADF               	incf	indf2,f,c
  1590   004064                     
  1591                           ;C:\Program Files\Microchip\xc8\v2.46\pic\sources\c99\common\doprnt.c: 1162:         n =
      +                           (*(int *)__va_arg(*(int **)*ap, (int)0));
  1592   004064  5008               	movf	read_prec_or_width@ap^0,w,c
  1593   004066  6ED9               	movwf	fsr2l,c
  1594   004068  6ADA               	clrf	fsr2h,c
  1595   00406A  0E02               	movlw	2
  1596   00406C  26DF               	addwf	indf2,f,c
  1597   00406E  5CDF               	subwf	indf2,w,c
  1598   004070  6ED9               	movwf	fsr2l,c
  1599   004072  6ADA               	clrf	fsr2h,c
  1600   004074  006F FF78  F00A    	movff	postinc2,read_prec_or_width@n
  1601   00407A  006F FF78  F00B    	movff	postinc2,read_prec_or_width@n+1
  1602                           
  1603                           ;C:\Program Files\Microchip\xc8\v2.46\pic\sources\c99\common\doprnt.c: 1163:     } else 
      +                          {
  1604   004080  EF6C  F020         	goto	l869
  1605   004084                     l3053:
  1606                           
  1607                           ;C:\Program Files\Microchip\xc8\v2.46\pic\sources\c99\common\doprnt.c: 1166:            
      +                           n = n * 10 + c;
  1608   004084  C00A  F001         	movff	read_prec_or_width@n,___wmul@multiplier
  1609   004088  C00B  F002         	movff	read_prec_or_width@n+1,___wmul@multiplier+1
  1610   00408C  0E00               	movlw	0
  1611   00408E  6E04               	movwf	(___wmul@multiplicand+1)^0,c
  1612   004090  0E0A               	movlw	10
  1613   004092  6E03               	movwf	___wmul@multiplicand^0,c
  1614   004094  EC32  F023         	call	___wmul	;wreg free
  1615   004098  5009               	movf	read_prec_or_width@c^0,w,c
  1616   00409A  2401               	addwf	?___wmul^0,w,c
  1617   00409C  6E0A               	movwf	read_prec_or_width@n^0,c
  1618   00409E  0E00               	movlw	0
  1619   0040A0  2002               	addwfc	(?___wmul+1)^0,w,c
  1620   0040A2  6E0B               	movwf	(read_prec_or_width@n+1)^0,c
  1621   0040A4                     
  1622                           ;C:\Program Files\Microchip\xc8\v2.46\pic\sources\c99\common\doprnt.c: 1167:            
      +                           ++*fmt;
  1623   0040A4  5007               	movf	read_prec_or_width@fmt^0,w,c
  1624   0040A6  6ED9               	movwf	fsr2l,c
  1625   0040A8  6ADA               	clrf	fsr2h,c
  1626   0040AA  2ADF               	incf	indf2,f,c
  1627   0040AC                     l3057:
  1628                           
  1629                           ;C:\Program Files\Microchip\xc8\v2.46\pic\sources\c99\common\doprnt.c: 1165:         whi
      +                          le ((c = ((unsigned)(*fmt)[0]) - '0') < 10) {
  1630   0040AC  5007               	movf	read_prec_or_width@fmt^0,w,c
  1631   0040AE  6ED9               	movwf	fsr2l,c
  1632   0040B0  6ADA               	clrf	fsr2h,c
  1633   0040B2  006F FF7F FFF6     	movff	indf2,tblptrl
  1634   0040B8                     	if	1	;There is more than 1 active tblptr byte
  1635   0040B8  0E20               	movlw	high __smallconst
  1636   0040BA  6EF7               	movwf	tblptrh,c
  1637   0040BC                     	endif
  1638   0040BC                     	if	0	;tblptru may be non-zero
  1639   0040BC                     	endif
  1640   0040BC                     	if	1	;Program memory is > 0xFFFF, there are 3 active tblptr bytes
  1641   0040BC  0E00               	movlw	low (__smallconst shr (0+16))
  1642   0040BE  6EF8               	movwf	tblptru,c
  1643   0040C0                     	endif
  1644   0040C0  0008               	tblrd		*
  1645   0040C2  50F5               	movf	tablat,w,c
  1646   0040C4  0FD0               	addlw	208
  1647   0040C6  6E09               	movwf	read_prec_or_width@c^0,c
  1648   0040C8  0E09               	movlw	9
  1649   0040CA  6409               	cpfsgt	read_prec_or_width@c^0,c
  1650   0040CC  EF6A  F020         	goto	u3411
  1651   0040D0  EF6C  F020         	goto	u3410
  1652   0040D4                     u3411:
  1653   0040D4  EF42  F020         	goto	l3053
  1654   0040D8                     u3410:
  1655   0040D8                     l869:
  1656                           
  1657                           ;C:\Program Files\Microchip\xc8\v2.46\pic\sources\c99\common\doprnt.c: 1170:     return 
      +                          n;
  1658   0040D8  C00A  F007         	movff	read_prec_or_width@n,?_read_prec_or_width
  1659   0040DC  C00B  F008         	movff	read_prec_or_width@n+1,?_read_prec_or_width+1
  1660   0040E0  0012               	return		;funcret
  1661   0040E2                     __end_of_read_prec_or_width:
  1662                           	callstack 0
  1663                           
  1664 ;; *************** function ___wmul *****************
  1665 ;; Defined at:
  1666 ;;		line 15 in file "C:\Program Files\Microchip\xc8\v2.46\pic\sources\c99\common\Umul16.c"
  1667 ;; Parameters:    Size  Location     Type
  1668 ;;  multiplier      2    0[COMRAM] unsigned int 
  1669 ;;  multiplicand    2    2[COMRAM] unsigned int 
  1670 ;; Auto vars:     Size  Location     Type
  1671 ;;  product         2    4[COMRAM] unsigned int 
  1672 ;; Return value:  Size  Location     Type
  1673 ;;                  2    0[COMRAM] unsigned int 
  1674 ;; Registers used:
  1675 ;;		wreg, status,2, status,0, prodl, prodh
  1676 ;; Tracked objects:
  1677 ;;		On entry : 0/0
  1678 ;;		On exit  : 0/0
  1679 ;;		Unchanged: 0/0
  1680 ;; Data sizes:     COMRAM   BANK0   BANK1   BANK2   BANK3   BANK4   BANK5   BANK6   BANK7   BANK8   BANK9  BANK10  BANK1
      +1  BANK12  BANK13  BANK14  BANK15  BANK16  BANK17  BANK18  BANK19  BANK20  BANK21  BANK22  BANK23  BANK24  BANK25  BANK2
      +6  BANK27  BANK28  BANK29  BANK30  BANK31
  1681 ;;      Params:         4       0       0       0       0       0       0       0       0       0       0       0       
      +0       0       0       0       0       0       0       0       0       0       0       0       0       0       0       
      +0       0       0       0       0       0
  1682 ;;      Locals:         2       0       0       0       0       0       0       0       0       0       0       0       
      +0       0       0       0       0       0       0       0       0       0       0       0       0       0       0       
      +0       0       0       0       0       0
  1683 ;;      Temps:          0       0       0       0       0       0       0       0       0       0       0       0       
      +0       0       0       0       0       0       0       0       0       0       0       0       0       0       0       
      +0       0       0       0       0       0
  1684 ;;      Totals:         6       0       0       0       0       0       0       0       0       0       0       0       
      +0       0       0       0       0       0       0       0       0       0       0       0       0       0       0       
      +0       0       0       0       0       0
  1685 ;;Total ram usage:        6 bytes
  1686 ;; Hardware stack levels used: 1
  1687 ;; This function calls:
  1688 ;;		Nothing
  1689 ;; This function is called by:
  1690 ;;		_read_prec_or_width
  1691 ;; This function uses a non-reentrant model
  1692 ;;
  1693                           
  1694                           	psect	text6
  1695   004664                     __ptext6:
  1696                           	callstack 0
  1697   004664                     ___wmul:
  1698                           	callstack 26
  1699   004664  5001               	movf	___wmul@multiplier^0,w,c
  1700   004666  0203               	mulwf	___wmul@multiplicand^0,c
  1701   004668  006F FFCC  F005    	movff	prodl,___wmul@product
  1702   00466E  006F FFD0  F006    	movff	prodh,___wmul@product+1
  1703   004674  5001               	movf	___wmul@multiplier^0,w,c
  1704   004676  0204               	mulwf	(___wmul@multiplicand+1)^0,c
  1705   004678  50F3               	movf	243,w,c
  1706   00467A  2606               	addwf	(___wmul@product+1)^0,f,c
  1707   00467C  5002               	movf	(___wmul@multiplier+1)^0,w,c
  1708   00467E  0203               	mulwf	___wmul@multiplicand^0,c
  1709   004680  50F3               	movf	243,w,c
  1710   004682  2606               	addwf	(___wmul@product+1)^0,f,c
  1711   004684  C005  F001         	movff	___wmul@product,?___wmul
  1712   004688  C006  F002         	movff	___wmul@product+1,?___wmul+1
  1713   00468C  0012               	return		;funcret
  1714   00468E                     __end_of___wmul:
  1715                           	callstack 0
  1716                           
  1717 ;; *************** function _efgtoa *****************
  1718 ;; Defined at:
  1719 ;;		line 587 in file "C:\Program Files\Microchip\xc8\v2.46\pic\sources\c99\common\doprnt.c"
  1720 ;; Parameters:    Size  Location     Type
  1721 ;;  fp              1   51[COMRAM] PTR struct _IO_FILE
  1722 ;;		 -> sprintf@f(12), 
  1723 ;;  f               4   52[COMRAM] PTR struct _IO_FILE
  1724 ;;  c               1   56[COMRAM] unsigned char 
  1725 ;; Auto vars:     Size  Location     Type
  1726 ;;  u               4   40[BANK0 ] struct flui
  1727 ;;  g               4   36[BANK0 ] struct flui
  1728 ;;  l               4   29[BANK0 ] struct flui
  1729 ;;  h               4   25[BANK0 ] struct flui
  1730 ;;  ou              4   19[BANK0 ] struct flui
  1731 ;;  n               2   34[BANK0 ] int 
  1732 ;;  i               2   23[BANK0 ] int 
  1733 ;;  w               2   17[BANK0 ] int 
  1734 ;;  e               2   15[BANK0 ] int 
  1735 ;;  m               2   13[BANK0 ] int 
  1736 ;;  d               2   11[BANK0 ] int 
  1737 ;;  t               2    4[BANK0 ] int 
  1738 ;;  p               2    2[BANK0 ] int 
  1739 ;;  ne              2    0[BANK0 ] int 
  1740 ;;  sign            1   33[BANK0 ] unsigned char 
  1741 ;;  nmode           1   10[BANK0 ] unsigned char 
  1742 ;;  mode            1    9[BANK0 ] unsigned char 
  1743 ;;  pp              1    8[BANK0 ] unsigned char 
  1744 ;;  esign           1    0        unsigned char 
  1745 ;; Return value:  Size  Location     Type
  1746 ;;                  1    wreg      void 
  1747 ;; Registers used:
  1748 ;;		wreg, fsr1l, fsr1h, fsr2l, fsr2h, status,2, status,0, tblptrl, tblptrh, tblptru, prodl, prodh, cstack
  1749 ;; Tracked objects:
  1750 ;;		On entry : 0/0
  1751 ;;		On exit  : 0/0
  1752 ;;		Unchanged: 0/0
  1753 ;; Data sizes:     COMRAM   BANK0   BANK1   BANK2   BANK3   BANK4   BANK5   BANK6   BANK7   BANK8   BANK9  BANK10  BANK1
      +1  BANK12  BANK13  BANK14  BANK15  BANK16  BANK17  BANK18  BANK19  BANK20  BANK21  BANK22  BANK23  BANK24  BANK25  BANK2
      +6  BANK27  BANK28  BANK29  BANK30  BANK31
  1754 ;;      Params:         6       0       0       0       0       0       0       0       0       0       0       0       
      +0       0       0       0       0       0       0       0       0       0       0       0       0       0       0       
      +0       0       0       0       0       0
  1755 ;;      Locals:         0      44       0       0       0       0       0       0       0       0       0       0       
      +0       0       0       0       0       0       0       0       0       0       0       0       0       0       0       
      +0       0       0       0       0       0
  1756 ;;      Temps:          1       0       0       0       0       0       0       0       0       0       0       0       
      +0       0       0       0       0       0       0       0       0       0       0       0       0       0       0       
      +0       0       0       0       0       0
  1757 ;;      Totals:         7      44       0       0       0       0       0       0       0       0       0       0       
      +0       0       0       0       0       0       0       0       0       0       0       0       0       0       0       
      +0       0       0       0       0       0
  1758 ;;Total ram usage:       51 bytes
  1759 ;; Hardware stack levels used: 1
  1760 ;; Hardware stack levels required when called: 4
  1761 ;; This function calls:
  1762 ;;		___fladd
  1763 ;;		___fldiv
  1764 ;;		___fleq
  1765 ;;		___flge
  1766 ;;		___flmul
  1767 ;;		___flneg
  1768 ;;		___flsub
  1769 ;;		___fltol
  1770 ;;		___fpclassifyf
  1771 ;;		_floorf
  1772 ;;		_labs
  1773 ;;		_memcpy
  1774 ;;		_pad
  1775 ;;		_strcpy
  1776 ;; This function is called by:
  1777 ;;		_vfpfcnvrt
  1778 ;; This function uses a non-reentrant model
  1779 ;;
  1780                           
  1781                           	psect	text7
  1782   002022                     __ptext7:
  1783                           	callstack 0
  1784   002022                     _efgtoa:
  1785                           	callstack 23
  1786   002022                     
  1787                           ;C:\Program Files\Microchip\xc8\v2.46\pic\sources\c99\common\doprnt.c: 587: static void 
      +                          efgtoa(FILE *fp, long double f, char c);C:\Program Files\Microchip\xc8\v2.46\pic\sources
      +                          \c99\common\doprnt.c: 588: {;C:\Program Files\Microchip\xc8\v2.46\pic\sources\c99\common
      +                          \doprnt.c: 589:     char mode, nmode, pp, sign, esign;;C:\Program Files\Microchip\xc8\v2
      +                          .46\pic\sources\c99\common\doprnt.c: 590:     int d, e, i, m, n, ne, p, t, w;;C:\Program
      +                           Files\Microchip\xc8\v2.46\pic\sources\c99\common\doprnt.c: 591:     long double h, l;
  1788   002022  0E00               	movlw	0
  1789   002024  0100               	movlb	0	; () banked
  1790   002026  6FED               	movwf	efgtoa@sign& (0+255),b
  1791   002028                     
  1792                           ; BSR set to: 0
  1793                           ;C:\Program Files\Microchip\xc8\v2.46\pic\sources\c99\common\doprnt.c: 596:     g.f = f;
  1794   002028  C035  F0F0         	movff	efgtoa@f,efgtoa@g
  1795   00202C  C036  F0F1         	movff	efgtoa@f+1,efgtoa@g+1
  1796   002030  C037  F0F2         	movff	efgtoa@f+2,efgtoa@g+2
  1797   002034  C038  F0F3         	movff	efgtoa@f+3,efgtoa@g+3
  1798   002038                     
  1799                           ; BSR set to: 0
  1800                           ;C:\Program Files\Microchip\xc8\v2.46\pic\sources\c99\common\doprnt.c: 597:     if (g.f 
      +                          < 0.0) {
  1801   002038  BFF3               	btfsc	(efgtoa@g+3)& (0+255),7,b
  1802   00203A  EF23  F010         	goto	u3080
  1803   00203E  EF21  F010         	goto	u3081
  1804   002042                     u3081:
  1805   002042  EF37  F010         	goto	l2833
  1806   002046                     u3080:
  1807   002046                     
  1808                           ; BSR set to: 0
  1809                           ;C:\Program Files\Microchip\xc8\v2.46\pic\sources\c99\common\doprnt.c: 598:         sign
      +                           = 1;
  1810   002046  0E01               	movlw	1
  1811   002048  6FED               	movwf	efgtoa@sign& (0+255),b
  1812   00204A                     
  1813                           ; BSR set to: 0
  1814                           ;C:\Program Files\Microchip\xc8\v2.46\pic\sources\c99\common\doprnt.c: 599:         g.f 
      +                          = -g.f;
  1815   00204A  C0F0  F001         	movff	efgtoa@g,___flneg@f1
  1816   00204E  C0F1  F002         	movff	efgtoa@g+1,___flneg@f1+1
  1817   002052  C0F2  F003         	movff	efgtoa@g+2,___flneg@f1+2
  1818   002056  C0F3  F004         	movff	efgtoa@g+3,___flneg@f1+3
  1819   00205A  ECC8  F022         	call	___flneg	;wreg free
  1820   00205E  C001  F0F0         	movff	?___flneg,efgtoa@g
  1821   002062  C002  F0F1         	movff	?___flneg+1,efgtoa@g+1
  1822   002066  C003  F0F2         	movff	?___flneg+2,efgtoa@g+2
  1823   00206A  C004  F0F3         	movff	?___flneg+3,efgtoa@g+3
  1824   00206E                     l2833:
  1825                           
  1826                           ;C:\Program Files\Microchip\xc8\v2.46\pic\sources\c99\common\doprnt.c: 603:     n = 0;
  1827   00206E  0E00               	movlw	0
  1828   002070  0100               	movlb	0	; () banked
  1829   002072  6FEF               	movwf	(efgtoa@n+1)& (0+255),b
  1830   002074  0E00               	movlw	0
  1831   002076  6FEE               	movwf	efgtoa@n& (0+255),b
  1832   002078                     
  1833                           ; BSR set to: 0
  1834                           ;C:\Program Files\Microchip\xc8\v2.46\pic\sources\c99\common\doprnt.c: 604:     w = widt
      +                          h;
  1835   002078  C06C  F0DD         	movff	_width,efgtoa@w
  1836   00207C  C06D  F0DE         	movff	_width+1,efgtoa@w+1
  1837   002080                     
  1838                           ; BSR set to: 0
  1839                           ;C:\Program Files\Microchip\xc8\v2.46\pic\sources\c99\common\doprnt.c: 605:     if (sign
  1840   002080  51ED               	movf	efgtoa@sign& (0+255),w,b
  1841   002082  B4D8               	btfsc	status,2,c
  1842   002084  EF46  F010         	goto	u3091
  1843   002088  EF48  F010         	goto	u3090
  1844   00208C                     u3091:
  1845   00208C  EF5C  F010         	goto	l2847
  1846   002090                     u3090:
  1847   002090                     
  1848                           ; BSR set to: 0
  1849                           ;C:\Program Files\Microchip\xc8\v2.46\pic\sources\c99\common\doprnt.c: 609:    ) {;C:\Pr
      +                          ogram Files\Microchip\xc8\v2.46\pic\sources\c99\common\doprnt.c: 610:   sign = sign ? '-
      +                          ' : '+';
  1850   002090  51ED               	movf	efgtoa@sign& (0+255),w,b
  1851   002092  A4D8               	btfss	status,2,c
  1852   002094  EF4E  F010         	goto	u3101
  1853   002098  EF50  F010         	goto	u3100
  1854   00209C                     u3101:
  1855   00209C  EF56  F010         	goto	l2843
  1856   0020A0                     u3100:
  1857   0020A0                     
  1858                           ; BSR set to: 0
  1859   0020A0  0E00               	movlw	0
  1860   0020A2  6FD3               	movwf	(_efgtoa$802+1)& (0+255),b
  1861   0020A4  0E2B               	movlw	43
  1862   0020A6  6FD2               	movwf	_efgtoa$802& (0+255),b
  1863   0020A8  EF5A  F010         	goto	l2845
  1864   0020AC                     l2843:
  1865                           
  1866                           ; BSR set to: 0
  1867   0020AC  0E00               	movlw	0
  1868   0020AE  6FD3               	movwf	(_efgtoa$802+1)& (0+255),b
  1869   0020B0  0E2D               	movlw	45
  1870   0020B2  6FD2               	movwf	_efgtoa$802& (0+255),b
  1871   0020B4                     l2845:
  1872                           
  1873                           ; BSR set to: 0
  1874   0020B4  C0D2  F0ED         	movff	_efgtoa$802,efgtoa@sign
  1875   0020B8                     l2847:
  1876                           
  1877                           ; BSR set to: 0
  1878                           ;C:\Program Files\Microchip\xc8\v2.46\pic\sources\c99\common\doprnt.c: 619:     if (( __
      +                          fpclassifyf(g.f) == 1 )) {
  1879   0020B8  C0F0  F001         	movff	efgtoa@g,___fpclassifyf@x
  1880   0020BC  C0F1  F002         	movff	efgtoa@g+1,___fpclassifyf@x+1
  1881   0020C0  C0F2  F003         	movff	efgtoa@g+2,___fpclassifyf@x+2
  1882   0020C4  C0F3  F004         	movff	efgtoa@g+3,___fpclassifyf@x+3
  1883   0020C8  EC2A  F01F         	call	___fpclassifyf	;wreg free
  1884   0020CC  0401               	decf	?___fpclassifyf^0,w,c
  1885   0020CE  1002               	iorwf	(?___fpclassifyf+1)^0,w,c
  1886   0020D0  A4D8               	btfss	status,2,c
  1887   0020D2  EF6D  F010         	goto	u3111
  1888   0020D6  EF6F  F010         	goto	u3110
  1889   0020DA                     u3111:
  1890   0020DA  EF99  F010         	goto	l2865
  1891   0020DE                     u3110:
  1892   0020DE                     
  1893                           ;C:\Program Files\Microchip\xc8\v2.46\pic\sources\c99\common\doprnt.c: 620:   if (sign) 
      +                          {
  1894   0020DE  0100               	movlb	0	; () banked
  1895   0020E0  51ED               	movf	efgtoa@sign& (0+255),w,b
  1896   0020E2  B4D8               	btfsc	status,2,c
  1897   0020E4  EF76  F010         	goto	u3121
  1898   0020E8  EF78  F010         	goto	u3120
  1899   0020EC                     u3121:
  1900   0020EC  EF81  F010         	goto	l2857
  1901   0020F0                     u3120:
  1902   0020F0                     
  1903                           ; BSR set to: 0
  1904                           ;C:\Program Files\Microchip\xc8\v2.46\pic\sources\c99\common\doprnt.c: 621:    dbuf[0] =
      +                           sign;
  1905   0020F0  C0ED  F072         	movff	efgtoa@sign,_dbuf
  1906   0020F4                     
  1907                           ; BSR set to: 0
  1908                           ;C:\Program Files\Microchip\xc8\v2.46\pic\sources\c99\common\doprnt.c: 622:    w--;
  1909   0020F4  07DD               	decf	efgtoa@w& (0+255),f,b
  1910   0020F6  A0D8               	btfss	status,0,c
  1911   0020F8  07DE               	decf	(efgtoa@w+1)& (0+255),f,b
  1912   0020FA                     
  1913                           ; BSR set to: 0
  1914                           ;C:\Program Files\Microchip\xc8\v2.46\pic\sources\c99\common\doprnt.c: 623:    n = 1;
  1915   0020FA  0E00               	movlw	0
  1916   0020FC  6FEF               	movwf	(efgtoa@n+1)& (0+255),b
  1917   0020FE  0E01               	movlw	1
  1918   002100  6FEE               	movwf	efgtoa@n& (0+255),b
  1919   002102                     l2857:
  1920                           
  1921                           ; BSR set to: 0
  1922                           ;C:\Program Files\Microchip\xc8\v2.46\pic\sources\c99\common\doprnt.c: 631:   {;C:\Progr
      +                          am Files\Microchip\xc8\v2.46\pic\sources\c99\common\doprnt.c: 632:             strcpy(&d
      +                          buf[n], "inf");
  1923   002102  51EE               	movf	efgtoa@n& (0+255),w,b
  1924   002104  0F72               	addlw	low _dbuf
  1925   002106  6E01               	movwf	strcpy@dest^0,c
  1926   002108  0E15               	movlw	low STR_4
  1927   00210A  6E02               	movwf	strcpy@src^0,c
  1928   00210C  ECAB  F022         	call	_strcpy	;wreg free
  1929   002110                     l2859:
  1930                           
  1931                           ;C:\Program Files\Microchip\xc8\v2.46\pic\sources\c99\common\doprnt.c: 633:         };C:
      +                          \Program Files\Microchip\xc8\v2.46\pic\sources\c99\common\doprnt.c: 634:         w -= ((
      +                          sizeof("inf")/sizeof("inf"[0]))-1);
  1932   002110  0100               	movlb	0	; () banked
  1933   002112  0EFD               	movlw	253
  1934   002114  27DD               	addwf	efgtoa@w& (0+255),f,b
  1935   002116  0EFF               	movlw	255
  1936   002118  23DE               	addwfc	(efgtoa@w+1)& (0+255),f,b
  1937   00211A                     
  1938                           ; BSR set to: 0
  1939                           ;C:\Program Files\Microchip\xc8\v2.46\pic\sources\c99\common\doprnt.c: 635:         retu
      +                          rn (void) pad(fp, &dbuf[0], w);
  1940   00211A  C034  F00E         	movff	efgtoa@fp,pad@fp
  1941   00211E  0E72               	movlw	low _dbuf
  1942   002120  6E0F               	movwf	pad@buf^0,c
  1943   002122  C0DD  F010         	movff	efgtoa@w,pad@p
  1944   002126  C0DE  F011         	movff	efgtoa@w+1,pad@p+1
  1945   00212A  EC86  F021         	call	_pad	;wreg free
  1946   00212E  EFE4  F014         	goto	l824
  1947   002132                     l2865:
  1948                           
  1949                           ;C:\Program Files\Microchip\xc8\v2.46\pic\sources\c99\common\doprnt.c: 637:     if (( __
      +                          fpclassifyf(g.f) == 0 )) {
  1950   002132  C0F0  F001         	movff	efgtoa@g,___fpclassifyf@x
  1951   002136  C0F1  F002         	movff	efgtoa@g+1,___fpclassifyf@x+1
  1952   00213A  C0F2  F003         	movff	efgtoa@g+2,___fpclassifyf@x+2
  1953   00213E  C0F3  F004         	movff	efgtoa@g+3,___fpclassifyf@x+3
  1954   002142  EC2A  F01F         	call	___fpclassifyf	;wreg free
  1955   002146  5001               	movf	?___fpclassifyf^0,w,c
  1956   002148  1002               	iorwf	(?___fpclassifyf+1)^0,w,c
  1957   00214A  A4D8               	btfss	status,2,c
  1958   00214C  EFAA  F010         	goto	u3131
  1959   002150  EFAC  F010         	goto	u3130
  1960   002154                     u3131:
  1961   002154  EFC7  F010         	goto	l2883
  1962   002158                     u3130:
  1963   002158                     
  1964                           ;C:\Program Files\Microchip\xc8\v2.46\pic\sources\c99\common\doprnt.c: 638:   if (sign) 
      +                          {
  1965   002158  0100               	movlb	0	; () banked
  1966   00215A  51ED               	movf	efgtoa@sign& (0+255),w,b
  1967   00215C  B4D8               	btfsc	status,2,c
  1968   00215E  EFB3  F010         	goto	u3141
  1969   002162  EFB5  F010         	goto	u3140
  1970   002166                     u3141:
  1971   002166  EFBE  F010         	goto	l2875
  1972   00216A                     u3140:
  1973   00216A                     
  1974                           ; BSR set to: 0
  1975                           ;C:\Program Files\Microchip\xc8\v2.46\pic\sources\c99\common\doprnt.c: 639:    dbuf[0] =
      +                           sign;
  1976   00216A  C0ED  F072         	movff	efgtoa@sign,_dbuf
  1977   00216E                     
  1978                           ; BSR set to: 0
  1979                           ;C:\Program Files\Microchip\xc8\v2.46\pic\sources\c99\common\doprnt.c: 640:    w--;
  1980   00216E  07DD               	decf	efgtoa@w& (0+255),f,b
  1981   002170  A0D8               	btfss	status,0,c
  1982   002172  07DE               	decf	(efgtoa@w+1)& (0+255),f,b
  1983   002174                     
  1984                           ; BSR set to: 0
  1985                           ;C:\Program Files\Microchip\xc8\v2.46\pic\sources\c99\common\doprnt.c: 641:    n = 1;
  1986   002174  0E00               	movlw	0
  1987   002176  6FEF               	movwf	(efgtoa@n+1)& (0+255),b
  1988   002178  0E01               	movlw	1
  1989   00217A  6FEE               	movwf	efgtoa@n& (0+255),b
  1990   00217C                     l2875:
  1991                           
  1992                           ; BSR set to: 0
  1993                           ;C:\Program Files\Microchip\xc8\v2.46\pic\sources\c99\common\doprnt.c: 649:   {;C:\Progr
      +                          am Files\Microchip\xc8\v2.46\pic\sources\c99\common\doprnt.c: 650:             strcpy(&d
      +                          buf[n], "nan");
  1994   00217C  51EE               	movf	efgtoa@n& (0+255),w,b
  1995   00217E  0F72               	addlw	low _dbuf
  1996   002180  6E01               	movwf	strcpy@dest^0,c
  1997   002182  0E19               	movlw	low STR_7
  1998   002184  6E02               	movwf	strcpy@src^0,c
  1999   002186  ECAB  F022         	call	_strcpy	;wreg free
  2000   00218A  EF88  F010         	goto	l2859
  2001   00218E                     l2883:
  2002                           
  2003                           ;C:\Program Files\Microchip\xc8\v2.46\pic\sources\c99\common\doprnt.c: 657:     u.f = 1.
      +                          0;
  2004   00218E  0E00               	movlw	0
  2005   002190  0100               	movlb	0	; () banked
  2006   002192  6FF4               	movwf	efgtoa@u& (0+255),b
  2007   002194  0E00               	movlw	0
  2008   002196  6FF5               	movwf	(efgtoa@u+1)& (0+255),b
  2009   002198  0E80               	movlw	128
  2010   00219A  6FF6               	movwf	(efgtoa@u+2)& (0+255),b
  2011   00219C  0E3F               	movlw	63
  2012   00219E  6FF7               	movwf	(efgtoa@u+3)& (0+255),b
  2013                           
  2014                           ;C:\Program Files\Microchip\xc8\v2.46\pic\sources\c99\common\doprnt.c: 658:     e = 0;
  2015   0021A0  0E00               	movlw	0
  2016   0021A2  6FDC               	movwf	(efgtoa@e+1)& (0+255),b
  2017   0021A4  0E00               	movlw	0
  2018   0021A6  6FDB               	movwf	efgtoa@e& (0+255),b
  2019   0021A8                     
  2020                           ; BSR set to: 0
  2021                           ;C:\Program Files\Microchip\xc8\v2.46\pic\sources\c99\common\doprnt.c: 659:  if (!(g.f =
      +                          = 0.0)) {
  2022   0021A8  C0F0  F001         	movff	efgtoa@g,___fleq@ff1
  2023   0021AC  C0F1  F002         	movff	efgtoa@g+1,___fleq@ff1+1
  2024   0021B0  C0F2  F003         	movff	efgtoa@g+2,___fleq@ff1+2
  2025   0021B4  C0F3  F004         	movff	efgtoa@g+3,___fleq@ff1+3
  2026   0021B8  0E00               	movlw	0
  2027   0021BA  6E05               	movwf	___fleq@ff2^0,c
  2028   0021BC  0E00               	movlw	0
  2029   0021BE  6E06               	movwf	(___fleq@ff2+1)^0,c
  2030   0021C0  0E00               	movlw	0
  2031   0021C2  6E07               	movwf	(___fleq@ff2+2)^0,c
  2032   0021C4  0E00               	movlw	0
  2033   0021C6  6E08               	movwf	(___fleq@ff2+3)^0,c
  2034   0021C8  ECC7  F020         	call	___fleq	;wreg free
  2035   0021CC  B0D8               	btfsc	status,0,c
  2036   0021CE  EFEB  F010         	goto	u3151
  2037   0021D2  EFED  F010         	goto	u3150
  2038   0021D6                     u3151:
  2039   0021D6  EFCC  F011         	goto	l827
  2040   0021DA                     u3150:
  2041   0021DA  EFFA  F010         	goto	l2891
  2042   0021DE                     l829:
  2043                           
  2044                           ;C:\Program Files\Microchip\xc8\v2.46\pic\sources\c99\common\doprnt.c: 661:    u = ou;
  2045   0021DE  C0DF  F0F4         	movff	efgtoa@ou,efgtoa@u
  2046   0021E2  C0E0  F0F5         	movff	efgtoa@ou+1,efgtoa@u+1
  2047   0021E6  C0E1  F0F6         	movff	efgtoa@ou+2,efgtoa@u+2
  2048   0021EA  C0E2  F0F7         	movff	efgtoa@ou+3,efgtoa@u+3
  2049   0021EE                     
  2050                           ;C:\Program Files\Microchip\xc8\v2.46\pic\sources\c99\common\doprnt.c: 662:    ++e;
  2051   0021EE  0100               	movlb	0	; () banked
  2052   0021F0  4BDB               	infsnz	efgtoa@e& (0+255),f,b
  2053   0021F2  2BDC               	incf	(efgtoa@e+1)& (0+255),f,b
  2054   0021F4                     l2891:
  2055                           
  2056                           ;C:\Program Files\Microchip\xc8\v2.46\pic\sources\c99\common\doprnt.c: 660:   while ((la
      +                          bs((g).u-((ou.f = u.f*10.0,ou)).u) <= 1) || g.f > ou.f) {
  2057   0021F4  C0F4  F00F         	movff	efgtoa@u,___flmul@b
  2058   0021F8  C0F5  F010         	movff	efgtoa@u+1,___flmul@b+1
  2059   0021FC  C0F6  F011         	movff	efgtoa@u+2,___flmul@b+2
  2060   002200  C0F7  F012         	movff	efgtoa@u+3,___flmul@b+3
  2061   002204  0E00               	movlw	0
  2062   002206  6E13               	movwf	___flmul@a^0,c
  2063   002208  0E00               	movlw	0
  2064   00220A  6E14               	movwf	(___flmul@a+1)^0,c
  2065   00220C  0E20               	movlw	32
  2066   00220E  6E15               	movwf	(___flmul@a+2)^0,c
  2067   002210  0E41               	movlw	65
  2068   002212  6E16               	movwf	(___flmul@a+3)^0,c
  2069   002214  EC45  F017         	call	___flmul	;wreg free
  2070   002218  C00F  F0DF         	movff	?___flmul,efgtoa@ou
  2071   00221C  C010  F0E0         	movff	?___flmul+1,efgtoa@ou+1
  2072   002220  C011  F0E1         	movff	?___flmul+2,efgtoa@ou+2
  2073   002224  C012  F0E2         	movff	?___flmul+3,efgtoa@ou+3
  2074   002228  0100               	movlb	0	; () banked
  2075   00222A  51DF               	movf	efgtoa@ou& (0+255),w,b
  2076   00222C  5DF0               	subwf	efgtoa@g& (0+255),w,b
  2077   00222E  6E01               	movwf	labs@a^0,c
  2078   002230  51E0               	movf	(efgtoa@ou+1)& (0+255),w,b
  2079   002232  59F1               	subwfb	(efgtoa@g+1)& (0+255),w,b
  2080   002234  6E02               	movwf	(labs@a+1)^0,c
  2081   002236  51E1               	movf	(efgtoa@ou+2)& (0+255),w,b
  2082   002238  59F2               	subwfb	(efgtoa@g+2)& (0+255),w,b
  2083   00223A  6E03               	movwf	(labs@a+2)^0,c
  2084   00223C  51E2               	movf	(efgtoa@ou+3)& (0+255),w,b
  2085   00223E  59F3               	subwfb	(efgtoa@g+3)& (0+255),w,b
  2086   002240  6E04               	movwf	(labs@a+3)^0,c
  2087   002242  ECB7  F021         	call	_labs	;wreg free
  2088   002246  BE04               	btfsc	(?_labs+3)^0,7,c
  2089   002248  EF31  F011         	goto	u3161
  2090   00224C  5004               	movf	(?_labs+3)^0,w,c
  2091   00224E  1003               	iorwf	(?_labs+2)^0,w,c
  2092   002250  1002               	iorwf	(?_labs+1)^0,w,c
  2093   002252  E109               	bnz	u3160
  2094   002254  0E02               	movlw	2
  2095   002256  5C01               	subwf	?_labs^0,w,c
  2096   002258  A0D8               	btfss	status,0,c
  2097   00225A  EF31  F011         	goto	u3161
  2098   00225E  EF33  F011         	goto	u3160
  2099   002262                     u3161:
  2100   002262  EFEF  F010         	goto	l829
  2101   002266                     u3160:
  2102   002266  C0DF  F028         	movff	efgtoa@ou,___flge@ff1
  2103   00226A  C0E0  F029         	movff	efgtoa@ou+1,___flge@ff1+1
  2104   00226E  C0E1  F02A         	movff	efgtoa@ou+2,___flge@ff1+2
  2105   002272  C0E2  F02B         	movff	efgtoa@ou+3,___flge@ff1+3
  2106   002276  C0F0  F02C         	movff	efgtoa@g,___flge@ff2
  2107   00227A  C0F1  F02D         	movff	efgtoa@g+1,___flge@ff2+1
  2108   00227E  C0F2  F02E         	movff	efgtoa@g+2,___flge@ff2+2
  2109   002282  C0F3  F02F         	movff	efgtoa@g+3,___flge@ff2+3
  2110   002286  ECA8  F01E         	call	___flge	;wreg free
  2111   00228A  A0D8               	btfss	status,0,c
  2112   00228C  EF4A  F011         	goto	u3171
  2113   002290  EF4C  F011         	goto	u3170
  2114   002294                     u3171:
  2115   002294  EFEF  F010         	goto	l829
  2116   002298                     u3170:
  2117   002298                     
  2118                           ;C:\Program Files\Microchip\xc8\v2.46\pic\sources\c99\common\doprnt.c: 664:   if ((labs(
      +                          (g).u-(u).u) <= 1)) {
  2119   002298  0100               	movlb	0	; () banked
  2120   00229A  51F4               	movf	efgtoa@u& (0+255),w,b
  2121   00229C  5DF0               	subwf	efgtoa@g& (0+255),w,b
  2122   00229E  6E01               	movwf	labs@a^0,c
  2123   0022A0  51F5               	movf	(efgtoa@u+1)& (0+255),w,b
  2124   0022A2  59F1               	subwfb	(efgtoa@g+1)& (0+255),w,b
  2125   0022A4  6E02               	movwf	(labs@a+1)^0,c
  2126   0022A6  51F6               	movf	(efgtoa@u+2)& (0+255),w,b
  2127   0022A8  59F2               	subwfb	(efgtoa@g+2)& (0+255),w,b
  2128   0022AA  6E03               	movwf	(labs@a+2)^0,c
  2129   0022AC  51F7               	movf	(efgtoa@u+3)& (0+255),w,b
  2130   0022AE  59F3               	subwfb	(efgtoa@g+3)& (0+255),w,b
  2131   0022B0  6E04               	movwf	(labs@a+3)^0,c
  2132   0022B2  ECB7  F021         	call	_labs	;wreg free
  2133   0022B6  BE04               	btfsc	(?_labs+3)^0,7,c
  2134   0022B8  EF6B  F011         	goto	u3180
  2135   0022BC  5004               	movf	(?_labs+3)^0,w,c
  2136   0022BE  1003               	iorwf	(?_labs+2)^0,w,c
  2137   0022C0  1002               	iorwf	(?_labs+1)^0,w,c
  2138   0022C2  E107               	bnz	u3181
  2139   0022C4  0E02               	movlw	2
  2140   0022C6  5C01               	subwf	?_labs^0,w,c
  2141   0022C8  B0D8               	btfsc	status,0,c
  2142   0022CA  EF69  F011         	goto	u3181
  2143   0022CE  EF6B  F011         	goto	u3180
  2144   0022D2                     u3181:
  2145   0022D2  EFB3  F011         	goto	l2909
  2146   0022D6                     u3180:
  2147   0022D6                     l2899:
  2148                           
  2149                           ;C:\Program Files\Microchip\xc8\v2.46\pic\sources\c99\common\doprnt.c: 665:    g = u;
  2150   0022D6  C0F4  F0F0         	movff	efgtoa@u,efgtoa@g
  2151   0022DA  C0F5  F0F1         	movff	efgtoa@u+1,efgtoa@g+1
  2152   0022DE  C0F6  F0F2         	movff	efgtoa@u+2,efgtoa@g+2
  2153   0022E2  C0F7  F0F3         	movff	efgtoa@u+3,efgtoa@g+3
  2154                           
  2155                           ;C:\Program Files\Microchip\xc8\v2.46\pic\sources\c99\common\doprnt.c: 666:   }
  2156   0022E6  EFCC  F011         	goto	l827
  2157   0022EA                     l2901:
  2158                           
  2159                           ;C:\Program Files\Microchip\xc8\v2.46\pic\sources\c99\common\doprnt.c: 669:     u.f = u.
      +                          f/10.0;
  2160   0022EA  C0F4  F001         	movff	efgtoa@u,___fldiv@b
  2161   0022EE  C0F5  F002         	movff	efgtoa@u+1,___fldiv@b+1
  2162   0022F2  C0F6  F003         	movff	efgtoa@u+2,___fldiv@b+2
  2163   0022F6  C0F7  F004         	movff	efgtoa@u+3,___fldiv@b+3
  2164   0022FA  0E00               	movlw	0
  2165   0022FC  6E05               	movwf	___fldiv@a^0,c
  2166   0022FE  0E00               	movlw	0
  2167   002300  6E06               	movwf	(___fldiv@a+1)^0,c
  2168   002302  0E20               	movlw	32
  2169   002304  6E07               	movwf	(___fldiv@a+2)^0,c
  2170   002306  0E41               	movlw	65
  2171   002308  6E08               	movwf	(___fldiv@a+3)^0,c
  2172   00230A  EC6C  F019         	call	___fldiv	;wreg free
  2173   00230E  C001  F0F4         	movff	?___fldiv,efgtoa@u
  2174   002312  C002  F0F5         	movff	?___fldiv+1,efgtoa@u+1
  2175   002316  C003  F0F6         	movff	?___fldiv+2,efgtoa@u+2
  2176   00231A  C004  F0F7         	movff	?___fldiv+3,efgtoa@u+3
  2177   00231E                     
  2178                           ;C:\Program Files\Microchip\xc8\v2.46\pic\sources\c99\common\doprnt.c: 670:     --e;
  2179   00231E  0100               	movlb	0	; () banked
  2180   002320  07DB               	decf	efgtoa@e& (0+255),f,b
  2181   002322  A0D8               	btfss	status,0,c
  2182   002324  07DC               	decf	(efgtoa@e+1)& (0+255),f,b
  2183   002326                     
  2184                           ; BSR set to: 0
  2185                           ;C:\Program Files\Microchip\xc8\v2.46\pic\sources\c99\common\doprnt.c: 671:     if ((lab
      +                          s((g).u-(u).u) <= 1)) {
  2186   002326  51F4               	movf	efgtoa@u& (0+255),w,b
  2187   002328  5DF0               	subwf	efgtoa@g& (0+255),w,b
  2188   00232A  6E01               	movwf	labs@a^0,c
  2189   00232C  51F5               	movf	(efgtoa@u+1)& (0+255),w,b
  2190   00232E  59F1               	subwfb	(efgtoa@g+1)& (0+255),w,b
  2191   002330  6E02               	movwf	(labs@a+1)^0,c
  2192   002332  51F6               	movf	(efgtoa@u+2)& (0+255),w,b
  2193   002334  59F2               	subwfb	(efgtoa@g+2)& (0+255),w,b
  2194   002336  6E03               	movwf	(labs@a+2)^0,c
  2195   002338  51F7               	movf	(efgtoa@u+3)& (0+255),w,b
  2196   00233A  59F3               	subwfb	(efgtoa@g+3)& (0+255),w,b
  2197   00233C  6E04               	movwf	(labs@a+3)^0,c
  2198   00233E  ECB7  F021         	call	_labs	;wreg free
  2199   002342  BE04               	btfsc	(?_labs+3)^0,7,c
  2200   002344  EFB1  F011         	goto	u3190
  2201   002348  5004               	movf	(?_labs+3)^0,w,c
  2202   00234A  1003               	iorwf	(?_labs+2)^0,w,c
  2203   00234C  1002               	iorwf	(?_labs+1)^0,w,c
  2204   00234E  E107               	bnz	u3191
  2205   002350  0E02               	movlw	2
  2206   002352  5C01               	subwf	?_labs^0,w,c
  2207   002354  B0D8               	btfsc	status,0,c
  2208   002356  EFAF  F011         	goto	u3191
  2209   00235A  EFB1  F011         	goto	u3190
  2210   00235E                     u3191:
  2211   00235E  EFB3  F011         	goto	l2909
  2212   002362                     u3190:
  2213   002362  EF6B  F011         	goto	l2899
  2214   002366                     l2909:
  2215                           
  2216                           ;C:\Program Files\Microchip\xc8\v2.46\pic\sources\c99\common\doprnt.c: 668:    while (g.
      +                          f < u.f) {
  2217   002366  C0F0  F028         	movff	efgtoa@g,___flge@ff1
  2218   00236A  C0F1  F029         	movff	efgtoa@g+1,___flge@ff1+1
  2219   00236E  C0F2  F02A         	movff	efgtoa@g+2,___flge@ff1+2
  2220   002372  C0F3  F02B         	movff	efgtoa@g+3,___flge@ff1+3
  2221   002376  C0F4  F02C         	movff	efgtoa@u,___flge@ff2
  2222   00237A  C0F5  F02D         	movff	efgtoa@u+1,___flge@ff2+1
  2223   00237E  C0F6  F02E         	movff	efgtoa@u+2,___flge@ff2+2
  2224   002382  C0F7  F02F         	movff	efgtoa@u+3,___flge@ff2+3
  2225   002386  ECA8  F01E         	call	___flge	;wreg free
  2226   00238A  A0D8               	btfss	status,0,c
  2227   00238C  EFCA  F011         	goto	u3201
  2228   002390  EFCC  F011         	goto	u3200
  2229   002394                     u3201:
  2230   002394  EF75  F011         	goto	l2901
  2231   002398                     u3200:
  2232   002398                     l827:
  2233                           
  2234                           ;C:\Program Files\Microchip\xc8\v2.46\pic\sources\c99\common\doprnt.c: 683:  mode = c;
  2235   002398  C039  F0D5         	movff	efgtoa@c,efgtoa@mode
  2236                           
  2237                           ;C:\Program Files\Microchip\xc8\v2.46\pic\sources\c99\common\doprnt.c: 685:     nmode = 
      +                          mode;
  2238   00239C  C0D5  F0D6         	movff	efgtoa@mode,efgtoa@nmode
  2239   0023A0                     
  2240                           ;C:\Program Files\Microchip\xc8\v2.46\pic\sources\c99\common\doprnt.c: 695:  {;C:\Progra
      +                          m Files\Microchip\xc8\v2.46\pic\sources\c99\common\doprnt.c: 696:         p = (prec < 0)
      +                           ? 6 : prec;
  2241   0023A0  0100               	movlb	0	; () banked
  2242   0023A2  BF6F               	btfsc	(_prec+1)& (0+255),7,b
  2243   0023A4  EFD6  F011         	goto	u3211
  2244   0023A8  EFD8  F011         	goto	u3210
  2245   0023AC                     u3211:
  2246   0023AC  EFDE  F011         	goto	l2915
  2247   0023B0                     u3210:
  2248   0023B0                     
  2249                           ; BSR set to: 0
  2250   0023B0  C06E  F0CE         	movff	_prec,efgtoa@p
  2251   0023B4  C06F  F0CF         	movff	_prec+1,efgtoa@p+1
  2252   0023B8  EFE2  F011         	goto	l2917
  2253   0023BC                     l2915:
  2254                           
  2255                           ; BSR set to: 0
  2256   0023BC  0E00               	movlw	0
  2257   0023BE  6FCF               	movwf	(efgtoa@p+1)& (0+255),b
  2258   0023C0  0E06               	movlw	6
  2259   0023C2  6FCE               	movwf	efgtoa@p& (0+255),b
  2260   0023C4                     l2917:
  2261                           
  2262                           ; BSR set to: 0
  2263                           ;C:\Program Files\Microchip\xc8\v2.46\pic\sources\c99\common\doprnt.c: 697:     };C:\Pro
      +                          gram Files\Microchip\xc8\v2.46\pic\sources\c99\common\doprnt.c: 711:     m = p;
  2264   0023C4  C0CE  F0D9         	movff	efgtoa@p,efgtoa@m
  2265   0023C8  C0CF  F0DA         	movff	efgtoa@p+1,efgtoa@m+1
  2266   0023CC                     
  2267                           ; BSR set to: 0
  2268                           ;C:\Program Files\Microchip\xc8\v2.46\pic\sources\c99\common\doprnt.c: 715:  {;C:\Progra
      +                          m Files\Microchip\xc8\v2.46\pic\sources\c99\common\doprnt.c: 716:         ++m;
  2269   0023CC  4BD9               	infsnz	efgtoa@m& (0+255),f,b
  2270   0023CE  2BDA               	incf	(efgtoa@m+1)& (0+255),f,b
  2271   0023D0                     
  2272                           ; BSR set to: 0
  2273                           ;C:\Program Files\Microchip\xc8\v2.46\pic\sources\c99\common\doprnt.c: 717:     };C:\Pro
      +                          gram Files\Microchip\xc8\v2.46\pic\sources\c99\common\doprnt.c: 721:     if (nmode == 'f
      +                          ') {
  2274   0023D0  0E66               	movlw	102
  2275   0023D2  19D6               	xorwf	efgtoa@nmode& (0+255),w,b
  2276   0023D4  A4D8               	btfss	status,2,c
  2277   0023D6  EFEF  F011         	goto	u3221
  2278   0023DA  EFF1  F011         	goto	u3220
  2279   0023DE                     u3221:
  2280   0023DE  EF11  F012         	goto	l2931
  2281   0023E2                     u3220:
  2282   0023E2                     
  2283                           ; BSR set to: 0
  2284                           ;C:\Program Files\Microchip\xc8\v2.46\pic\sources\c99\common\doprnt.c: 722:         if (
      +                          e < 0) {
  2285   0023E2  BFDC               	btfsc	(efgtoa@e+1)& (0+255),7,b
  2286   0023E4  EFF8  F011         	goto	u3230
  2287   0023E8  EFF6  F011         	goto	u3231
  2288   0023EC                     u3231:
  2289   0023EC  EF04  F012         	goto	l2927
  2290   0023F0                     u3230:
  2291   0023F0                     
  2292                           ; BSR set to: 0
  2293                           ;C:\Program Files\Microchip\xc8\v2.46\pic\sources\c99\common\doprnt.c: 723:             
      +                          u.f = 1.0;
  2294   0023F0  0E00               	movlw	0
  2295   0023F2  6FF4               	movwf	efgtoa@u& (0+255),b
  2296   0023F4  0E00               	movlw	0
  2297   0023F6  6FF5               	movwf	(efgtoa@u+1)& (0+255),b
  2298   0023F8  0E80               	movlw	128
  2299   0023FA  6FF6               	movwf	(efgtoa@u+2)& (0+255),b
  2300   0023FC  0E3F               	movlw	63
  2301   0023FE  6FF7               	movwf	(efgtoa@u+3)& (0+255),b
  2302                           
  2303                           ;C:\Program Files\Microchip\xc8\v2.46\pic\sources\c99\common\doprnt.c: 724:             
      +                          e = 0;
  2304   002400  0E00               	movlw	0
  2305   002402  6FDC               	movwf	(efgtoa@e+1)& (0+255),b
  2306   002404  0E00               	movlw	0
  2307   002406  6FDB               	movwf	efgtoa@e& (0+255),b
  2308   002408                     l2927:
  2309                           
  2310                           ; BSR set to: 0
  2311                           ;C:\Program Files\Microchip\xc8\v2.46\pic\sources\c99\common\doprnt.c: 726:         if (
      +                          !(mode == 'g')) {
  2312   002408  0E67               	movlw	103
  2313   00240A  19D5               	xorwf	efgtoa@mode& (0+255),w,b
  2314   00240C  B4D8               	btfsc	status,2,c
  2315   00240E  EF0B  F012         	goto	u3241
  2316   002412  EF0D  F012         	goto	u3240
  2317   002416                     u3241:
  2318   002416  EF11  F012         	goto	l2931
  2319   00241A                     u3240:
  2320   00241A                     
  2321                           ; BSR set to: 0
  2322                           ;C:\Program Files\Microchip\xc8\v2.46\pic\sources\c99\common\doprnt.c: 727:             
      +                          m += e;
  2323   00241A  51DB               	movf	efgtoa@e& (0+255),w,b
  2324   00241C  27D9               	addwf	efgtoa@m& (0+255),f,b
  2325   00241E  51DC               	movf	(efgtoa@e+1)& (0+255),w,b
  2326   002420  23DA               	addwfc	(efgtoa@m+1)& (0+255),f,b
  2327   002422                     l2931:
  2328                           
  2329                           ; BSR set to: 0
  2330                           ;C:\Program Files\Microchip\xc8\v2.46\pic\sources\c99\common\doprnt.c: 733:     i = 0;
  2331   002422  0E00               	movlw	0
  2332   002424  6FE4               	movwf	(efgtoa@i+1)& (0+255),b
  2333   002426  0E00               	movlw	0
  2334   002428  6FE3               	movwf	efgtoa@i& (0+255),b
  2335   00242A                     
  2336                           ; BSR set to: 0
  2337                           ;C:\Program Files\Microchip\xc8\v2.46\pic\sources\c99\common\doprnt.c: 734:     h = g.f;
  2338   00242A  C0F0  F0E5         	movff	efgtoa@g,efgtoa@h
  2339   00242E  C0F1  F0E6         	movff	efgtoa@g+1,efgtoa@h+1
  2340   002432  C0F2  F0E7         	movff	efgtoa@g+2,efgtoa@h+2
  2341   002436  C0F3  F0E8         	movff	efgtoa@g+3,efgtoa@h+3
  2342   00243A                     
  2343                           ; BSR set to: 0
  2344                           ;C:\Program Files\Microchip\xc8\v2.46\pic\sources\c99\common\doprnt.c: 735:     ou = u;
  2345   00243A  C0F4  F0DF         	movff	efgtoa@u,efgtoa@ou
  2346   00243E  C0F5  F0E0         	movff	efgtoa@u+1,efgtoa@ou+1
  2347   002442  C0F6  F0E1         	movff	efgtoa@u+2,efgtoa@ou+2
  2348   002446  C0F7  F0E2         	movff	efgtoa@u+3,efgtoa@ou+3
  2349                           
  2350                           ;C:\Program Files\Microchip\xc8\v2.46\pic\sources\c99\common\doprnt.c: 736:     while (i
      +                           < m) {
  2351   00244A  EFA2  F012         	goto	l2945
  2352   00244E                     l2937:
  2353                           
  2354                           ; BSR set to: 0
  2355                           ;C:\Program Files\Microchip\xc8\v2.46\pic\sources\c99\common\doprnt.c: 737:         l = 
      +                          floorf(h/u.f);
  2356   00244E  C0E5  F001         	movff	efgtoa@h,___fldiv@b
  2357   002452  C0E6  F002         	movff	efgtoa@h+1,___fldiv@b+1
  2358   002456  C0E7  F003         	movff	efgtoa@h+2,___fldiv@b+2
  2359   00245A  C0E8  F004         	movff	efgtoa@h+3,___fldiv@b+3
  2360   00245E  C0F4  F005         	movff	efgtoa@u,___fldiv@a
  2361   002462  C0F5  F006         	movff	efgtoa@u+1,___fldiv@a+1
  2362   002466  C0F6  F007         	movff	efgtoa@u+2,___fldiv@a+2
  2363   00246A  C0F7  F008         	movff	efgtoa@u+3,___fldiv@a+3
  2364   00246E  EC6C  F019         	call	___fldiv	;wreg free
  2365   002472  C001  F01A         	movff	?___fldiv,floorf@x
  2366   002476  C002  F01B         	movff	?___fldiv+1,floorf@x+1
  2367   00247A  C003  F01C         	movff	?___fldiv+2,floorf@x+2
  2368   00247E  C004  F01D         	movff	?___fldiv+3,floorf@x+3
  2369   002482  EC42  F01C         	call	_floorf	;wreg free
  2370   002486  C01A  F0E9         	movff	?_floorf,efgtoa@l
  2371   00248A  C01B  F0EA         	movff	?_floorf+1,efgtoa@l+1
  2372   00248E  C01C  F0EB         	movff	?_floorf+2,efgtoa@l+2
  2373   002492  C01D  F0EC         	movff	?_floorf+3,efgtoa@l+3
  2374                           
  2375                           ;C:\Program Files\Microchip\xc8\v2.46\pic\sources\c99\common\doprnt.c: 738:         d = 
      +                          (int)l;
  2376   002496  C0E9  F001         	movff	efgtoa@l,___fltol@f1
  2377   00249A  C0EA  F002         	movff	efgtoa@l+1,___fltol@f1+1
  2378   00249E  C0EB  F003         	movff	efgtoa@l+2,___fltol@f1+2
  2379   0024A2  C0EC  F004         	movff	efgtoa@l+3,___fltol@f1+3
  2380   0024A6  EC25  F01E         	call	___fltol	;wreg free
  2381   0024AA  C001  F0D7         	movff	?___fltol,efgtoa@d
  2382   0024AE  C002  F0D8         	movff	?___fltol+1,efgtoa@d+1
  2383   0024B2                     
  2384                           ;C:\Program Files\Microchip\xc8\v2.46\pic\sources\c99\common\doprnt.c: 739:         h -=
      +                           l*u.f;
  2385   0024B2  C0E5  F028         	movff	efgtoa@h,___flsub@b
  2386   0024B6  C0E6  F029         	movff	efgtoa@h+1,___flsub@b+1
  2387   0024BA  C0E7  F02A         	movff	efgtoa@h+2,___flsub@b+2
  2388   0024BE  C0E8  F02B         	movff	efgtoa@h+3,___flsub@b+3
  2389   0024C2  C0E9  F013         	movff	efgtoa@l,___flmul@a
  2390   0024C6  C0EA  F014         	movff	efgtoa@l+1,___flmul@a+1
  2391   0024CA  C0EB  F015         	movff	efgtoa@l+2,___flmul@a+2
  2392   0024CE  C0EC  F016         	movff	efgtoa@l+3,___flmul@a+3
  2393   0024D2  C0F4  F00F         	movff	efgtoa@u,___flmul@b
  2394   0024D6  C0F5  F010         	movff	efgtoa@u+1,___flmul@b+1
  2395   0024DA  C0F6  F011         	movff	efgtoa@u+2,___flmul@b+2
  2396   0024DE  C0F7  F012         	movff	efgtoa@u+3,___flmul@b+3
  2397   0024E2  EC45  F017         	call	___flmul	;wreg free
  2398   0024E6  C00F  F02C         	movff	?___flmul,___flsub@a
  2399   0024EA  C010  F02D         	movff	?___flmul+1,___flsub@a+1
  2400   0024EE  C011  F02E         	movff	?___flmul+2,___flsub@a+2
  2401   0024F2  C012  F02F         	movff	?___flmul+3,___flsub@a+3
  2402   0024F6  EC07  F022         	call	___flsub	;wreg free
  2403   0024FA  C028  F0E5         	movff	?___flsub,efgtoa@h
  2404   0024FE  C029  F0E6         	movff	?___flsub+1,efgtoa@h+1
  2405   002502  C02A  F0E7         	movff	?___flsub+2,efgtoa@h+2
  2406   002506  C02B  F0E8         	movff	?___flsub+3,efgtoa@h+3
  2407   00250A                     
  2408                           ;C:\Program Files\Microchip\xc8\v2.46\pic\sources\c99\common\doprnt.c: 740:         u.f 
      +                          = u.f/10.0;
  2409   00250A  C0F4  F001         	movff	efgtoa@u,___fldiv@b
  2410   00250E  C0F5  F002         	movff	efgtoa@u+1,___fldiv@b+1
  2411   002512  C0F6  F003         	movff	efgtoa@u+2,___fldiv@b+2
  2412   002516  C0F7  F004         	movff	efgtoa@u+3,___fldiv@b+3
  2413   00251A  0E00               	movlw	0
  2414   00251C  6E05               	movwf	___fldiv@a^0,c
  2415   00251E  0E00               	movlw	0
  2416   002520  6E06               	movwf	(___fldiv@a+1)^0,c
  2417   002522  0E20               	movlw	32
  2418   002524  6E07               	movwf	(___fldiv@a+2)^0,c
  2419   002526  0E41               	movlw	65
  2420   002528  6E08               	movwf	(___fldiv@a+3)^0,c
  2421   00252A  EC6C  F019         	call	___fldiv	;wreg free
  2422   00252E  C001  F0F4         	movff	?___fldiv,efgtoa@u
  2423   002532  C002  F0F5         	movff	?___fldiv+1,efgtoa@u+1
  2424   002536  C003  F0F6         	movff	?___fldiv+2,efgtoa@u+2
  2425   00253A  C004  F0F7         	movff	?___fldiv+3,efgtoa@u+3
  2426   00253E                     
  2427                           ;C:\Program Files\Microchip\xc8\v2.46\pic\sources\c99\common\doprnt.c: 741:         ++i;
  2428   00253E  0100               	movlb	0	; () banked
  2429   002540  4BE3               	infsnz	efgtoa@i& (0+255),f,b
  2430   002542  2BE4               	incf	(efgtoa@i+1)& (0+255),f,b
  2431   002544                     l2945:
  2432                           
  2433                           ; BSR set to: 0
  2434                           ;C:\Program Files\Microchip\xc8\v2.46\pic\sources\c99\common\doprnt.c: 736:     while (i
      +                           < m) {
  2435   002544  51D9               	movf	efgtoa@m& (0+255),w,b
  2436   002546  5DE3               	subwf	efgtoa@i& (0+255),w,b
  2437   002548  51E4               	movf	(efgtoa@i+1)& (0+255),w,b
  2438   00254A  0A80               	xorlw	128
  2439   00254C  6E3A               	movwf	??_efgtoa^0,c
  2440   00254E  51DA               	movf	(efgtoa@m+1)& (0+255),w,b
  2441   002550  0A80               	xorlw	128
  2442   002552  583A               	subwfb	??_efgtoa^0,w,c
  2443   002554  A0D8               	btfss	status,0,c
  2444   002556  EFAF  F012         	goto	u3251
  2445   00255A  EFB1  F012         	goto	u3250
  2446   00255E                     u3251:
  2447   00255E  EF27  F012         	goto	l2937
  2448   002562                     u3250:
  2449   002562                     
  2450                           ; BSR set to: 0
  2451                           ;C:\Program Files\Microchip\xc8\v2.46\pic\sources\c99\common\doprnt.c: 745:     l = u.f*
      +                          5.0;
  2452   002562  C0F4  F00F         	movff	efgtoa@u,___flmul@b
  2453   002566  C0F5  F010         	movff	efgtoa@u+1,___flmul@b+1
  2454   00256A  C0F6  F011         	movff	efgtoa@u+2,___flmul@b+2
  2455   00256E  C0F7  F012         	movff	efgtoa@u+3,___flmul@b+3
  2456   002572  0E00               	movlw	0
  2457   002574  6E13               	movwf	___flmul@a^0,c
  2458   002576  0E00               	movlw	0
  2459   002578  6E14               	movwf	(___flmul@a+1)^0,c
  2460   00257A  0EA0               	movlw	160
  2461   00257C  6E15               	movwf	(___flmul@a+2)^0,c
  2462   00257E  0E40               	movlw	64
  2463   002580  6E16               	movwf	(___flmul@a+3)^0,c
  2464   002582  EC45  F017         	call	___flmul	;wreg free
  2465   002586  C00F  F0E9         	movff	?___flmul,efgtoa@l
  2466   00258A  C010  F0EA         	movff	?___flmul+1,efgtoa@l+1
  2467   00258E  C011  F0EB         	movff	?___flmul+2,efgtoa@l+2
  2468   002592  C012  F0EC         	movff	?___flmul+3,efgtoa@l+3
  2469   002596                     
  2470                           ;C:\Program Files\Microchip\xc8\v2.46\pic\sources\c99\common\doprnt.c: 746:     if (h < 
      +                          l) {
  2471   002596  C0E5  F028         	movff	efgtoa@h,___flge@ff1
  2472   00259A  C0E6  F029         	movff	efgtoa@h+1,___flge@ff1+1
  2473   00259E  C0E7  F02A         	movff	efgtoa@h+2,___flge@ff1+2
  2474   0025A2  C0E8  F02B         	movff	efgtoa@h+3,___flge@ff1+3
  2475   0025A6  C0E9  F02C         	movff	efgtoa@l,___flge@ff2
  2476   0025AA  C0EA  F02D         	movff	efgtoa@l+1,___flge@ff2+1
  2477   0025AE  C0EB  F02E         	movff	efgtoa@l+2,___flge@ff2+2
  2478   0025B2  C0EC  F02F         	movff	efgtoa@l+3,___flge@ff2+3
  2479   0025B6  ECA8  F01E         	call	___flge	;wreg free
  2480   0025BA  B0D8               	btfsc	status,0,c
  2481   0025BC  EFE2  F012         	goto	u3261
  2482   0025C0  EFE4  F012         	goto	u3260
  2483   0025C4                     u3261:
  2484   0025C4  EFEF  F012         	goto	l2953
  2485   0025C8                     u3260:
  2486   0025C8                     
  2487                           ;C:\Program Files\Microchip\xc8\v2.46\pic\sources\c99\common\doprnt.c: 747:         l = 
      +                          0.0;
  2488   0025C8  0E00               	movlw	0
  2489   0025CA  0100               	movlb	0	; () banked
  2490   0025CC  6FE9               	movwf	efgtoa@l& (0+255),b
  2491   0025CE  0E00               	movlw	0
  2492   0025D0  6FEA               	movwf	(efgtoa@l+1)& (0+255),b
  2493   0025D2  0E00               	movlw	0
  2494   0025D4  6FEB               	movwf	(efgtoa@l+2)& (0+255),b
  2495   0025D6  0E00               	movlw	0
  2496   0025D8  6FEC               	movwf	(efgtoa@l+3)& (0+255),b
  2497                           
  2498                           ;C:\Program Files\Microchip\xc8\v2.46\pic\sources\c99\common\doprnt.c: 748:     } else {
  2499   0025DA  EF18  F013         	goto	l2959
  2500   0025DE                     l2953:
  2501                           
  2502                           ;C:\Program Files\Microchip\xc8\v2.46\pic\sources\c99\common\doprnt.c: 750:         if (
      +                          (h == l) && !(d % 2)) {
  2503   0025DE  C0E5  F001         	movff	efgtoa@h,___fleq@ff1
  2504   0025E2  C0E6  F002         	movff	efgtoa@h+1,___fleq@ff1+1
  2505   0025E6  C0E7  F003         	movff	efgtoa@h+2,___fleq@ff1+2
  2506   0025EA  C0E8  F004         	movff	efgtoa@h+3,___fleq@ff1+3
  2507   0025EE  C0E9  F005         	movff	efgtoa@l,___fleq@ff2
  2508   0025F2  C0EA  F006         	movff	efgtoa@l+1,___fleq@ff2+1
  2509   0025F6  C0EB  F007         	movff	efgtoa@l+2,___fleq@ff2+2
  2510   0025FA  C0EC  F008         	movff	efgtoa@l+3,___fleq@ff2+3
  2511   0025FE  ECC7  F020         	call	___fleq	;wreg free
  2512   002602  A0D8               	btfss	status,0,c
  2513   002604  EF06  F013         	goto	u3271
  2514   002608  EF08  F013         	goto	u3270
  2515   00260C                     u3271:
  2516   00260C  EF18  F013         	goto	l2959
  2517   002610                     u3270:
  2518   002610  0100               	movlb	0	; () banked
  2519   002612  B1D7               	btfsc	efgtoa@d& (0+255),0,b
  2520   002614  EF0E  F013         	goto	u3281
  2521   002618  EF10  F013         	goto	u3280
  2522   00261C                     u3281:
  2523   00261C  EF18  F013         	goto	l2959
  2524   002620                     u3280:
  2525   002620                     
  2526                           ; BSR set to: 0
  2527                           ;C:\Program Files\Microchip\xc8\v2.46\pic\sources\c99\common\doprnt.c: 751:             
      +                          l = 0.0;
  2528   002620  0E00               	movlw	0
  2529   002622  6FE9               	movwf	efgtoa@l& (0+255),b
  2530   002624  0E00               	movlw	0
  2531   002626  6FEA               	movwf	(efgtoa@l+1)& (0+255),b
  2532   002628  0E00               	movlw	0
  2533   00262A  6FEB               	movwf	(efgtoa@l+2)& (0+255),b
  2534   00262C  0E00               	movlw	0
  2535   00262E  6FEC               	movwf	(efgtoa@l+3)& (0+255),b
  2536   002630                     l2959:
  2537                           
  2538                           ;C:\Program Files\Microchip\xc8\v2.46\pic\sources\c99\common\doprnt.c: 756:     h = g.f 
      +                          + l;
  2539   002630  C0F0  F001         	movff	efgtoa@g,___fladd@b
  2540   002634  C0F1  F002         	movff	efgtoa@g+1,___fladd@b+1
  2541   002638  C0F2  F003         	movff	efgtoa@g+2,___fladd@b+2
  2542   00263C  C0F3  F004         	movff	efgtoa@g+3,___fladd@b+3
  2543   002640  C0E9  F005         	movff	efgtoa@l,___fladd@a
  2544   002644  C0EA  F006         	movff	efgtoa@l+1,___fladd@a+1
  2545   002648  C0EB  F007         	movff	efgtoa@l+2,___fladd@a+2
  2546   00264C  C0EC  F008         	movff	efgtoa@l+3,___fladd@a+3
  2547   002650  ECE5  F014         	call	___fladd	;wreg free
  2548   002654  C001  F0E5         	movff	?___fladd,efgtoa@h
  2549   002658  C002  F0E6         	movff	?___fladd+1,efgtoa@h+1
  2550   00265C  C003  F0E7         	movff	?___fladd+2,efgtoa@h+2
  2551   002660  C004  F0E8         	movff	?___fladd+3,efgtoa@h+3
  2552   002664                     
  2553                           ;C:\Program Files\Microchip\xc8\v2.46\pic\sources\c99\common\doprnt.c: 758:  if (h >= (o
      +                          u.f*10.0)) {
  2554   002664  C0E5  F028         	movff	efgtoa@h,___flge@ff1
  2555   002668  C0E6  F029         	movff	efgtoa@h+1,___flge@ff1+1
  2556   00266C  C0E7  F02A         	movff	efgtoa@h+2,___flge@ff1+2
  2557   002670  C0E8  F02B         	movff	efgtoa@h+3,___flge@ff1+3
  2558   002674  0E00               	movlw	0
  2559   002676  6E13               	movwf	___flmul@a^0,c
  2560   002678  0E00               	movlw	0
  2561   00267A  6E14               	movwf	(___flmul@a+1)^0,c
  2562   00267C  0E20               	movlw	32
  2563   00267E  6E15               	movwf	(___flmul@a+2)^0,c
  2564   002680  0E41               	movlw	65
  2565   002682  6E16               	movwf	(___flmul@a+3)^0,c
  2566   002684  C0DF  F00F         	movff	efgtoa@ou,___flmul@b
  2567   002688  C0E0  F010         	movff	efgtoa@ou+1,___flmul@b+1
  2568   00268C  C0E1  F011         	movff	efgtoa@ou+2,___flmul@b+2
  2569   002690  C0E2  F012         	movff	efgtoa@ou+3,___flmul@b+3
  2570   002694  EC45  F017         	call	___flmul	;wreg free
  2571   002698  C00F  F02C         	movff	?___flmul,___flge@ff2
  2572   00269C  C010  F02D         	movff	?___flmul+1,___flge@ff2+1
  2573   0026A0  C011  F02E         	movff	?___flmul+2,___flge@ff2+2
  2574   0026A4  C012  F02F         	movff	?___flmul+3,___flge@ff2+3
  2575   0026A8  ECA8  F01E         	call	___flge	;wreg free
  2576   0026AC  A0D8               	btfss	status,0,c
  2577   0026AE  EF5B  F013         	goto	u3291
  2578   0026B2  EF5D  F013         	goto	u3290
  2579   0026B6                     u3291:
  2580   0026B6  EF86  F013         	goto	l2971
  2581   0026BA                     u3290:
  2582   0026BA                     
  2583                           ;C:\Program Files\Microchip\xc8\v2.46\pic\sources\c99\common\doprnt.c: 759:   e++;
  2584   0026BA  0100               	movlb	0	; () banked
  2585   0026BC  4BDB               	infsnz	efgtoa@e& (0+255),f,b
  2586   0026BE  2BDC               	incf	(efgtoa@e+1)& (0+255),f,b
  2587   0026C0                     
  2588                           ; BSR set to: 0
  2589                           ;C:\Program Files\Microchip\xc8\v2.46\pic\sources\c99\common\doprnt.c: 760:   ou.f *= 10
      +                          .0;
  2590   0026C0  C0DF  F00F         	movff	efgtoa@ou,___flmul@b
  2591   0026C4  C0E0  F010         	movff	efgtoa@ou+1,___flmul@b+1
  2592   0026C8  C0E1  F011         	movff	efgtoa@ou+2,___flmul@b+2
  2593   0026CC  C0E2  F012         	movff	efgtoa@ou+3,___flmul@b+3
  2594   0026D0  0E00               	movlw	0
  2595   0026D2  6E13               	movwf	___flmul@a^0,c
  2596   0026D4  0E00               	movlw	0
  2597   0026D6  6E14               	movwf	(___flmul@a+1)^0,c
  2598   0026D8  0E20               	movlw	32
  2599   0026DA  6E15               	movwf	(___flmul@a+2)^0,c
  2600   0026DC  0E41               	movlw	65
  2601   0026DE  6E16               	movwf	(___flmul@a+3)^0,c
  2602   0026E0  EC45  F017         	call	___flmul	;wreg free
  2603   0026E4  C00F  F0DF         	movff	?___flmul,efgtoa@ou
  2604   0026E8  C010  F0E0         	movff	?___flmul+1,efgtoa@ou+1
  2605   0026EC  C011  F0E1         	movff	?___flmul+2,efgtoa@ou+2
  2606   0026F0  C012  F0E2         	movff	?___flmul+3,efgtoa@ou+3
  2607   0026F4                     
  2608                           ;C:\Program Files\Microchip\xc8\v2.46\pic\sources\c99\common\doprnt.c: 762:   if (nmode 
      +                          == 'f') {
  2609   0026F4  0E66               	movlw	102
  2610   0026F6  0100               	movlb	0	; () banked
  2611   0026F8  19D6               	xorwf	efgtoa@nmode& (0+255),w,b
  2612   0026FA  A4D8               	btfss	status,2,c
  2613   0026FC  EF82  F013         	goto	u3301
  2614   002700  EF84  F013         	goto	u3300
  2615   002704                     u3301:
  2616   002704  EF86  F013         	goto	l2971
  2617   002708                     u3300:
  2618   002708                     
  2619                           ; BSR set to: 0
  2620                           ;C:\Program Files\Microchip\xc8\v2.46\pic\sources\c99\common\doprnt.c: 764:    m++;
  2621   002708  4BD9               	infsnz	efgtoa@m& (0+255),f,b
  2622   00270A  2BDA               	incf	(efgtoa@m+1)& (0+255),f,b
  2623   00270C                     l2971:
  2624                           
  2625                           ;C:\Program Files\Microchip\xc8\v2.46\pic\sources\c99\common\doprnt.c: 770:     u = ou;
  2626   00270C  C0DF  F0F4         	movff	efgtoa@ou,efgtoa@u
  2627   002710  C0E0  F0F5         	movff	efgtoa@ou+1,efgtoa@u+1
  2628   002714  C0E1  F0F6         	movff	efgtoa@ou+2,efgtoa@u+2
  2629   002718  C0E2  F0F7         	movff	efgtoa@ou+3,efgtoa@u+3
  2630   00271C                     
  2631                           ;C:\Program Files\Microchip\xc8\v2.46\pic\sources\c99\common\doprnt.c: 774:  ne = e;
  2632   00271C  C0DB  F0CC         	movff	efgtoa@e,efgtoa@ne
  2633   002720  C0DC  F0CD         	movff	efgtoa@e+1,efgtoa@ne+1
  2634   002724                     
  2635                           ;C:\Program Files\Microchip\xc8\v2.46\pic\sources\c99\common\doprnt.c: 776:     pp = 0;
  2636   002724  0E00               	movlw	0
  2637   002726  0100               	movlb	0	; () banked
  2638   002728  6FD4               	movwf	efgtoa@pp& (0+255),b
  2639   00272A                     
  2640                           ; BSR set to: 0
  2641                           ;C:\Program Files\Microchip\xc8\v2.46\pic\sources\c99\common\doprnt.c: 777:     t = 0;
  2642   00272A  0E00               	movlw	0
  2643   00272C  6FD1               	movwf	(efgtoa@t+1)& (0+255),b
  2644   00272E  0E00               	movlw	0
  2645   002730  6FD0               	movwf	efgtoa@t& (0+255),b
  2646   002732                     
  2647                           ; BSR set to: 0
  2648                           ;C:\Program Files\Microchip\xc8\v2.46\pic\sources\c99\common\doprnt.c: 778:     i = 0;
  2649   002732  0E00               	movlw	0
  2650   002734  6FE4               	movwf	(efgtoa@i+1)& (0+255),b
  2651   002736  0E00               	movlw	0
  2652   002738  6FE3               	movwf	efgtoa@i& (0+255),b
  2653                           
  2654                           ;C:\Program Files\Microchip\xc8\v2.46\pic\sources\c99\common\doprnt.c: 779:     while ((
      +                          i < m) && (n < (80 - 5))) {
  2655   00273A  EF7E  F014         	goto	l3021
  2656   00273E                     l2981:
  2657                           
  2658                           ; BSR set to: 0
  2659                           ;C:\Program Files\Microchip\xc8\v2.46\pic\sources\c99\common\doprnt.c: 780:         l = 
      +                          floorf(h/u.f);
  2660   00273E  C0E5  F001         	movff	efgtoa@h,___fldiv@b
  2661   002742  C0E6  F002         	movff	efgtoa@h+1,___fldiv@b+1
  2662   002746  C0E7  F003         	movff	efgtoa@h+2,___fldiv@b+2
  2663   00274A  C0E8  F004         	movff	efgtoa@h+3,___fldiv@b+3
  2664   00274E  C0F4  F005         	movff	efgtoa@u,___fldiv@a
  2665   002752  C0F5  F006         	movff	efgtoa@u+1,___fldiv@a+1
  2666   002756  C0F6  F007         	movff	efgtoa@u+2,___fldiv@a+2
  2667   00275A  C0F7  F008         	movff	efgtoa@u+3,___fldiv@a+3
  2668   00275E  EC6C  F019         	call	___fldiv	;wreg free
  2669   002762  C001  F01A         	movff	?___fldiv,floorf@x
  2670   002766  C002  F01B         	movff	?___fldiv+1,floorf@x+1
  2671   00276A  C003  F01C         	movff	?___fldiv+2,floorf@x+2
  2672   00276E  C004  F01D         	movff	?___fldiv+3,floorf@x+3
  2673   002772  EC42  F01C         	call	_floorf	;wreg free
  2674   002776  C01A  F0E9         	movff	?_floorf,efgtoa@l
  2675   00277A  C01B  F0EA         	movff	?_floorf+1,efgtoa@l+1
  2676   00277E  C01C  F0EB         	movff	?_floorf+2,efgtoa@l+2
  2677   002782  C01D  F0EC         	movff	?_floorf+3,efgtoa@l+3
  2678                           
  2679                           ;C:\Program Files\Microchip\xc8\v2.46\pic\sources\c99\common\doprnt.c: 781:         d = 
      +                          (int)l > 9 ? 9 : (int)l;
  2680   002786  C0E9  F001         	movff	efgtoa@l,___fltol@f1
  2681   00278A  C0EA  F002         	movff	efgtoa@l+1,___fltol@f1+1
  2682   00278E  C0EB  F003         	movff	efgtoa@l+2,___fltol@f1+2
  2683   002792  C0EC  F004         	movff	efgtoa@l+3,___fltol@f1+3
  2684   002796  EC25  F01E         	call	___fltol	;wreg free
  2685   00279A  BE02               	btfsc	(?___fltol+1)^0,7,c
  2686   00279C  EFDB  F013         	goto	u3310
  2687   0027A0  5002               	movf	(?___fltol+1)^0,w,c
  2688   0027A2  E107               	bnz	u3311
  2689   0027A4  0E0A               	movlw	10
  2690   0027A6  5C01               	subwf	?___fltol^0,w,c
  2691   0027A8  B0D8               	btfsc	status,0,c
  2692   0027AA  EFD9  F013         	goto	u3311
  2693   0027AE  EFDB  F013         	goto	u3310
  2694   0027B2                     u3311:
  2695   0027B2  EFEB  F013         	goto	l2985
  2696   0027B6                     u3310:
  2697   0027B6  C0E9  F001         	movff	efgtoa@l,___fltol@f1
  2698   0027BA  C0EA  F002         	movff	efgtoa@l+1,___fltol@f1+1
  2699   0027BE  C0EB  F003         	movff	efgtoa@l+2,___fltol@f1+2
  2700   0027C2  C0EC  F004         	movff	efgtoa@l+3,___fltol@f1+3
  2701   0027C6  EC25  F01E         	call	___fltol	;wreg free
  2702   0027CA  C001  F0D7         	movff	?___fltol,efgtoa@d
  2703   0027CE  C002  F0D8         	movff	?___fltol+1,efgtoa@d+1
  2704   0027D2  EFF0  F013         	goto	l857
  2705   0027D6                     l2985:
  2706   0027D6  0E00               	movlw	0
  2707   0027D8  0100               	movlb	0	; () banked
  2708   0027DA  6FD8               	movwf	(efgtoa@d+1)& (0+255),b
  2709   0027DC  0E09               	movlw	9
  2710   0027DE  6FD7               	movwf	efgtoa@d& (0+255),b
  2711   0027E0                     l857:
  2712                           
  2713                           ;C:\Program Files\Microchip\xc8\v2.46\pic\sources\c99\common\doprnt.c: 792:   {;C:\Progr
      +                          am Files\Microchip\xc8\v2.46\pic\sources\c99\common\doprnt.c: 793:             if (!pp &
      +                          & (ne < 0)) {
  2714   0027E0  0100               	movlb	0	; () banked
  2715   0027E2  51D4               	movf	efgtoa@pp& (0+255),w,b
  2716   0027E4  A4D8               	btfss	status,2,c
  2717   0027E6  EFF7  F013         	goto	u3321
  2718   0027EA  EFF9  F013         	goto	u3320
  2719   0027EE                     u3321:
  2720   0027EE  EF1D  F014         	goto	l3005
  2721   0027F2                     u3320:
  2722   0027F2                     
  2723                           ; BSR set to: 0
  2724   0027F2  BFCD               	btfsc	(efgtoa@ne+1)& (0+255),7,b
  2725   0027F4  EF00  F014         	goto	u3330
  2726   0027F8  EFFE  F013         	goto	u3331
  2727   0027FC                     u3331:
  2728   0027FC  EF1D  F014         	goto	l3005
  2729   002800                     u3330:
  2730   002800                     
  2731                           ; BSR set to: 0
  2732                           ;C:\Program Files\Microchip\xc8\v2.46\pic\sources\c99\common\doprnt.c: 794:             
      +                              dbuf[n++] = '.';
  2733   002800  51EE               	movf	efgtoa@n& (0+255),w,b
  2734   002802  0F72               	addlw	low _dbuf
  2735   002804  6ED9               	movwf	fsr2l,c
  2736   002806  6ADA               	clrf	fsr2h,c
  2737   002808  0E2E               	movlw	46
  2738   00280A  6EDF               	movwf	indf2,c
  2739   00280C                     
  2740                           ; BSR set to: 0
  2741   00280C  4BEE               	infsnz	efgtoa@n& (0+255),f,b
  2742   00280E  2BEF               	incf	(efgtoa@n+1)& (0+255),f,b
  2743   002810                     
  2744                           ; BSR set to: 0
  2745                           ;C:\Program Files\Microchip\xc8\v2.46\pic\sources\c99\common\doprnt.c: 795:             
      +                              --w;
  2746   002810  07DD               	decf	efgtoa@w& (0+255),f,b
  2747   002812  A0D8               	btfss	status,0,c
  2748   002814  07DE               	decf	(efgtoa@w+1)& (0+255),f,b
  2749   002816                     
  2750                           ; BSR set to: 0
  2751                           ;C:\Program Files\Microchip\xc8\v2.46\pic\sources\c99\common\doprnt.c: 796:             
      +                              pp = 1;
  2752   002816  0E01               	movlw	1
  2753   002818  6FD4               	movwf	efgtoa@pp& (0+255),b
  2754   00281A  EF1D  F014         	goto	l3005
  2755   00281E                     l2997:
  2756                           
  2757                           ; BSR set to: 0
  2758                           ;C:\Program Files\Microchip\xc8\v2.46\pic\sources\c99\common\doprnt.c: 799:             
      +                              dbuf[n++] = '0';
  2759   00281E  51EE               	movf	efgtoa@n& (0+255),w,b
  2760   002820  0F72               	addlw	low _dbuf
  2761   002822  6ED9               	movwf	fsr2l,c
  2762   002824  6ADA               	clrf	fsr2h,c
  2763   002826  0E30               	movlw	48
  2764   002828  6EDF               	movwf	indf2,c
  2765   00282A                     
  2766                           ; BSR set to: 0
  2767   00282A  4BEE               	infsnz	efgtoa@n& (0+255),f,b
  2768   00282C  2BEF               	incf	(efgtoa@n+1)& (0+255),f,b
  2769   00282E                     
  2770                           ; BSR set to: 0
  2771                           ;C:\Program Files\Microchip\xc8\v2.46\pic\sources\c99\common\doprnt.c: 800:             
      +                              --w;
  2772   00282E  07DD               	decf	efgtoa@w& (0+255),f,b
  2773   002830  A0D8               	btfss	status,0,c
  2774   002832  07DE               	decf	(efgtoa@w+1)& (0+255),f,b
  2775   002834                     
  2776                           ; BSR set to: 0
  2777                           ;C:\Program Files\Microchip\xc8\v2.46\pic\sources\c99\common\doprnt.c: 801:             
      +                              --t;
  2778   002834  07D0               	decf	efgtoa@t& (0+255),f,b
  2779   002836  A0D8               	btfss	status,0,c
  2780   002838  07D1               	decf	(efgtoa@t+1)& (0+255),f,b
  2781   00283A                     l3005:
  2782                           
  2783                           ; BSR set to: 0
  2784                           ;C:\Program Files\Microchip\xc8\v2.46\pic\sources\c99\common\doprnt.c: 798:             
      +                          while (t) {
  2785   00283A  51D0               	movf	efgtoa@t& (0+255),w,b
  2786   00283C  11D1               	iorwf	(efgtoa@t+1)& (0+255),w,b
  2787   00283E  A4D8               	btfss	status,2,c
  2788   002840  EF24  F014         	goto	u3341
  2789   002844  EF26  F014         	goto	u3340
  2790   002848                     u3341:
  2791   002848  EF0F  F014         	goto	l2997
  2792   00284C                     u3340:
  2793   00284C                     
  2794                           ; BSR set to: 0
  2795                           ;C:\Program Files\Microchip\xc8\v2.46\pic\sources\c99\common\doprnt.c: 803:             
      +                          dbuf[n++] = (char)((int)'0' + d);
  2796   00284C  51EE               	movf	efgtoa@n& (0+255),w,b
  2797   00284E  0F72               	addlw	low _dbuf
  2798   002850  6ED9               	movwf	fsr2l,c
  2799   002852  6ADA               	clrf	fsr2h,c
  2800   002854  51D7               	movf	efgtoa@d& (0+255),w,b
  2801   002856  0F30               	addlw	48
  2802   002858  6EDF               	movwf	indf2,c
  2803   00285A                     
  2804                           ; BSR set to: 0
  2805   00285A  4BEE               	infsnz	efgtoa@n& (0+255),f,b
  2806   00285C  2BEF               	incf	(efgtoa@n+1)& (0+255),f,b
  2807   00285E                     
  2808                           ; BSR set to: 0
  2809                           ;C:\Program Files\Microchip\xc8\v2.46\pic\sources\c99\common\doprnt.c: 804:             
      +                          --w;
  2810   00285E  07DD               	decf	efgtoa@w& (0+255),f,b
  2811   002860  A0D8               	btfss	status,0,c
  2812   002862  07DE               	decf	(efgtoa@w+1)& (0+255),f,b
  2813   002864                     
  2814                           ; BSR set to: 0
  2815                           ;C:\Program Files\Microchip\xc8\v2.46\pic\sources\c99\common\doprnt.c: 805:         };C:
      +                          \Program Files\Microchip\xc8\v2.46\pic\sources\c99\common\doprnt.c: 806:         h -= l*
      +                          u.f;
  2816   002864  C0E5  F028         	movff	efgtoa@h,___flsub@b
  2817   002868  C0E6  F029         	movff	efgtoa@h+1,___flsub@b+1
  2818   00286C  C0E7  F02A         	movff	efgtoa@h+2,___flsub@b+2
  2819   002870  C0E8  F02B         	movff	efgtoa@h+3,___flsub@b+3
  2820   002874  C0E9  F013         	movff	efgtoa@l,___flmul@a
  2821   002878  C0EA  F014         	movff	efgtoa@l+1,___flmul@a+1
  2822   00287C  C0EB  F015         	movff	efgtoa@l+2,___flmul@a+2
  2823   002880  C0EC  F016         	movff	efgtoa@l+3,___flmul@a+3
  2824   002884  C0F4  F00F         	movff	efgtoa@u,___flmul@b
  2825   002888  C0F5  F010         	movff	efgtoa@u+1,___flmul@b+1
  2826   00288C  C0F6  F011         	movff	efgtoa@u+2,___flmul@b+2
  2827   002890  C0F7  F012         	movff	efgtoa@u+3,___flmul@b+3
  2828   002894  EC45  F017         	call	___flmul	;wreg free
  2829   002898  C00F  F02C         	movff	?___flmul,___flsub@a
  2830   00289C  C010  F02D         	movff	?___flmul+1,___flsub@a+1
  2831   0028A0  C011  F02E         	movff	?___flmul+2,___flsub@a+2
  2832   0028A4  C012  F02F         	movff	?___flmul+3,___flsub@a+3
  2833   0028A8  EC07  F022         	call	___flsub	;wreg free
  2834   0028AC  C028  F0E5         	movff	?___flsub,efgtoa@h
  2835   0028B0  C029  F0E6         	movff	?___flsub+1,efgtoa@h+1
  2836   0028B4  C02A  F0E7         	movff	?___flsub+2,efgtoa@h+2
  2837   0028B8  C02B  F0E8         	movff	?___flsub+3,efgtoa@h+3
  2838   0028BC                     
  2839                           ;C:\Program Files\Microchip\xc8\v2.46\pic\sources\c99\common\doprnt.c: 807:         u.f 
      +                          = u.f/10.0;
  2840   0028BC  C0F4  F001         	movff	efgtoa@u,___fldiv@b
  2841   0028C0  C0F5  F002         	movff	efgtoa@u+1,___fldiv@b+1
  2842   0028C4  C0F6  F003         	movff	efgtoa@u+2,___fldiv@b+2
  2843   0028C8  C0F7  F004         	movff	efgtoa@u+3,___fldiv@b+3
  2844   0028CC  0E00               	movlw	0
  2845   0028CE  6E05               	movwf	___fldiv@a^0,c
  2846   0028D0  0E00               	movlw	0
  2847   0028D2  6E06               	movwf	(___fldiv@a+1)^0,c
  2848   0028D4  0E20               	movlw	32
  2849   0028D6  6E07               	movwf	(___fldiv@a+2)^0,c
  2850   0028D8  0E41               	movlw	65
  2851   0028DA  6E08               	movwf	(___fldiv@a+3)^0,c
  2852   0028DC  EC6C  F019         	call	___fldiv	;wreg free
  2853   0028E0  C001  F0F4         	movff	?___fldiv,efgtoa@u
  2854   0028E4  C002  F0F5         	movff	?___fldiv+1,efgtoa@u+1
  2855   0028E8  C003  F0F6         	movff	?___fldiv+2,efgtoa@u+2
  2856   0028EC  C004  F0F7         	movff	?___fldiv+3,efgtoa@u+3
  2857   0028F0                     
  2858                           ;C:\Program Files\Microchip\xc8\v2.46\pic\sources\c99\common\doprnt.c: 808:         --ne
      +                          ;
  2859   0028F0  0100               	movlb	0	; () banked
  2860   0028F2  07CC               	decf	efgtoa@ne& (0+255),f,b
  2861   0028F4  A0D8               	btfss	status,0,c
  2862   0028F6  07CD               	decf	(efgtoa@ne+1)& (0+255),f,b
  2863   0028F8                     
  2864                           ; BSR set to: 0
  2865                           ;C:\Program Files\Microchip\xc8\v2.46\pic\sources\c99\common\doprnt.c: 809:         ++i;
  2866   0028F8  4BE3               	infsnz	efgtoa@i& (0+255),f,b
  2867   0028FA  2BE4               	incf	(efgtoa@i+1)& (0+255),f,b
  2868   0028FC                     l3021:
  2869                           
  2870                           ; BSR set to: 0
  2871                           ;C:\Program Files\Microchip\xc8\v2.46\pic\sources\c99\common\doprnt.c: 779:     while ((
      +                          i < m) && (n < (80 - 5))) {
  2872   0028FC  51D9               	movf	efgtoa@m& (0+255),w,b
  2873   0028FE  5DE3               	subwf	efgtoa@i& (0+255),w,b
  2874   002900  51E4               	movf	(efgtoa@i+1)& (0+255),w,b
  2875   002902  0A80               	xorlw	128
  2876   002904  6E3A               	movwf	??_efgtoa^0,c
  2877   002906  51DA               	movf	(efgtoa@m+1)& (0+255),w,b
  2878   002908  0A80               	xorlw	128
  2879   00290A  583A               	subwfb	??_efgtoa^0,w,c
  2880   00290C  B0D8               	btfsc	status,0,c
  2881   00290E  EF8B  F014         	goto	u3351
  2882   002912  EF8D  F014         	goto	u3350
  2883   002916                     u3351:
  2884   002916  EF9B  F014         	goto	l3025
  2885   00291A                     u3350:
  2886   00291A                     
  2887                           ; BSR set to: 0
  2888   00291A  BFEF               	btfsc	(efgtoa@n+1)& (0+255),7,b
  2889   00291C  EF99  F014         	goto	u3361
  2890   002920  51EF               	movf	(efgtoa@n+1)& (0+255),w,b
  2891   002922  E109               	bnz	u3360
  2892   002924  0E4B               	movlw	75
  2893   002926  5DEE               	subwf	efgtoa@n& (0+255),w,b
  2894   002928  A0D8               	btfss	status,0,c
  2895   00292A  EF99  F014         	goto	u3361
  2896   00292E  EF9B  F014         	goto	u3360
  2897   002932                     u3361:
  2898   002932  EF9F  F013         	goto	l2981
  2899   002936                     u3360:
  2900   002936                     l3025:
  2901                           
  2902                           ; BSR set to: 0
  2903                           ;C:\Program Files\Microchip\xc8\v2.46\pic\sources\c99\common\doprnt.c: 816:  i = sizeof(
      +                          dbuf) - 1;
  2904   002936  0E00               	movlw	0
  2905   002938  6FE4               	movwf	(efgtoa@i+1)& (0+255),b
  2906   00293A  0E4F               	movlw	79
  2907   00293C  6FE3               	movwf	efgtoa@i& (0+255),b
  2908   00293E                     
  2909                           ; BSR set to: 0
  2910                           ;C:\Program Files\Microchip\xc8\v2.46\pic\sources\c99\common\doprnt.c: 817:     dbuf[i] 
      +                          = '\0';
  2911   00293E  51E3               	movf	efgtoa@i& (0+255),w,b
  2912   002940  0F72               	addlw	low _dbuf
  2913   002942  6ED9               	movwf	fsr2l,c
  2914   002944  6ADA               	clrf	fsr2h,c
  2915   002946  6ADF               	clrf	indf2,c
  2916   002948                     
  2917                           ; BSR set to: 0
  2918                           ;C:\Program Files\Microchip\xc8\v2.46\pic\sources\c99\common\doprnt.c: 848:  memcpy(&dbu
      +                          f[i-n], &dbuf[0], (size_t)n);
  2919   002948  51EE               	movf	efgtoa@n& (0+255),w,b
  2920   00294A  0872               	sublw	low _dbuf
  2921   00294C  25E3               	addwf	efgtoa@i& (0+255),w,b
  2922   00294E  6E01               	movwf	memcpy@d1^0,c
  2923   002950  0E72               	movlw	low _dbuf
  2924   002952  6E02               	movwf	memcpy@s1^0,c
  2925   002954  C0EE  F003         	movff	efgtoa@n,memcpy@n
  2926   002958  C0EF  F004         	movff	efgtoa@n+1,memcpy@n+1
  2927   00295C  EC4C  F022         	call	_memcpy	;wreg free
  2928   002960                     
  2929                           ;C:\Program Files\Microchip\xc8\v2.46\pic\sources\c99\common\doprnt.c: 849:  n = i-n;
  2930   002960  0100               	movlb	0	; () banked
  2931   002962  51EE               	movf	efgtoa@n& (0+255),w,b
  2932   002964  5DE3               	subwf	efgtoa@i& (0+255),w,b
  2933   002966  6FEE               	movwf	efgtoa@n& (0+255),b
  2934   002968  51EF               	movf	(efgtoa@n+1)& (0+255),w,b
  2935   00296A  59E4               	subwfb	(efgtoa@i+1)& (0+255),w,b
  2936   00296C  6FEF               	movwf	(efgtoa@n+1)& (0+255),b
  2937   00296E                     
  2938                           ; BSR set to: 0
  2939                           ;C:\Program Files\Microchip\xc8\v2.46\pic\sources\c99\common\doprnt.c: 850:  i = sign ==
      +                           0 ? 0 : 1;
  2940   00296E  51ED               	movf	efgtoa@sign& (0+255),w,b
  2941   002970  A4D8               	btfss	status,2,c
  2942   002972  EFBD  F014         	goto	u3371
  2943   002976  EFC0  F014         	goto	u3370
  2944   00297A                     u3371:
  2945   00297A  0E01               	movlw	1
  2946   00297C  EFC1  F014         	goto	u3380
  2947   002980                     u3370:
  2948   002980  0E00               	movlw	0
  2949   002982                     u3380:
  2950   002982  6FE3               	movwf	efgtoa@i& (0+255),b
  2951   002984  6BE4               	clrf	(efgtoa@i+1)& (0+255),b
  2952   002986                     
  2953                           ; BSR set to: 0
  2954                           ;C:\Program Files\Microchip\xc8\v2.46\pic\sources\c99\common\doprnt.c: 861:  if (sign) {
  2955   002986  51ED               	movf	efgtoa@sign& (0+255),w,b
  2956   002988  B4D8               	btfsc	status,2,c
  2957   00298A  EFC9  F014         	goto	u3391
  2958   00298E  EFCB  F014         	goto	u3390
  2959   002992                     u3391:
  2960   002992  EFD5  F014         	goto	l3039
  2961   002996                     u3390:
  2962   002996                     
  2963                           ; BSR set to: 0
  2964                           ;C:\Program Files\Microchip\xc8\v2.46\pic\sources\c99\common\doprnt.c: 862:   dbuf[--n] 
      +                          = sign;
  2965   002996  07EE               	decf	efgtoa@n& (0+255),f,b
  2966   002998  A0D8               	btfss	status,0,c
  2967   00299A  07EF               	decf	(efgtoa@n+1)& (0+255),f,b
  2968   00299C  51EE               	movf	efgtoa@n& (0+255),w,b
  2969   00299E  0F72               	addlw	low _dbuf
  2970   0029A0  6ED9               	movwf	fsr2l,c
  2971   0029A2  6ADA               	clrf	fsr2h,c
  2972   0029A4  0060  F3B7  FFDF   	movff	efgtoa@sign,indf2
  2973   0029AA                     l3039:
  2974                           
  2975                           ; BSR set to: 0
  2976                           ;C:\Program Files\Microchip\xc8\v2.46\pic\sources\c99\common\doprnt.c: 864:  w -= i;
  2977   0029AA  51E3               	movf	efgtoa@i& (0+255),w,b
  2978   0029AC  5FDD               	subwf	efgtoa@w& (0+255),f,b
  2979   0029AE  51E4               	movf	(efgtoa@i+1)& (0+255),w,b
  2980   0029B0  5BDE               	subwfb	(efgtoa@w+1)& (0+255),f,b
  2981   0029B2                     
  2982                           ; BSR set to: 0
  2983                           ;C:\Program Files\Microchip\xc8\v2.46\pic\sources\c99\common\doprnt.c: 867:     return (
      +                          void) pad(fp, &dbuf[n], w);
  2984   0029B2  C034  F00E         	movff	efgtoa@fp,pad@fp
  2985   0029B6  51EE               	movf	efgtoa@n& (0+255),w,b
  2986   0029B8  0F72               	addlw	low _dbuf
  2987   0029BA  6E0F               	movwf	pad@buf^0,c
  2988   0029BC  C0DD  F010         	movff	efgtoa@w,pad@p
  2989   0029C0  C0DE  F011         	movff	efgtoa@w+1,pad@p+1
  2990   0029C4  EC86  F021         	call	_pad	;wreg free
  2991   0029C8                     l824:
  2992   0029C8  0012               	return		;funcret
  2993   0029CA                     __end_of_efgtoa:
  2994                           	callstack 0
  2995                           
  2996 ;; *************** function _strcpy *****************
  2997 ;; Defined at:
  2998 ;;		line 3 in file "C:\Program Files\Microchip\xc8\v2.46\pic\sources\c99\common\strcpy.c"
  2999 ;; Parameters:    Size  Location     Type
  3000 ;;  dest            1    0[COMRAM] PTR unsigned char 
  3001 ;;		 -> dbuf(80), 
  3002 ;;  src             1    1[COMRAM] PTR const unsigned char 
  3003 ;;		 -> STR_7(4), STR_4(4), 
  3004 ;; Auto vars:     Size  Location     Type
  3005 ;;  d               1    3[COMRAM] PTR unsigned char 
  3006 ;;		 -> dbuf(80), 
  3007 ;; Return value:  Size  Location     Type
  3008 ;;                  1    wreg      PTR unsigned char 
  3009 ;; Registers used:
  3010 ;;		wreg, fsr2l, fsr2h, status,2, status,0, tblptrl, tblptrh, tblptru
  3011 ;; Tracked objects:
  3012 ;;		On entry : 0/0
  3013 ;;		On exit  : 0/0
  3014 ;;		Unchanged: 0/0
  3015 ;; Data sizes:     COMRAM   BANK0   BANK1   BANK2   BANK3   BANK4   BANK5   BANK6   BANK7   BANK8   BANK9  BANK10  BANK1
      +1  BANK12  BANK13  BANK14  BANK15  BANK16  BANK17  BANK18  BANK19  BANK20  BANK21  BANK22  BANK23  BANK24  BANK25  BANK2
      +6  BANK27  BANK28  BANK29  BANK30  BANK31
  3016 ;;      Params:         2       0       0       0       0       0       0       0       0       0       0       0       
      +0       0       0       0       0       0       0       0       0       0       0       0       0       0       0       
      +0       0       0       0       0       0
  3017 ;;      Locals:         1       0       0       0       0       0       0       0       0       0       0       0       
      +0       0       0       0       0       0       0       0       0       0       0       0       0       0       0       
      +0       0       0       0       0       0
  3018 ;;      Temps:          1       0       0       0       0       0       0       0       0       0       0       0       
      +0       0       0       0       0       0       0       0       0       0       0       0       0       0       0       
      +0       0       0       0       0       0
  3019 ;;      Totals:         4       0       0       0       0       0       0       0       0       0       0       0       
      +0       0       0       0       0       0       0       0       0       0       0       0       0       0       0       
      +0       0       0       0       0       0
  3020 ;;Total ram usage:        4 bytes
  3021 ;; Hardware stack levels used: 1
  3022 ;; This function calls:
  3023 ;;		Nothing
  3024 ;; This function is called by:
  3025 ;;		_efgtoa
  3026 ;; This function uses a non-reentrant model
  3027 ;;
  3028                           
  3029                           	psect	text8
  3030   004556                     __ptext8:
  3031                           	callstack 0
  3032   004556                     _strcpy:
  3033                           	callstack 26
  3034   004556  C001  F004         	movff	strcpy@dest,strcpy@d
  3035   00455A                     l2759:
  3036   00455A  2A02               	incf	strcpy@src^0,f,c
  3037   00455C  0402               	decf	strcpy@src^0,w,c
  3038   00455E  6E03               	movwf	??_strcpy^0,c
  3039   004560  0060  F00F  FFF6   	movff	??_strcpy,tblptrl
  3040   004566                     	if	1	;There is more than 1 active tblptr byte
  3041   004566  0E20               	movlw	high __smallconst
  3042   004568  6EF7               	movwf	tblptrh,c
  3043   00456A                     	endif
  3044   00456A                     	if	0	;tblptru may be non-zero
  3045   00456A                     	endif
  3046   00456A                     	if	1	;Program memory is > 0xFFFF, there are 3 active tblptr bytes
  3047   00456A  0E00               	movlw	low (__smallconst shr (0+16))
  3048   00456C  6EF8               	movwf	tblptru,c
  3049   00456E                     	endif
  3050   00456E  2A04               	incf	strcpy@d^0,f,c
  3051   004570  0404               	decf	strcpy@d^0,w,c
  3052   004572  6ED9               	movwf	fsr2l,c
  3053   004574  6ADA               	clrf	fsr2h,c
  3054   004576  0008               	tblrd		*
  3055   004578  006F FFD7 FFDF     	movff	tablat,indf2
  3056   00457E  50DF               	movf	indf2,w,c
  3057   004580  A4D8               	btfss	status,2,c
  3058   004582  EFC5  F022         	goto	u2931
  3059   004586  EFC7  F022         	goto	u2930
  3060   00458A                     u2931:
  3061   00458A  EFAD  F022         	goto	l2759
  3062   00458E                     u2930:
  3063   00458E  0012               	return		;funcret
  3064   004590                     __end_of_strcpy:
  3065                           	callstack 0
  3066                           
  3067 ;; *************** function _pad *****************
  3068 ;; Defined at:
  3069 ;;		line 193 in file "C:\Program Files\Microchip\xc8\v2.46\pic\sources\c99\common\doprnt.c"
  3070 ;; Parameters:    Size  Location     Type
  3071 ;;  fp              1   13[COMRAM] PTR struct _IO_FILE
  3072 ;;		 -> sprintf@f(12), 
  3073 ;;  buf             1   14[COMRAM] PTR unsigned char 
  3074 ;;		 -> dbuf(80), 
  3075 ;;  p               2   15[COMRAM] int 
  3076 ;; Auto vars:     Size  Location     Type
  3077 ;;  i               2   18[COMRAM] int 
  3078 ;; Return value:  Size  Location     Type
  3079 ;;                  1    wreg      void 
  3080 ;; Registers used:
  3081 ;;		wreg, fsr1l, fsr1h, fsr2l, fsr2h, status,2, status,0, cstack
  3082 ;; Tracked objects:
  3083 ;;		On entry : 0/0
  3084 ;;		On exit  : 0/0
  3085 ;;		Unchanged: 0/0
  3086 ;; Data sizes:     COMRAM   BANK0   BANK1   BANK2   BANK3   BANK4   BANK5   BANK6   BANK7   BANK8   BANK9  BANK10  BANK1
      +1  BANK12  BANK13  BANK14  BANK15  BANK16  BANK17  BANK18  BANK19  BANK20  BANK21  BANK22  BANK23  BANK24  BANK25  BANK2
      +6  BANK27  BANK28  BANK29  BANK30  BANK31
  3087 ;;      Params:         4       0       0       0       0       0       0       0       0       0       0       0       
      +0       0       0       0       0       0       0       0       0       0       0       0       0       0       0       
      +0       0       0       0       0       0
  3088 ;;      Locals:         2       0       0       0       0       0       0       0       0       0       0       0       
      +0       0       0       0       0       0       0       0       0       0       0       0       0       0       0       
      +0       0       0       0       0       0
  3089 ;;      Temps:          1       0       0       0       0       0       0       0       0       0       0       0       
      +0       0       0       0       0       0       0       0       0       0       0       0       0       0       0       
      +0       0       0       0       0       0
  3090 ;;      Totals:         7       0       0       0       0       0       0       0       0       0       0       0       
      +0       0       0       0       0       0       0       0       0       0       0       0       0       0       0       
      +0       0       0       0       0       0
  3091 ;;Total ram usage:        7 bytes
  3092 ;; Hardware stack levels used: 1
  3093 ;; Hardware stack levels required when called: 3
  3094 ;; This function calls:
  3095 ;;		_fputc
  3096 ;;		_fputs
  3097 ;; This function is called by:
  3098 ;;		_efgtoa
  3099 ;; This function uses a non-reentrant model
  3100 ;;
  3101                           
  3102                           	psect	text9
  3103   00430C                     __ptext9:
  3104                           	callstack 0
  3105   00430C                     _pad:
  3106                           	callstack 23
  3107   00430C                     
  3108                           ;C:\Program Files\Microchip\xc8\v2.46\pic\sources\c99\common\doprnt.c: 193: static void 
      +                          pad(FILE *fp, char *buf, int p);C:\Program Files\Microchip\xc8\v2.46\pic\sources\c99\com
      +                          mon\doprnt.c: 194: {;C:\Program Files\Microchip\xc8\v2.46\pic\sources\c99\common\doprnt.
      +                          c: 195:     int i;;C:\Program Files\Microchip\xc8\v2.46\pic\sources\c99\common\doprnt.c:
      +                           205:  if (p < 0) {
  3109   00430C  BE11               	btfsc	(pad@p+1)^0,7,c
  3110   00430E  EF8D  F021         	goto	u2840
  3111   004312  EF8B  F021         	goto	u2841
  3112   004316                     u2841:
  3113   004316  EF91  F021         	goto	l809
  3114   00431A                     u2840:
  3115   00431A                     
  3116                           ;C:\Program Files\Microchip\xc8\v2.46\pic\sources\c99\common\doprnt.c: 206:   p = 0;
  3117   00431A  0E00               	movlw	0
  3118   00431C  6E11               	movwf	(pad@p+1)^0,c
  3119   00431E  0E00               	movlw	0
  3120   004320  6E10               	movwf	pad@p^0,c
  3121   004322                     l809:
  3122                           
  3123                           ;C:\Program Files\Microchip\xc8\v2.46\pic\sources\c99\common\doprnt.c: 208:     i = 0;
  3124   004322  0E00               	movlw	0
  3125   004324  6E14               	movwf	(pad@i+1)^0,c
  3126   004326  0E00               	movlw	0
  3127   004328  6E13               	movwf	pad@i^0,c
  3128                           
  3129                           ;C:\Program Files\Microchip\xc8\v2.46\pic\sources\c99\common\doprnt.c: 209:     while (i
      +                           < p) {
  3130   00432A  EFA1  F021         	goto	l2731
  3131   00432E                     l2727:
  3132                           
  3133                           ;C:\Program Files\Microchip\xc8\v2.46\pic\sources\c99\common\doprnt.c: 210:         fput
      +                          c(' ', fp);
  3134   00432E  0E00               	movlw	0
  3135   004330  6E02               	movwf	(fputc@c+1)^0,c
  3136   004332  0E20               	movlw	32
  3137   004334  6E01               	movwf	fputc@c^0,c
  3138   004336  C00E  F003         	movff	pad@fp,fputc@fp
  3139   00433A  EC71  F020         	call	_fputc	;wreg free
  3140   00433E                     
  3141                           ;C:\Program Files\Microchip\xc8\v2.46\pic\sources\c99\common\doprnt.c: 211:         ++i;
  3142   00433E  4A13               	infsnz	pad@i^0,f,c
  3143   004340  2A14               	incf	(pad@i+1)^0,f,c
  3144   004342                     l2731:
  3145                           
  3146                           ;C:\Program Files\Microchip\xc8\v2.46\pic\sources\c99\common\doprnt.c: 209:     while (i
      +                           < p) {
  3147   004342  5010               	movf	pad@p^0,w,c
  3148   004344  5C13               	subwf	pad@i^0,w,c
  3149   004346  5014               	movf	(pad@i+1)^0,w,c
  3150   004348  0A80               	xorlw	128
  3151   00434A  6E12               	movwf	??_pad^0,c
  3152   00434C  5011               	movf	(pad@p+1)^0,w,c
  3153   00434E  0A80               	xorlw	128
  3154   004350  5812               	subwfb	??_pad^0,w,c
  3155   004352  A0D8               	btfss	status,0,c
  3156   004354  EFAE  F021         	goto	u2851
  3157   004358  EFB0  F021         	goto	u2850
  3158   00435C                     u2851:
  3159   00435C  EF97  F021         	goto	l2727
  3160   004360                     u2850:
  3161   004360                     
  3162                           ;C:\Program Files\Microchip\xc8\v2.46\pic\sources\c99\common\doprnt.c: 218:         fput
      +                          s((const char *)buf, fp);
  3163   004360  C00F  F009         	movff	pad@buf,fputs@s
  3164   004364  C00E  F00A         	movff	pad@fp,fputs@fp
  3165   004368  EC8D  F022         	call	_fputs	;wreg free
  3166   00436C  0012               	return		;funcret
  3167   00436E                     __end_of_pad:
  3168                           	callstack 0
  3169                           
  3170 ;; *************** function _fputs *****************
  3171 ;; Defined at:
  3172 ;;		line 8 in file "C:\Program Files\Microchip\xc8\v2.46\pic\sources\c99\common\nf_fputs.c"
  3173 ;; Parameters:    Size  Location     Type
  3174 ;;  s               1    8[COMRAM] PTR const unsigned char 
  3175 ;;		 -> dbuf(80), 
  3176 ;;  fp              1    9[COMRAM] PTR struct _IO_FILE
  3177 ;;		 -> sprintf@f(12), 
  3178 ;; Auto vars:     Size  Location     Type
  3179 ;;  i               2   11[COMRAM] int 
  3180 ;;  c               1   10[COMRAM] unsigned char 
  3181 ;; Return value:  Size  Location     Type
  3182 ;;                  2    8[COMRAM] int 
  3183 ;; Registers used:
  3184 ;;		wreg, fsr1l, fsr1h, fsr2l, fsr2h, status,2, status,0, cstack
  3185 ;; Tracked objects:
  3186 ;;		On entry : 0/0
  3187 ;;		On exit  : 0/0
  3188 ;;		Unchanged: 0/0
  3189 ;; Data sizes:     COMRAM   BANK0   BANK1   BANK2   BANK3   BANK4   BANK5   BANK6   BANK7   BANK8   BANK9  BANK10  BANK1
      +1  BANK12  BANK13  BANK14  BANK15  BANK16  BANK17  BANK18  BANK19  BANK20  BANK21  BANK22  BANK23  BANK24  BANK25  BANK2
      +6  BANK27  BANK28  BANK29  BANK30  BANK31
  3190 ;;      Params:         2       0       0       0       0       0       0       0       0       0       0       0       
      +0       0       0       0       0       0       0       0       0       0       0       0       0       0       0       
      +0       0       0       0       0       0
  3191 ;;      Locals:         3       0       0       0       0       0       0       0       0       0       0       0       
      +0       0       0       0       0       0       0       0       0       0       0       0       0       0       0       
      +0       0       0       0       0       0
  3192 ;;      Temps:          0       0       0       0       0       0       0       0       0       0       0       0       
      +0       0       0       0       0       0       0       0       0       0       0       0       0       0       0       
      +0       0       0       0       0       0
  3193 ;;      Totals:         5       0       0       0       0       0       0       0       0       0       0       0       
      +0       0       0       0       0       0       0       0       0       0       0       0       0       0       0       
      +0       0       0       0       0       0
  3194 ;;Total ram usage:        5 bytes
  3195 ;; Hardware stack levels used: 1
  3196 ;; Hardware stack levels required when called: 2
  3197 ;; This function calls:
  3198 ;;		_fputc
  3199 ;; This function is called by:
  3200 ;;		_pad
  3201 ;; This function uses a non-reentrant model
  3202 ;;
  3203                           
  3204                           	psect	text10
  3205   00451A                     __ptext10:
  3206                           	callstack 0
  3207   00451A                     _fputs:
  3208                           	callstack 23
  3209   00451A  0E00               	movlw	0
  3210   00451C  6E0D               	movwf	(fputs@i+1)^0,c
  3211   00451E  0E00               	movlw	0
  3212   004520  6E0C               	movwf	fputs@i^0,c
  3213   004522  EF9C  F022         	goto	l2351
  3214   004526                     l2347:
  3215   004526  C00B  F001         	movff	fputs@c,fputc@c
  3216   00452A  6A02               	clrf	(fputc@c+1)^0,c
  3217   00452C  C00A  F003         	movff	fputs@fp,fputc@fp
  3218   004530  EC71  F020         	call	_fputc	;wreg free
  3219   004534  4A0C               	infsnz	fputs@i^0,f,c
  3220   004536  2A0D               	incf	(fputs@i+1)^0,f,c
  3221   004538                     l2351:
  3222   004538  5009               	movf	fputs@s^0,w,c
  3223   00453A  240C               	addwf	fputs@i^0,w,c
  3224   00453C  6ED9               	movwf	fsr2l,c
  3225   00453E  6ADA               	clrf	fsr2h,c
  3226   004540  50DF               	movf	indf2,w,c
  3227   004542  6E0B               	movwf	fputs@c^0,c
  3228   004544  500B               	movf	fputs@c^0,w,c
  3229   004546  A4D8               	btfss	status,2,c
  3230   004548  EFA8  F022         	goto	u2251
  3231   00454C  EFAA  F022         	goto	u2250
  3232   004550                     u2251:
  3233   004550  EF93  F022         	goto	l2347
  3234   004554                     u2250:
  3235   004554  0012               	return		;funcret
  3236   004556                     __end_of_fputs:
  3237                           	callstack 0
  3238                           
  3239 ;; *************** function _fputc *****************
  3240 ;; Defined at:
  3241 ;;		line 8 in file "C:\Program Files\Microchip\xc8\v2.46\pic\sources\c99\common\nf_fputc.c"
  3242 ;; Parameters:    Size  Location     Type
  3243 ;;  c               2    0[COMRAM] int 
  3244 ;;  fp              1    2[COMRAM] PTR struct _IO_FILE
  3245 ;;		 -> sprintf@f(12), 
  3246 ;; Auto vars:     Size  Location     Type
  3247 ;;		None
  3248 ;; Return value:  Size  Location     Type
  3249 ;;                  2    0[COMRAM] int 
  3250 ;; Registers used:
  3251 ;;		wreg, fsr1l, fsr1h, fsr2l, fsr2h, status,2, status,0, cstack
  3252 ;; Tracked objects:
  3253 ;;		On entry : 0/0
  3254 ;;		On exit  : 0/0
  3255 ;;		Unchanged: 0/0
  3256 ;; Data sizes:     COMRAM   BANK0   BANK1   BANK2   BANK3   BANK4   BANK5   BANK6   BANK7   BANK8   BANK9  BANK10  BANK1
      +1  BANK12  BANK13  BANK14  BANK15  BANK16  BANK17  BANK18  BANK19  BANK20  BANK21  BANK22  BANK23  BANK24  BANK25  BANK2
      +6  BANK27  BANK28  BANK29  BANK30  BANK31
  3257 ;;      Params:         3       0       0       0       0       0       0       0       0       0       0       0       
      +0       0       0       0       0       0       0       0       0       0       0       0       0       0       0       
      +0       0       0       0       0       0
  3258 ;;      Locals:         0       0       0       0       0       0       0       0       0       0       0       0       
      +0       0       0       0       0       0       0       0       0       0       0       0       0       0       0       
      +0       0       0       0       0       0
  3259 ;;      Temps:          5       0       0       0       0       0       0       0       0       0       0       0       
      +0       0       0       0       0       0       0       0       0       0       0       0       0       0       0       
      +0       0       0       0       0       0
  3260 ;;      Totals:         8       0       0       0       0       0       0       0       0       0       0       0       
      +0       0       0       0       0       0       0       0       0       0       0       0       0       0       0       
      +0       0       0       0       0       0
  3261 ;;Total ram usage:        8 bytes
  3262 ;; Hardware stack levels used: 1
  3263 ;; Hardware stack levels required when called: 1
  3264 ;; This function calls:
  3265 ;;		_putch
  3266 ;; This function is called by:
  3267 ;;		_pad
  3268 ;;		_vfpfcnvrt
  3269 ;;		_fputs
  3270 ;; This function uses a non-reentrant model
  3271 ;;
  3272                           
  3273                           	psect	text11
  3274   0040E2                     __ptext11:
  3275                           	callstack 0
  3276   0040E2                     _fputc:
  3277                           	callstack 26
  3278   0040E2  5003               	movf	fputc@fp^0,w,c
  3279   0040E4  B4D8               	btfsc	status,2,c
  3280   0040E6  EF77  F020         	goto	u1821
  3281   0040EA  EF79  F020         	goto	u1820
  3282   0040EE                     u1821:
  3283   0040EE  EF81  F020         	goto	l2133
  3284   0040F2                     u1820:
  3285   0040F2  5003               	movf	fputc@fp^0,w,c
  3286   0040F4  A4D8               	btfss	status,2,c
  3287   0040F6  EF7F  F020         	goto	u1831
  3288   0040FA  EF81  F020         	goto	u1830
  3289   0040FE                     u1831:
  3290   0040FE  EF86  F020         	goto	l2135
  3291   004102                     u1830:
  3292   004102                     l2133:
  3293   004102  5001               	movf	fputc@c^0,w,c
  3294   004104  EC73  F023         	call	_putch
  3295   004108  EFC6  F020         	goto	l949
  3296   00410C                     l2135:
  3297   00410C  5003               	movf	fputc@fp^0,w,c
  3298   00410E  6ED9               	movwf	fsr2l,c
  3299   004110  6ADA               	clrf	fsr2h,c
  3300   004112  0E0A               	movlw	10
  3301   004114  26D9               	addwf	fsr2l,f,c
  3302   004116  50DE               	movf	postinc2,w,c
  3303   004118  10DE               	iorwf	postinc2,w,c
  3304   00411A  B4D8               	btfsc	status,2,c
  3305   00411C  EF92  F020         	goto	u1841
  3306   004120  EF94  F020         	goto	u1840
  3307   004124                     u1841:
  3308   004124  EFAD  F020         	goto	l2139
  3309   004128                     u1840:
  3310   004128  5003               	movf	fputc@fp^0,w,c
  3311   00412A  6ED9               	movwf	fsr2l,c
  3312   00412C  6ADA               	clrf	fsr2h,c
  3313   00412E  0E0A               	movlw	10
  3314   004130  26D9               	addwf	fsr2l,f,c
  3315   004132  5003               	movf	fputc@fp^0,w,c
  3316   004134  6EE1               	movwf	fsr1l,c
  3317   004136  6AE2               	clrf	fsr1h,c
  3318   004138  0E03               	movlw	3
  3319   00413A  26E1               	addwf	fsr1l,f,c
  3320   00413C  50DE               	movf	postinc2,w,c
  3321   00413E  5CE6               	subwf	postinc1,w,c
  3322   004140  50E6               	movf	postinc1,w,c
  3323   004142  0A80               	xorlw	128
  3324   004144  6E08               	movwf	(??_fputc+4)^0,c
  3325   004146  50DE               	movf	postinc2,w,c
  3326   004148  0A80               	xorlw	128
  3327   00414A  5808               	subwfb	(??_fputc+4)^0,w,c
  3328   00414C  B0D8               	btfsc	status,0,c
  3329   00414E  EFAB  F020         	goto	u1851
  3330   004152  EFAD  F020         	goto	u1850
  3331   004156                     u1851:
  3332   004156  EFC6  F020         	goto	l949
  3333   00415A                     u1850:
  3334   00415A                     l2139:
  3335   00415A  5003               	movf	fputc@fp^0,w,c
  3336   00415C  6ED9               	movwf	fsr2l,c
  3337   00415E  6ADA               	clrf	fsr2h,c
  3338   004160  0E03               	movlw	3
  3339   004162  26D9               	addwf	fsr2l,f,c
  3340   004164  50DF               	movf	indf2,w,c
  3341   004166  6E04               	movwf	??_fputc^0,c
  3342   004168  5003               	movf	fputc@fp^0,w,c
  3343   00416A  6ED9               	movwf	fsr2l,c
  3344   00416C  6ADA               	clrf	fsr2h,c
  3345   00416E  50DF               	movf	indf2,w,c
  3346   004170  2404               	addwf	??_fputc^0,w,c
  3347   004172  6ED9               	movwf	fsr2l,c
  3348   004174  6ADA               	clrf	fsr2h,c
  3349   004176  0060  F007  FFDF   	movff	fputc@c,indf2
  3350   00417C  5003               	movf	fputc@fp^0,w,c
  3351   00417E  6ED9               	movwf	fsr2l,c
  3352   004180  6ADA               	clrf	fsr2h,c
  3353   004182  0E03               	movlw	3
  3354   004184  26D9               	addwf	fsr2l,f,c
  3355   004186  2ADE               	incf	postinc2,f,c
  3356   004188  0E00               	movlw	0
  3357   00418A  22DD               	addwfc	postdec2,f,c
  3358   00418C                     l949:
  3359   00418C  0012               	return		;funcret
  3360   00418E                     __end_of_fputc:
  3361                           	callstack 0
  3362                           
  3363 ;; *************** function _putch *****************
  3364 ;; Defined at:
  3365 ;;		line 7 in file "C:\Program Files\Microchip\xc8\v2.46\pic\sources\c99\common\putch.c"
  3366 ;; Parameters:    Size  Location     Type
  3367 ;;  c               1    wreg     unsigned char 
  3368 ;; Auto vars:     Size  Location     Type
  3369 ;;  c               1    0[COMRAM] unsigned char 
  3370 ;; Return value:  Size  Location     Type
  3371 ;;                  1    wreg      void 
  3372 ;; Registers used:
  3373 ;;		wreg
  3374 ;; Tracked objects:
  3375 ;;		On entry : 0/0
  3376 ;;		On exit  : 0/0
  3377 ;;		Unchanged: 0/0
  3378 ;; Data sizes:     COMRAM   BANK0   BANK1   BANK2   BANK3   BANK4   BANK5   BANK6   BANK7   BANK8   BANK9  BANK10  BANK1
      +1  BANK12  BANK13  BANK14  BANK15  BANK16  BANK17  BANK18  BANK19  BANK20  BANK21  BANK22  BANK23  BANK24  BANK25  BANK2
      +6  BANK27  BANK28  BANK29  BANK30  BANK31
  3379 ;;      Params:         0       0       0       0       0       0       0       0       0       0       0       0       
      +0       0       0       0       0       0       0       0       0       0       0       0       0       0       0       
      +0       0       0       0       0       0
  3380 ;;      Locals:         0       0       0       0       0       0       0       0       0       0       0       0       
      +0       0       0       0       0       0       0       0       0       0       0       0       0       0       0       
      +0       0       0       0       0       0
  3381 ;;      Temps:          0       0       0       0       0       0       0       0       0       0       0       0       
      +0       0       0       0       0       0       0       0       0       0       0       0       0       0       0       
      +0       0       0       0       0       0
  3382 ;;      Totals:         0       0       0       0       0       0       0       0       0       0       0       0       
      +0       0       0       0       0       0       0       0       0       0       0       0       0       0       0       
      +0       0       0       0       0       0
  3383 ;;Total ram usage:        0 bytes
  3384 ;; Hardware stack levels used: 1
  3385 ;; This function calls:
  3386 ;;		Nothing
  3387 ;; This function is called by:
  3388 ;;		_fputc
  3389 ;; This function uses a non-reentrant model
  3390 ;;
  3391                           
  3392                           	psect	text12
  3393   0046E6                     __ptext12:
  3394                           	callstack 0
  3395   0046E6                     _putch:
  3396                           	callstack 26
  3397   0046E6  0012               	return		;funcret
  3398   0046E8                     __end_of_putch:
  3399                           	callstack 0
  3400                           
  3401 ;; *************** function _memcpy *****************
  3402 ;; Defined at:
  3403 ;;		line 4 in file "C:\Program Files\Microchip\xc8\v2.46\pic\sources\c99\common\memcpy.c"
  3404 ;; Parameters:    Size  Location     Type
  3405 ;;  d1              1    0[COMRAM] PTR void 
  3406 ;;		 -> dbuf(80), 
  3407 ;;  s1              1    1[COMRAM] PTR const void 
  3408 ;;		 -> dbuf(80), 
  3409 ;;  n               2    2[COMRAM] unsigned int 
  3410 ;; Auto vars:     Size  Location     Type
  3411 ;;  s               1    6[COMRAM] PTR const unsigned char 
  3412 ;;		 -> dbuf(80), 
  3413 ;;  d               1    5[COMRAM] PTR unsigned char 
  3414 ;;		 -> dbuf(80), 
  3415 ;;  tmp             1    4[COMRAM] unsigned char 
  3416 ;; Return value:  Size  Location     Type
  3417 ;;                  1    wreg      PTR void 
  3418 ;; Registers used:
  3419 ;;		wreg, fsr2l, fsr2h, status,2, status,0
  3420 ;; Tracked objects:
  3421 ;;		On entry : 0/0
  3422 ;;		On exit  : 0/0
  3423 ;;		Unchanged: 0/0
  3424 ;; Data sizes:     COMRAM   BANK0   BANK1   BANK2   BANK3   BANK4   BANK5   BANK6   BANK7   BANK8   BANK9  BANK10  BANK1
      +1  BANK12  BANK13  BANK14  BANK15  BANK16  BANK17  BANK18  BANK19  BANK20  BANK21  BANK22  BANK23  BANK24  BANK25  BANK2
      +6  BANK27  BANK28  BANK29  BANK30  BANK31
  3425 ;;      Params:         4       0       0       0       0       0       0       0       0       0       0       0       
      +0       0       0       0       0       0       0       0       0       0       0       0       0       0       0       
      +0       0       0       0       0       0
  3426 ;;      Locals:         3       0       0       0       0       0       0       0       0       0       0       0       
      +0       0       0       0       0       0       0       0       0       0       0       0       0       0       0       
      +0       0       0       0       0       0
  3427 ;;      Temps:          0       0       0       0       0       0       0       0       0       0       0       0       
      +0       0       0       0       0       0       0       0       0       0       0       0       0       0       0       
      +0       0       0       0       0       0
  3428 ;;      Totals:         7       0       0       0       0       0       0       0       0       0       0       0       
      +0       0       0       0       0       0       0       0       0       0       0       0       0       0       0       
      +0       0       0       0       0       0
  3429 ;;Total ram usage:        7 bytes
  3430 ;; Hardware stack levels used: 1
  3431 ;; This function calls:
  3432 ;;		Nothing
  3433 ;; This function is called by:
  3434 ;;		_efgtoa
  3435 ;; This function uses a non-reentrant model
  3436 ;;
  3437                           
  3438                           	psect	text13
  3439   004498                     __ptext13:
  3440                           	callstack 0
  3441   004498                     _memcpy:
  3442                           	callstack 26
  3443   004498  C002  F007         	movff	memcpy@s1,memcpy@s
  3444   00449C  C001  F006         	movff	memcpy@d1,memcpy@d
  3445   0044A0  EF5F  F022         	goto	l2805
  3446   0044A4                     l2799:
  3447   0044A4  5007               	movf	memcpy@s^0,w,c
  3448   0044A6  6ED9               	movwf	fsr2l,c
  3449   0044A8  6ADA               	clrf	fsr2h,c
  3450   0044AA  50DF               	movf	indf2,w,c
  3451   0044AC  6E05               	movwf	memcpy@tmp^0,c
  3452   0044AE  2A07               	incf	memcpy@s^0,f,c
  3453   0044B0  5006               	movf	memcpy@d^0,w,c
  3454   0044B2  6ED9               	movwf	fsr2l,c
  3455   0044B4  6ADA               	clrf	fsr2h,c
  3456   0044B6  0060  F017  FFDF   	movff	memcpy@tmp,indf2
  3457   0044BC  2A06               	incf	memcpy@d^0,f,c
  3458   0044BE                     l2805:
  3459   0044BE  0603               	decf	memcpy@n^0,f,c
  3460   0044C0  A0D8               	btfss	status,0,c
  3461   0044C2  0604               	decf	(memcpy@n+1)^0,f,c
  3462   0044C4  2803               	incf	memcpy@n^0,w,c
  3463   0044C6  E106               	bnz	u3051
  3464   0044C8  2804               	incf	(memcpy@n+1)^0,w,c
  3465   0044CA  A4D8               	btfss	status,2,c
  3466   0044CC  EF6A  F022         	goto	u3051
  3467   0044D0  EF6C  F022         	goto	u3050
  3468   0044D4                     u3051:
  3469   0044D4  EF52  F022         	goto	l2799
  3470   0044D8                     u3050:
  3471   0044D8  0012               	return		;funcret
  3472   0044DA                     __end_of_memcpy:
  3473                           	callstack 0
  3474                           
  3475 ;; *************** function _labs *****************
  3476 ;; Defined at:
  3477 ;;		line 1 in file "C:\Program Files\Microchip\xc8\v2.46\pic\sources\c99\common\labs.c"
  3478 ;; Parameters:    Size  Location     Type
  3479 ;;  a               4    0[COMRAM] long 
  3480 ;; Auto vars:     Size  Location     Type
  3481 ;;		None
  3482 ;; Return value:  Size  Location     Type
  3483 ;;                  4    0[COMRAM] long 
  3484 ;; Registers used:
  3485 ;;		wreg, status,2, status,0
  3486 ;; Tracked objects:
  3487 ;;		On entry : 0/0
  3488 ;;		On exit  : 0/0
  3489 ;;		Unchanged: 0/0
  3490 ;; Data sizes:     COMRAM   BANK0   BANK1   BANK2   BANK3   BANK4   BANK5   BANK6   BANK7   BANK8   BANK9  BANK10  BANK1
      +1  BANK12  BANK13  BANK14  BANK15  BANK16  BANK17  BANK18  BANK19  BANK20  BANK21  BANK22  BANK23  BANK24  BANK25  BANK2
      +6  BANK27  BANK28  BANK29  BANK30  BANK31
  3491 ;;      Params:         4       0       0       0       0       0       0       0       0       0       0       0       
      +0       0       0       0       0       0       0       0       0       0       0       0       0       0       0       
      +0       0       0       0       0       0
  3492 ;;      Locals:         0       0       0       0       0       0       0       0       0       0       0       0       
      +0       0       0       0       0       0       0       0       0       0       0       0       0       0       0       
      +0       0       0       0       0       0
  3493 ;;      Temps:          4       0       0       0       0       0       0       0       0       0       0       0       
      +0       0       0       0       0       0       0       0       0       0       0       0       0       0       0       
      +0       0       0       0       0       0
  3494 ;;      Totals:         8       0       0       0       0       0       0       0       0       0       0       0       
      +0       0       0       0       0       0       0       0       0       0       0       0       0       0       0       
      +0       0       0       0       0       0
  3495 ;;Total ram usage:        8 bytes
  3496 ;; Hardware stack levels used: 1
  3497 ;; This function calls:
  3498 ;;		Nothing
  3499 ;; This function is called by:
  3500 ;;		_efgtoa
  3501 ;; This function uses a non-reentrant model
  3502 ;;
  3503                           
  3504                           	psect	text14
  3505   00436E                     __ptext14:
  3506                           	callstack 0
  3507   00436E                     _labs:
  3508                           	callstack 26
  3509   00436E  BE04               	btfsc	(labs@a+3)^0,7,c
  3510   004370  EFBC  F021         	goto	u2941
  3511   004374  EFBE  F021         	goto	u2940
  3512   004378                     u2941:
  3513   004378  EFC8  F021         	goto	l2765
  3514   00437C                     u2940:
  3515   00437C  C001  F001         	movff	labs@a,?_labs
  3516   004380  C002  F002         	movff	labs@a+1,?_labs+1
  3517   004384  C003  F003         	movff	labs@a+2,?_labs+2
  3518   004388  C004  F004         	movff	labs@a+3,?_labs+3
  3519   00438C  EFE1  F021         	goto	l931
  3520   004390                     l2765:
  3521   004390  C001  F005         	movff	labs@a,??_labs
  3522   004394  C002  F006         	movff	labs@a+1,??_labs+1
  3523   004398  C003  F007         	movff	labs@a+2,??_labs+2
  3524   00439C  C004  F008         	movff	labs@a+3,??_labs+3
  3525   0043A0  1E05               	comf	??_labs^0,f,c
  3526   0043A2  1E06               	comf	(??_labs+1)^0,f,c
  3527   0043A4  1E07               	comf	(??_labs+2)^0,f,c
  3528   0043A6  1E08               	comf	(??_labs+3)^0,f,c
  3529   0043A8  2A05               	incf	??_labs^0,f,c
  3530   0043AA  0E00               	movlw	0
  3531   0043AC  2206               	addwfc	(??_labs+1)^0,f,c
  3532   0043AE  2207               	addwfc	(??_labs+2)^0,f,c
  3533   0043B0  2208               	addwfc	(??_labs+3)^0,f,c
  3534   0043B2  C005  F001         	movff	??_labs,?_labs
  3535   0043B6  C006  F002         	movff	??_labs+1,?_labs+1
  3536   0043BA  C007  F003         	movff	??_labs+2,?_labs+2
  3537   0043BE  C008  F004         	movff	??_labs+3,?_labs+3
  3538   0043C2                     l931:
  3539   0043C2  0012               	return		;funcret
  3540   0043C4                     __end_of_labs:
  3541                           	callstack 0
  3542                           
  3543 ;; *************** function _floorf *****************
  3544 ;; Defined at:
  3545 ;;		line 3 in file "C:\Program Files\Microchip\xc8\v2.46\pic\sources\c99\common\floorf.c"
  3546 ;; Parameters:    Size  Location     Type
  3547 ;;  x               4   25[COMRAM] float 
  3548 ;; Auto vars:     Size  Location     Type
  3549 ;;  u               4   41[COMRAM] struct .
  3550 ;;  m               4   35[COMRAM] unsigned long 
  3551 ;;  e               2   39[COMRAM] int 
  3552 ;; Return value:  Size  Location     Type
  3553 ;;                  4   25[COMRAM] float 
  3554 ;; Registers used:
  3555 ;;		wreg, status,2, status,0
  3556 ;; Tracked objects:
  3557 ;;		On entry : 0/0
  3558 ;;		On exit  : 0/0
  3559 ;;		Unchanged: 0/0
  3560 ;; Data sizes:     COMRAM   BANK0   BANK1   BANK2   BANK3   BANK4   BANK5   BANK6   BANK7   BANK8   BANK9  BANK10  BANK1
      +1  BANK12  BANK13  BANK14  BANK15  BANK16  BANK17  BANK18  BANK19  BANK20  BANK21  BANK22  BANK23  BANK24  BANK25  BANK2
      +6  BANK27  BANK28  BANK29  BANK30  BANK31
  3561 ;;      Params:         4       0       0       0       0       0       0       0       0       0       0       0       
      +0       0       0       0       0       0       0       0       0       0       0       0       0       0       0       
      +0       0       0       0       0       0
  3562 ;;      Locals:        10       0       0       0       0       0       0       0       0       0       0       0       
      +0       0       0       0       0       0       0       0       0       0       0       0       0       0       0       
      +0       0       0       0       0       0
  3563 ;;      Temps:          6       0       0       0       0       0       0       0       0       0       0       0       
      +0       0       0       0       0       0       0       0       0       0       0       0       0       0       0       
      +0       0       0       0       0       0
  3564 ;;      Totals:        20       0       0       0       0       0       0       0       0       0       0       0       
      +0       0       0       0       0       0       0       0       0       0       0       0       0       0       0       
      +0       0       0       0       0       0
  3565 ;;Total ram usage:       20 bytes
  3566 ;; Hardware stack levels used: 1
  3567 ;; This function calls:
  3568 ;;		Nothing
  3569 ;; This function is called by:
  3570 ;;		_efgtoa
  3571 ;; This function uses a non-reentrant model
  3572 ;;
  3573                           
  3574                           	psect	text15
  3575   003884                     __ptext15:
  3576                           	callstack 0
  3577   003884                     _floorf:
  3578                           	callstack 26
  3579   003884  C060  F02A         	movff	floorf@F521,floorf@u
  3580   003888  C061  F02B         	movff	floorf@F521+1,floorf@u+1
  3581   00388C  C062  F02C         	movff	floorf@F521+2,floorf@u+2
  3582   003890  C063  F02D         	movff	floorf@F521+3,floorf@u+3
  3583   003894  C01A  F02A         	movff	floorf@x,floorf@u
  3584   003898  C01B  F02B         	movff	floorf@x+1,floorf@u+1
  3585   00389C  C01C  F02C         	movff	floorf@x+2,floorf@u+2
  3586   0038A0  C01D  F02D         	movff	floorf@x+3,floorf@u+3
  3587   0038A4  0E81               	movlw	129
  3588   0038A6  6E1E               	movwf	??_floorf^0,c
  3589   0038A8  0EFF               	movlw	255
  3590   0038AA  6E1F               	movwf	(??_floorf+1)^0,c
  3591   0038AC  C02A  F020         	movff	floorf@u,??_floorf+2
  3592   0038B0  C02B  F021         	movff	floorf@u+1,??_floorf+3
  3593   0038B4  C02C  F022         	movff	floorf@u+2,??_floorf+4
  3594   0038B8  C02D  F023         	movff	floorf@u+3,??_floorf+5
  3595   0038BC  0E18               	movlw	24
  3596   0038BE  EF66  F01C         	goto	u2950
  3597   0038C2                     u2955:
  3598   0038C2  90D8               	bcf	status,0,c
  3599   0038C4  3223               	rrcf	(??_floorf+5)^0,f,c
  3600   0038C6  3222               	rrcf	(??_floorf+4)^0,f,c
  3601   0038C8  3221               	rrcf	(??_floorf+3)^0,f,c
  3602   0038CA  3220               	rrcf	(??_floorf+2)^0,f,c
  3603   0038CC                     u2950:
  3604   0038CC  2EE8               	decfsz	wreg,f,c
  3605   0038CE  EF61  F01C         	goto	u2955
  3606   0038D2  5020               	movf	(??_floorf+2)^0,w,c
  3607   0038D4  241E               	addwf	??_floorf^0,w,c
  3608   0038D6  6E28               	movwf	floorf@e^0,c
  3609   0038D8  0E00               	movlw	0
  3610   0038DA  201F               	addwfc	(??_floorf+1)^0,w,c
  3611   0038DC  6E29               	movwf	(floorf@e+1)^0,c
  3612   0038DE  BE29               	btfsc	(floorf@e+1)^0,7,c
  3613   0038E0  EF7B  F01C         	goto	u2961
  3614   0038E4  5029               	movf	(floorf@e+1)^0,w,c
  3615   0038E6  E109               	bnz	u2960
  3616   0038E8  0E17               	movlw	23
  3617   0038EA  5C28               	subwf	floorf@e^0,w,c
  3618   0038EC  A0D8               	btfss	status,0,c
  3619   0038EE  EF7B  F01C         	goto	u2961
  3620   0038F2  EF7D  F01C         	goto	u2960
  3621   0038F6                     u2961:
  3622   0038F6  EF87  F01C         	goto	l2775
  3623   0038FA                     u2960:
  3624   0038FA                     l2773:
  3625   0038FA  C01A  F01A         	movff	floorf@x,?_floorf
  3626   0038FE  C01B  F01B         	movff	floorf@x+1,?_floorf+1
  3627   003902  C01C  F01C         	movff	floorf@x+2,?_floorf+2
  3628   003906  C01D  F01D         	movff	floorf@x+3,?_floorf+3
  3629   00390A  EF4A  F01D         	goto	l917
  3630   00390E                     l2775:
  3631   00390E  BE29               	btfsc	(floorf@e+1)^0,7,c
  3632   003910  EF8C  F01C         	goto	u2971
  3633   003914  EF8E  F01C         	goto	u2970
  3634   003918                     u2971:
  3635   003918  EFFE  F01C         	goto	l2785
  3636   00391C                     u2970:
  3637   00391C  C028  F01E         	movff	floorf@e,??_floorf
  3638   003920  0EFF               	movlw	255
  3639   003922  6E1F               	movwf	(??_floorf+1)^0,c
  3640   003924  0EFF               	movlw	255
  3641   003926  6E20               	movwf	(??_floorf+2)^0,c
  3642   003928  0E7F               	movlw	127
  3643   00392A  6E21               	movwf	(??_floorf+3)^0,c
  3644   00392C  0E00               	movlw	0
  3645   00392E  6E22               	movwf	(??_floorf+4)^0,c
  3646   003930                     u2985:
  3647   003930  661E               	tstfsz	??_floorf^0,c
  3648   003932  EF9D  F01C         	goto	u2986
  3649   003936  EFA5  F01C         	goto	u2987
  3650   00393A                     u2986:
  3651   00393A  3422               	rlcf	(??_floorf+4)^0,w,c
  3652   00393C  3222               	rrcf	(??_floorf+4)^0,f,c
  3653   00393E  3221               	rrcf	(??_floorf+3)^0,f,c
  3654   003940  3220               	rrcf	(??_floorf+2)^0,f,c
  3655   003942  321F               	rrcf	(??_floorf+1)^0,f,c
  3656   003944  2E1E               	decfsz	??_floorf^0,f,c
  3657   003946  EF98  F01C         	goto	u2985
  3658   00394A                     u2987:
  3659   00394A  C01F  F024         	movff	??_floorf+1,floorf@m
  3660   00394E  C020  F025         	movff	??_floorf+2,floorf@m+1
  3661   003952  C021  F026         	movff	??_floorf+3,floorf@m+2
  3662   003956  C022  F027         	movff	??_floorf+4,floorf@m+3
  3663   00395A  5024               	movf	floorf@m^0,w,c
  3664   00395C  142A               	andwf	floorf@u^0,w,c
  3665   00395E  6E1E               	movwf	??_floorf^0,c
  3666   003960  5025               	movf	(floorf@m+1)^0,w,c
  3667   003962  142B               	andwf	(floorf@u+1)^0,w,c
  3668   003964  6E1F               	movwf	(??_floorf+1)^0,c
  3669   003966  5026               	movf	(floorf@m+2)^0,w,c
  3670   003968  142C               	andwf	(floorf@u+2)^0,w,c
  3671   00396A  6E20               	movwf	(??_floorf+2)^0,c
  3672   00396C  5027               	movf	(floorf@m+3)^0,w,c
  3673   00396E  142D               	andwf	(floorf@u+3)^0,w,c
  3674   003970  6E21               	movwf	(??_floorf+3)^0,c
  3675   003972  501E               	movf	??_floorf^0,w,c
  3676   003974  101F               	iorwf	(??_floorf+1)^0,w,c
  3677   003976  1020               	iorwf	(??_floorf+2)^0,w,c
  3678   003978  1021               	iorwf	(??_floorf+3)^0,w,c
  3679   00397A  A4D8               	btfss	status,2,c
  3680   00397C  EFC2  F01C         	goto	u2991
  3681   003980  EFC4  F01C         	goto	u2990
  3682   003984                     u2991:
  3683   003984  EFC6  F01C         	goto	l2781
  3684   003988                     u2990:
  3685   003988  EF7D  F01C         	goto	l2773
  3686   00398C                     l2781:
  3687   00398C  C02A  F01E         	movff	floorf@u,??_floorf
  3688   003990  C02B  F01F         	movff	floorf@u+1,??_floorf+1
  3689   003994  C02C  F020         	movff	floorf@u+2,??_floorf+2
  3690   003998  C02D  F021         	movff	floorf@u+3,??_floorf+3
  3691   00399C  0E20               	movlw	32
  3692   00399E  EFD6  F01C         	goto	u3000
  3693   0039A2                     u3005:
  3694   0039A2  90D8               	bcf	status,0,c
  3695   0039A4  3221               	rrcf	(??_floorf+3)^0,f,c
  3696   0039A6  3220               	rrcf	(??_floorf+2)^0,f,c
  3697   0039A8  321F               	rrcf	(??_floorf+1)^0,f,c
  3698   0039AA  321E               	rrcf	??_floorf^0,f,c
  3699   0039AC                     u3000:
  3700   0039AC  2EE8               	decfsz	wreg,f,c
  3701   0039AE  EFD1  F01C         	goto	u3005
  3702   0039B2  501E               	movf	??_floorf^0,w,c
  3703   0039B4  101F               	iorwf	(??_floorf+1)^0,w,c
  3704   0039B6  1020               	iorwf	(??_floorf+2)^0,w,c
  3705   0039B8  1021               	iorwf	(??_floorf+3)^0,w,c
  3706   0039BA  B4D8               	btfsc	status,2,c
  3707   0039BC  EFE2  F01C         	goto	u3011
  3708   0039C0  EFE4  F01C         	goto	u3010
  3709   0039C4                     u3011:
  3710   0039C4  EFEC  F01C         	goto	l920
  3711   0039C8                     u3010:
  3712   0039C8  5024               	movf	floorf@m^0,w,c
  3713   0039CA  262A               	addwf	floorf@u^0,f,c
  3714   0039CC  5025               	movf	(floorf@m+1)^0,w,c
  3715   0039CE  222B               	addwfc	(floorf@u+1)^0,f,c
  3716   0039D0  5026               	movf	(floorf@m+2)^0,w,c
  3717   0039D2  222C               	addwfc	(floorf@u+2)^0,f,c
  3718   0039D4  5027               	movf	(floorf@m+3)^0,w,c
  3719   0039D6  222D               	addwfc	(floorf@u+3)^0,f,c
  3720   0039D8                     l920:
  3721   0039D8  1C24               	comf	floorf@m^0,w,c
  3722   0039DA  6E1E               	movwf	??_floorf^0,c
  3723   0039DC  1C25               	comf	(floorf@m+1)^0,w,c
  3724   0039DE  6E1F               	movwf	(??_floorf+1)^0,c
  3725   0039E0  1C26               	comf	(floorf@m+2)^0,w,c
  3726   0039E2  6E20               	movwf	(??_floorf+2)^0,c
  3727   0039E4  1C27               	comf	(floorf@m+3)^0,w,c
  3728   0039E6  6E21               	movwf	(??_floorf+3)^0,c
  3729   0039E8  501E               	movf	??_floorf^0,w,c
  3730   0039EA  162A               	andwf	floorf@u^0,f,c
  3731   0039EC  501F               	movf	(??_floorf+1)^0,w,c
  3732   0039EE  162B               	andwf	(floorf@u+1)^0,f,c
  3733   0039F0  5020               	movf	(??_floorf+2)^0,w,c
  3734   0039F2  162C               	andwf	(floorf@u+2)^0,f,c
  3735   0039F4  5021               	movf	(??_floorf+3)^0,w,c
  3736   0039F6  162D               	andwf	(floorf@u+3)^0,f,c
  3737   0039F8  EF42  F01D         	goto	l2793
  3738   0039FC                     l2785:
  3739   0039FC  C02A  F01E         	movff	floorf@u,??_floorf
  3740   003A00  C02B  F01F         	movff	floorf@u+1,??_floorf+1
  3741   003A04  C02C  F020         	movff	floorf@u+2,??_floorf+2
  3742   003A08  C02D  F021         	movff	floorf@u+3,??_floorf+3
  3743   003A0C  0E20               	movlw	32
  3744   003A0E  EF0E  F01D         	goto	u3020
  3745   003A12                     u3025:
  3746   003A12  90D8               	bcf	status,0,c
  3747   003A14  3221               	rrcf	(??_floorf+3)^0,f,c
  3748   003A16  3220               	rrcf	(??_floorf+2)^0,f,c
  3749   003A18  321F               	rrcf	(??_floorf+1)^0,f,c
  3750   003A1A  321E               	rrcf	??_floorf^0,f,c
  3751   003A1C                     u3020:
  3752   003A1C  2EE8               	decfsz	wreg,f,c
  3753   003A1E  EF09  F01D         	goto	u3025
  3754   003A22  501E               	movf	??_floorf^0,w,c
  3755   003A24  101F               	iorwf	(??_floorf+1)^0,w,c
  3756   003A26  1020               	iorwf	(??_floorf+2)^0,w,c
  3757   003A28  1021               	iorwf	(??_floorf+3)^0,w,c
  3758   003A2A  A4D8               	btfss	status,2,c
  3759   003A2C  EF1A  F01D         	goto	u3031
  3760   003A30  EF1C  F01D         	goto	u3030
  3761   003A34                     u3031:
  3762   003A34  EF26  F01D         	goto	l2789
  3763   003A38                     u3030:
  3764   003A38  0E00               	movlw	0
  3765   003A3A  6E2A               	movwf	floorf@u^0,c
  3766   003A3C  0E00               	movlw	0
  3767   003A3E  6E2B               	movwf	(floorf@u+1)^0,c
  3768   003A40  0E00               	movlw	0
  3769   003A42  6E2C               	movwf	(floorf@u+2)^0,c
  3770   003A44  0E00               	movlw	0
  3771   003A46  6E2D               	movwf	(floorf@u+3)^0,c
  3772   003A48  EF42  F01D         	goto	l2793
  3773   003A4C                     l2789:
  3774   003A4C  90D8               	bcf	status,0,c
  3775   003A4E  342A               	rlcf	floorf@u^0,w,c
  3776   003A50  6E1E               	movwf	??_floorf^0,c
  3777   003A52  342B               	rlcf	(floorf@u+1)^0,w,c
  3778   003A54  6E1F               	movwf	(??_floorf+1)^0,c
  3779   003A56  342C               	rlcf	(floorf@u+2)^0,w,c
  3780   003A58  6E20               	movwf	(??_floorf+2)^0,c
  3781   003A5A  342D               	rlcf	(floorf@u+3)^0,w,c
  3782   003A5C  6E21               	movwf	(??_floorf+3)^0,c
  3783   003A5E  501E               	movf	??_floorf^0,w,c
  3784   003A60  101F               	iorwf	(??_floorf+1)^0,w,c
  3785   003A62  1020               	iorwf	(??_floorf+2)^0,w,c
  3786   003A64  1021               	iorwf	(??_floorf+3)^0,w,c
  3787   003A66  B4D8               	btfsc	status,2,c
  3788   003A68  EF38  F01D         	goto	u3041
  3789   003A6C  EF3A  F01D         	goto	u3040
  3790   003A70                     u3041:
  3791   003A70  EF42  F01D         	goto	l2793
  3792   003A74                     u3040:
  3793   003A74  0E00               	movlw	0
  3794   003A76  6E2A               	movwf	floorf@u^0,c
  3795   003A78  0E00               	movlw	0
  3796   003A7A  6E2B               	movwf	(floorf@u+1)^0,c
  3797   003A7C  0E80               	movlw	128
  3798   003A7E  6E2C               	movwf	(floorf@u+2)^0,c
  3799   003A80  0EBF               	movlw	191
  3800   003A82  6E2D               	movwf	(floorf@u+3)^0,c
  3801   003A84                     l2793:
  3802   003A84  C02A  F01A         	movff	floorf@u,?_floorf
  3803   003A88  C02B  F01B         	movff	floorf@u+1,?_floorf+1
  3804   003A8C  C02C  F01C         	movff	floorf@u+2,?_floorf+2
  3805   003A90  C02D  F01D         	movff	floorf@u+3,?_floorf+3
  3806   003A94                     l917:
  3807   003A94  0012               	return		;funcret
  3808   003A96                     __end_of_floorf:
  3809                           	callstack 0
  3810                           
  3811 ;; *************** function ___fpclassifyf *****************
  3812 ;; Defined at:
  3813 ;;		line 4 in file "C:\Program Files\Microchip\xc8\v2.46\pic\sources\c99\common\__fpclassifyf.c"
  3814 ;; Parameters:    Size  Location     Type
  3815 ;;  x               4    0[COMRAM] float 
  3816 ;; Auto vars:     Size  Location     Type
  3817 ;;  u               4   10[COMRAM] struct .
  3818 ;;  e               2    8[COMRAM] int 
  3819 ;; Return value:  Size  Location     Type
  3820 ;;                  2    0[COMRAM] int 
  3821 ;; Registers used:
  3822 ;;		wreg, status,2, status,0
  3823 ;; Tracked objects:
  3824 ;;		On entry : 0/0
  3825 ;;		On exit  : 0/0
  3826 ;;		Unchanged: 0/0
  3827 ;; Data sizes:     COMRAM   BANK0   BANK1   BANK2   BANK3   BANK4   BANK5   BANK6   BANK7   BANK8   BANK9  BANK10  BANK1
      +1  BANK12  BANK13  BANK14  BANK15  BANK16  BANK17  BANK18  BANK19  BANK20  BANK21  BANK22  BANK23  BANK24  BANK25  BANK2
      +6  BANK27  BANK28  BANK29  BANK30  BANK31
  3828 ;;      Params:         4       0       0       0       0       0       0       0       0       0       0       0       
      +0       0       0       0       0       0       0       0       0       0       0       0       0       0       0       
      +0       0       0       0       0       0
  3829 ;;      Locals:         6       0       0       0       0       0       0       0       0       0       0       0       
      +0       0       0       0       0       0       0       0       0       0       0       0       0       0       0       
      +0       0       0       0       0       0
  3830 ;;      Temps:          4       0       0       0       0       0       0       0       0       0       0       0       
      +0       0       0       0       0       0       0       0       0       0       0       0       0       0       0       
      +0       0       0       0       0       0
  3831 ;;      Totals:        14       0       0       0       0       0       0       0       0       0       0       0       
      +0       0       0       0       0       0       0       0       0       0       0       0       0       0       0       
      +0       0       0       0       0       0
  3832 ;;Total ram usage:       14 bytes
  3833 ;; Hardware stack levels used: 1
  3834 ;; This function calls:
  3835 ;;		Nothing
  3836 ;; This function is called by:
  3837 ;;		_efgtoa
  3838 ;; This function uses a non-reentrant model
  3839 ;;
  3840                           
  3841                           	psect	text16
  3842   003E54                     __ptext16:
  3843                           	callstack 0
  3844   003E54                     ___fpclassifyf:
  3845                           	callstack 26
  3846   003E54  C064  F00B         	movff	___fpclassifyf@F465,___fpclassifyf@u
  3847   003E58  C065  F00C         	movff	___fpclassifyf@F465+1,___fpclassifyf@u+1
  3848   003E5C  C066  F00D         	movff	___fpclassifyf@F465+2,___fpclassifyf@u+2
  3849   003E60  C067  F00E         	movff	___fpclassifyf@F465+3,___fpclassifyf@u+3
  3850   003E64  C001  F00B         	movff	___fpclassifyf@x,___fpclassifyf@u
  3851   003E68  C002  F00C         	movff	___fpclassifyf@x+1,___fpclassifyf@u+1
  3852   003E6C  C003  F00D         	movff	___fpclassifyf@x+2,___fpclassifyf@u+2
  3853   003E70  C004  F00E         	movff	___fpclassifyf@x+3,___fpclassifyf@u+3
  3854   003E74  C00B  F005         	movff	___fpclassifyf@u,??___fpclassifyf
  3855   003E78  C00C  F006         	movff	___fpclassifyf@u+1,??___fpclassifyf+1
  3856   003E7C  C00D  F007         	movff	___fpclassifyf@u+2,??___fpclassifyf+2
  3857   003E80  C00E  F008         	movff	___fpclassifyf@u+3,??___fpclassifyf+3
  3858   003E84  0E18               	movlw	24
  3859   003E86  EF4A  F01F         	goto	u2860
  3860   003E8A                     u2865:
  3861   003E8A  90D8               	bcf	status,0,c
  3862   003E8C  3208               	rrcf	(??___fpclassifyf+3)^0,f,c
  3863   003E8E  3207               	rrcf	(??___fpclassifyf+2)^0,f,c
  3864   003E90  3206               	rrcf	(??___fpclassifyf+1)^0,f,c
  3865   003E92  3205               	rrcf	??___fpclassifyf^0,f,c
  3866   003E94                     u2860:
  3867   003E94  2EE8               	decfsz	wreg,f,c
  3868   003E96  EF45  F01F         	goto	u2865
  3869   003E9A  5005               	movf	??___fpclassifyf^0,w,c
  3870   003E9C  6E09               	movwf	___fpclassifyf@e^0,c
  3871   003E9E  6A0A               	clrf	(___fpclassifyf@e+1)^0,c
  3872   003EA0  5009               	movf	___fpclassifyf@e^0,w,c
  3873   003EA2  100A               	iorwf	(___fpclassifyf@e+1)^0,w,c
  3874   003EA4  A4D8               	btfss	status,2,c
  3875   003EA6  EF57  F01F         	goto	u2871
  3876   003EAA  EF59  F01F         	goto	u2870
  3877   003EAE                     u2871:
  3878   003EAE  EF79  F01F         	goto	l2747
  3879   003EB2                     u2870:
  3880   003EB2  90D8               	bcf	status,0,c
  3881   003EB4  340B               	rlcf	___fpclassifyf@u^0,w,c
  3882   003EB6  6E05               	movwf	??___fpclassifyf^0,c
  3883   003EB8  340C               	rlcf	(___fpclassifyf@u+1)^0,w,c
  3884   003EBA  6E06               	movwf	(??___fpclassifyf+1)^0,c
  3885   003EBC  340D               	rlcf	(___fpclassifyf@u+2)^0,w,c
  3886   003EBE  6E07               	movwf	(??___fpclassifyf+2)^0,c
  3887   003EC0  340E               	rlcf	(___fpclassifyf@u+3)^0,w,c
  3888   003EC2  6E08               	movwf	(??___fpclassifyf+3)^0,c
  3889   003EC4  5005               	movf	??___fpclassifyf^0,w,c
  3890   003EC6  1006               	iorwf	(??___fpclassifyf+1)^0,w,c
  3891   003EC8  1007               	iorwf	(??___fpclassifyf+2)^0,w,c
  3892   003ECA  1008               	iorwf	(??___fpclassifyf+3)^0,w,c
  3893   003ECC  A4D8               	btfss	status,2,c
  3894   003ECE  EF6B  F01F         	goto	u2881
  3895   003ED2  EF6D  F01F         	goto	u2880
  3896   003ED6                     u2881:
  3897   003ED6  EF73  F01F         	goto	l2743
  3898   003EDA                     u2880:
  3899   003EDA  0E00               	movlw	0
  3900   003EDC  6E02               	movwf	(?___fpclassifyf+1)^0,c
  3901   003EDE  0E02               	movlw	2
  3902   003EE0  6E01               	movwf	?___fpclassifyf^0,c
  3903   003EE2  EFA8  F01F         	goto	l910
  3904   003EE6                     l2743:
  3905   003EE6  0E00               	movlw	0
  3906   003EE8  6E02               	movwf	(?___fpclassifyf+1)^0,c
  3907   003EEA  0E03               	movlw	3
  3908   003EEC  6E01               	movwf	?___fpclassifyf^0,c
  3909   003EEE  EFA8  F01F         	goto	l910
  3910   003EF2                     l2747:
  3911   003EF2  2809               	incf	___fpclassifyf@e^0,w,c
  3912   003EF4  100A               	iorwf	(___fpclassifyf@e+1)^0,w,c
  3913   003EF6  A4D8               	btfss	status,2,c
  3914   003EF8  EF80  F01F         	goto	u2891
  3915   003EFC  EF82  F01F         	goto	u2890
  3916   003F00                     u2891:
  3917   003F00  EFA4  F01F         	goto	l2753
  3918   003F04                     u2890:
  3919   003F04  C00B  F005         	movff	___fpclassifyf@u,??___fpclassifyf
  3920   003F08  C00C  F006         	movff	___fpclassifyf@u+1,??___fpclassifyf+1
  3921   003F0C  C00D  F007         	movff	___fpclassifyf@u+2,??___fpclassifyf+2
  3922   003F10  C00E  F008         	movff	___fpclassifyf@u+3,??___fpclassifyf+3
  3923   003F14  0E09               	movlw	9
  3924   003F16                     u2905:
  3925   003F16  90D8               	bcf	status,0,c
  3926   003F18  3605               	rlcf	??___fpclassifyf^0,f,c
  3927   003F1A  3606               	rlcf	(??___fpclassifyf+1)^0,f,c
  3928   003F1C  3607               	rlcf	(??___fpclassifyf+2)^0,f,c
  3929   003F1E  3608               	rlcf	(??___fpclassifyf+3)^0,f,c
  3930   003F20  2EE8               	decfsz	wreg,f,c
  3931   003F22  EF8B  F01F         	goto	u2905
  3932   003F26  5005               	movf	??___fpclassifyf^0,w,c
  3933   003F28  1006               	iorwf	(??___fpclassifyf+1)^0,w,c
  3934   003F2A  1007               	iorwf	(??___fpclassifyf+2)^0,w,c
  3935   003F2C  1008               	iorwf	(??___fpclassifyf+3)^0,w,c
  3936   003F2E  B4D8               	btfsc	status,2,c
  3937   003F30  EF9C  F01F         	goto	u2911
  3938   003F34  EF9F  F01F         	goto	u2910
  3939   003F38                     u2911:
  3940   003F38  0E01               	movlw	1
  3941   003F3A  EFA0  F01F         	goto	u2920
  3942   003F3E                     u2910:
  3943   003F3E  0E00               	movlw	0
  3944   003F40                     u2920:
  3945   003F40  6E01               	movwf	?___fpclassifyf^0,c
  3946   003F42  6A02               	clrf	(?___fpclassifyf+1)^0,c
  3947   003F44  EFA8  F01F         	goto	l910
  3948   003F48                     l2753:
  3949   003F48  0E00               	movlw	0
  3950   003F4A  6E02               	movwf	(?___fpclassifyf+1)^0,c
  3951   003F4C  0E04               	movlw	4
  3952   003F4E  6E01               	movwf	?___fpclassifyf^0,c
  3953   003F50                     l910:
  3954   003F50  0012               	return		;funcret
  3955   003F52                     __end_of___fpclassifyf:
  3956                           	callstack 0
  3957                           
  3958 ;; *************** function ___fltol *****************
  3959 ;; Defined at:
  3960 ;;		line 43 in file "C:\Program Files\Microchip\xc8\v2.46\pic\sources\c99\common\fltol.c"
  3961 ;; Parameters:    Size  Location     Type
  3962 ;;  f1              4    0[COMRAM] int 
  3963 ;; Auto vars:     Size  Location     Type
  3964 ;;  exp1            1    9[COMRAM] unsigned char 
  3965 ;;  sign1           1    8[COMRAM] unsigned char 
  3966 ;; Return value:  Size  Location     Type
  3967 ;;                  4    0[COMRAM] long 
  3968 ;; Registers used:
  3969 ;;		wreg, status,2, status,0
  3970 ;; Tracked objects:
  3971 ;;		On entry : 0/0
  3972 ;;		On exit  : 0/0
  3973 ;;		Unchanged: 0/0
  3974 ;; Data sizes:     COMRAM   BANK0   BANK1   BANK2   BANK3   BANK4   BANK5   BANK6   BANK7   BANK8   BANK9  BANK10  BANK1
      +1  BANK12  BANK13  BANK14  BANK15  BANK16  BANK17  BANK18  BANK19  BANK20  BANK21  BANK22  BANK23  BANK24  BANK25  BANK2
      +6  BANK27  BANK28  BANK29  BANK30  BANK31
  3975 ;;      Params:         4       0       0       0       0       0       0       0       0       0       0       0       
      +0       0       0       0       0       0       0       0       0       0       0       0       0       0       0       
      +0       0       0       0       0       0
  3976 ;;      Locals:         2       0       0       0       0       0       0       0       0       0       0       0       
      +0       0       0       0       0       0       0       0       0       0       0       0       0       0       0       
      +0       0       0       0       0       0
  3977 ;;      Temps:          4       0       0       0       0       0       0       0       0       0       0       0       
      +0       0       0       0       0       0       0       0       0       0       0       0       0       0       0       
      +0       0       0       0       0       0
  3978 ;;      Totals:        10       0       0       0       0       0       0       0       0       0       0       0       
      +0       0       0       0       0       0       0       0       0       0       0       0       0       0       0       
      +0       0       0       0       0       0
  3979 ;;Total ram usage:       10 bytes
  3980 ;; Hardware stack levels used: 1
  3981 ;; This function calls:
  3982 ;;		Nothing
  3983 ;; This function is called by:
  3984 ;;		_efgtoa
  3985 ;; This function uses a non-reentrant model
  3986 ;;
  3987                           
  3988                           	psect	text17
  3989   003C4A                     __ptext17:
  3990                           	callstack 0
  3991   003C4A                     ___fltol:
  3992                           	callstack 26
  3993   003C4A  3403               	rlcf	(___fltol@f1+2)^0,w,c
  3994   003C4C  3404               	rlcf	(___fltol@f1+3)^0,w,c
  3995   003C4E  6E0A               	movwf	___fltol@exp1^0,c
  3996   003C50  500A               	movf	___fltol@exp1^0,w,c
  3997   003C52  A4D8               	btfss	status,2,c
  3998   003C54  EF2E  F01E         	goto	u2771
  3999   003C58  EF30  F01E         	goto	u2770
  4000   003C5C                     u2771:
  4001   003C5C  EF3A  F01E         	goto	l2685
  4002   003C60                     u2770:
  4003   003C60                     l2681:
  4004   003C60  0E00               	movlw	0
  4005   003C62  6E01               	movwf	?___fltol^0,c
  4006   003C64  0E00               	movlw	0
  4007   003C66  6E02               	movwf	(?___fltol+1)^0,c
  4008   003C68  0E00               	movlw	0
  4009   003C6A  6E03               	movwf	(?___fltol+2)^0,c
  4010   003C6C  0E00               	movlw	0
  4011   003C6E  6E04               	movwf	(?___fltol+3)^0,c
  4012   003C70  EFA7  F01E         	goto	l401
  4013   003C74                     l2685:
  4014   003C74  C001  F005         	movff	___fltol@f1,??___fltol
  4015   003C78  C002  F006         	movff	___fltol@f1+1,??___fltol+1
  4016   003C7C  C003  F007         	movff	___fltol@f1+2,??___fltol+2
  4017   003C80  C004  F008         	movff	___fltol@f1+3,??___fltol+3
  4018   003C84  0E20               	movlw	32
  4019   003C86  EF4A  F01E         	goto	u2780
  4020   003C8A                     u2785:
  4021   003C8A  90D8               	bcf	status,0,c
  4022   003C8C  3208               	rrcf	(??___fltol+3)^0,f,c
  4023   003C8E  3207               	rrcf	(??___fltol+2)^0,f,c
  4024   003C90  3206               	rrcf	(??___fltol+1)^0,f,c
  4025   003C92  3205               	rrcf	??___fltol^0,f,c
  4026   003C94                     u2780:
  4027   003C94  2EE8               	decfsz	wreg,f,c
  4028   003C96  EF45  F01E         	goto	u2785
  4029   003C9A  5005               	movf	??___fltol^0,w,c
  4030   003C9C  6E09               	movwf	___fltol@sign1^0,c
  4031   003C9E  8E03               	bsf	(___fltol@f1+2)^0,7,c
  4032   003CA0  0EFF               	movlw	255
  4033   003CA2  1601               	andwf	___fltol@f1^0,f,c
  4034   003CA4  0EFF               	movlw	255
  4035   003CA6  1602               	andwf	(___fltol@f1+1)^0,f,c
  4036   003CA8  0EFF               	movlw	255
  4037   003CAA  1603               	andwf	(___fltol@f1+2)^0,f,c
  4038   003CAC  0E00               	movlw	0
  4039   003CAE  1604               	andwf	(___fltol@f1+3)^0,f,c
  4040   003CB0  0E96               	movlw	150
  4041   003CB2  5E0A               	subwf	___fltol@exp1^0,f,c
  4042   003CB4  BE0A               	btfsc	___fltol@exp1^0,7,c
  4043   003CB6  EF61  F01E         	goto	u2790
  4044   003CBA  EF5F  F01E         	goto	u2791
  4045   003CBE                     u2791:
  4046   003CBE  EF77  F01E         	goto	l2705
  4047   003CC2                     u2790:
  4048   003CC2  500A               	movf	___fltol@exp1^0,w,c
  4049   003CC4  0A80               	xorlw	128
  4050   003CC6  0F97               	addlw	151
  4051   003CC8  B0D8               	btfsc	status,0,c
  4052   003CCA  EF69  F01E         	goto	u2801
  4053   003CCE  EF6B  F01E         	goto	u2800
  4054   003CD2                     u2801:
  4055   003CD2  EF6D  F01E         	goto	l2701
  4056   003CD6                     u2800:
  4057   003CD6  EF30  F01E         	goto	l2681
  4058   003CDA                     l2701:
  4059   003CDA  90D8               	bcf	status,0,c
  4060   003CDC  3204               	rrcf	(___fltol@f1+3)^0,f,c
  4061   003CDE  3203               	rrcf	(___fltol@f1+2)^0,f,c
  4062   003CE0  3202               	rrcf	(___fltol@f1+1)^0,f,c
  4063   003CE2  3201               	rrcf	___fltol@f1^0,f,c
  4064   003CE4  3E0A               	incfsz	___fltol@exp1^0,f,c
  4065   003CE6  EF6D  F01E         	goto	l2701
  4066   003CEA  EF8F  F01E         	goto	l2715
  4067   003CEE                     l2705:
  4068   003CEE  0E1F               	movlw	31
  4069   003CF0  640A               	cpfsgt	___fltol@exp1^0,c
  4070   003CF2  EF7D  F01E         	goto	u2811
  4071   003CF6  EF7F  F01E         	goto	u2810
  4072   003CFA                     u2811:
  4073   003CFA  EF87  F01E         	goto	l2713
  4074   003CFE                     u2810:
  4075   003CFE  EF30  F01E         	goto	l2681
  4076   003D02                     l2711:
  4077   003D02  90D8               	bcf	status,0,c
  4078   003D04  3601               	rlcf	___fltol@f1^0,f,c
  4079   003D06  3602               	rlcf	(___fltol@f1+1)^0,f,c
  4080   003D08  3603               	rlcf	(___fltol@f1+2)^0,f,c
  4081   003D0A  3604               	rlcf	(___fltol@f1+3)^0,f,c
  4082   003D0C  060A               	decf	___fltol@exp1^0,f,c
  4083   003D0E                     l2713:
  4084   003D0E  500A               	movf	___fltol@exp1^0,w,c
  4085   003D10  A4D8               	btfss	status,2,c
  4086   003D12  EF8D  F01E         	goto	u2821
  4087   003D16  EF8F  F01E         	goto	u2820
  4088   003D1A                     u2821:
  4089   003D1A  EF81  F01E         	goto	l2711
  4090   003D1E                     u2820:
  4091   003D1E                     l2715:
  4092   003D1E  5009               	movf	___fltol@sign1^0,w,c
  4093   003D20  B4D8               	btfsc	status,2,c
  4094   003D22  EF95  F01E         	goto	u2831
  4095   003D26  EF97  F01E         	goto	u2830
  4096   003D2A                     u2831:
  4097   003D2A  EF9F  F01E         	goto	l2719
  4098   003D2E                     u2830:
  4099   003D2E  1E04               	comf	(___fltol@f1+3)^0,f,c
  4100   003D30  1E03               	comf	(___fltol@f1+2)^0,f,c
  4101   003D32  1E02               	comf	(___fltol@f1+1)^0,f,c
  4102   003D34  6C01               	negf	___fltol@f1^0,c
  4103   003D36  0E00               	movlw	0
  4104   003D38  2202               	addwfc	(___fltol@f1+1)^0,f,c
  4105   003D3A  2203               	addwfc	(___fltol@f1+2)^0,f,c
  4106   003D3C  2204               	addwfc	(___fltol@f1+3)^0,f,c
  4107   003D3E                     l2719:
  4108   003D3E  C001  F001         	movff	___fltol@f1,?___fltol
  4109   003D42  C002  F002         	movff	___fltol@f1+1,?___fltol+1
  4110   003D46  C003  F003         	movff	___fltol@f1+2,?___fltol+2
  4111   003D4A  C004  F004         	movff	___fltol@f1+3,?___fltol+3
  4112   003D4E                     l401:
  4113   003D4E  0012               	return		;funcret
  4114   003D50                     __end_of___fltol:
  4115                           	callstack 0
  4116                           
  4117 ;; *************** function ___flsub *****************
  4118 ;; Defined at:
  4119 ;;		line 245 in file "C:\Program Files\Microchip\xc8\v2.46\pic\sources\c99\common\sprcadd.c"
  4120 ;; Parameters:    Size  Location     Type
  4121 ;;  b               4   39[COMRAM] long 
  4122 ;;  a               4   43[COMRAM] long 
  4123 ;; Auto vars:     Size  Location     Type
  4124 ;;		None
  4125 ;; Return value:  Size  Location     Type
  4126 ;;                  4   39[COMRAM] long 
  4127 ;; Registers used:
  4128 ;;		wreg, status,2, status,0, cstack
  4129 ;; Tracked objects:
  4130 ;;		On entry : 0/0
  4131 ;;		On exit  : 0/0
  4132 ;;		Unchanged: 0/0
  4133 ;; Data sizes:     COMRAM   BANK0   BANK1   BANK2   BANK3   BANK4   BANK5   BANK6   BANK7   BANK8   BANK9  BANK10  BANK1
      +1  BANK12  BANK13  BANK14  BANK15  BANK16  BANK17  BANK18  BANK19  BANK20  BANK21  BANK22  BANK23  BANK24  BANK25  BANK2
      +6  BANK27  BANK28  BANK29  BANK30  BANK31
  4134 ;;      Params:         8       0       0       0       0       0       0       0       0       0       0       0       
      +0       0       0       0       0       0       0       0       0       0       0       0       0       0       0       
      +0       0       0       0       0       0
  4135 ;;      Locals:         0       0       0       0       0       0       0       0       0       0       0       0       
      +0       0       0       0       0       0       0       0       0       0       0       0       0       0       0       
      +0       0       0       0       0       0
  4136 ;;      Temps:          0       0       0       0       0       0       0       0       0       0       0       0       
      +0       0       0       0       0       0       0       0       0       0       0       0       0       0       0       
      +0       0       0       0       0       0
  4137 ;;      Totals:         8       0       0       0       0       0       0       0       0       0       0       0       
      +0       0       0       0       0       0       0       0       0       0       0       0       0       0       0       
      +0       0       0       0       0       0
  4138 ;;Total ram usage:        8 bytes
  4139 ;; Hardware stack levels used: 1
  4140 ;; Hardware stack levels required when called: 1
  4141 ;; This function calls:
  4142 ;;		___fladd
  4143 ;; This function is called by:
  4144 ;;		_efgtoa
  4145 ;; This function uses a non-reentrant model
  4146 ;;
  4147                           
  4148                           	psect	text18
  4149   00440E                     __ptext18:
  4150                           	callstack 0
  4151   00440E                     ___flsub:
  4152                           	callstack 25
  4153   00440E  0E00               	movlw	0
  4154   004410  1A2C               	xorwf	___flsub@a^0,f,c
  4155   004412  0E00               	movlw	0
  4156   004414  1A2D               	xorwf	(___flsub@a+1)^0,f,c
  4157   004416  0E00               	movlw	0
  4158   004418  1A2E               	xorwf	(___flsub@a+2)^0,f,c
  4159   00441A  0E80               	movlw	128
  4160   00441C  1A2F               	xorwf	(___flsub@a+3)^0,f,c
  4161   00441E  C028  F001         	movff	___flsub@b,___fladd@b
  4162   004422  C029  F002         	movff	___flsub@b+1,___fladd@b+1
  4163   004426  C02A  F003         	movff	___flsub@b+2,___fladd@b+2
  4164   00442A  C02B  F004         	movff	___flsub@b+3,___fladd@b+3
  4165   00442E  C02C  F005         	movff	___flsub@a,___fladd@a
  4166   004432  C02D  F006         	movff	___flsub@a+1,___fladd@a+1
  4167   004436  C02E  F007         	movff	___flsub@a+2,___fladd@a+2
  4168   00443A  C02F  F008         	movff	___flsub@a+3,___fladd@a+3
  4169   00443E  ECE5  F014         	call	___fladd	;wreg free
  4170   004442  C001  F028         	movff	?___fladd,?___flsub
  4171   004446  C002  F029         	movff	?___fladd+1,?___flsub+1
  4172   00444A  C003  F02A         	movff	?___fladd+2,?___flsub+2
  4173   00444E  C004  F02B         	movff	?___fladd+3,?___flsub+3
  4174   004452  0012               	return		;funcret
  4175   004454                     __end_of___flsub:
  4176                           	callstack 0
  4177                           
  4178 ;; *************** function ___fladd *****************
  4179 ;; Defined at:
  4180 ;;		line 10 in file "C:\Program Files\Microchip\xc8\v2.46\pic\sources\c99\common\sprcadd.c"
  4181 ;; Parameters:    Size  Location     Type
  4182 ;;  b               4    0[COMRAM] long 
  4183 ;;  a               4    4[COMRAM] long 
  4184 ;; Auto vars:     Size  Location     Type
  4185 ;;  grs             1   15[COMRAM] unsigned char 
  4186 ;;  bexp            1   14[COMRAM] unsigned char 
  4187 ;;  aexp            1   13[COMRAM] unsigned char 
  4188 ;;  signs           1   12[COMRAM] unsigned char 
  4189 ;; Return value:  Size  Location     Type
  4190 ;;                  4    0[COMRAM] unsigned char 
  4191 ;; Registers used:
  4192 ;;		wreg, status,2, status,0
  4193 ;; Tracked objects:
  4194 ;;		On entry : 0/0
  4195 ;;		On exit  : 0/0
  4196 ;;		Unchanged: 0/0
  4197 ;; Data sizes:     COMRAM   BANK0   BANK1   BANK2   BANK3   BANK4   BANK5   BANK6   BANK7   BANK8   BANK9  BANK10  BANK1
      +1  BANK12  BANK13  BANK14  BANK15  BANK16  BANK17  BANK18  BANK19  BANK20  BANK21  BANK22  BANK23  BANK24  BANK25  BANK2
      +6  BANK27  BANK28  BANK29  BANK30  BANK31
  4198 ;;      Params:         8       0       0       0       0       0       0       0       0       0       0       0       
      +0       0       0       0       0       0       0       0       0       0       0       0       0       0       0       
      +0       0       0       0       0       0
  4199 ;;      Locals:         4       0       0       0       0       0       0       0       0       0       0       0       
      +0       0       0       0       0       0       0       0       0       0       0       0       0       0       0       
      +0       0       0       0       0       0
  4200 ;;      Temps:          4       0       0       0       0       0       0       0       0       0       0       0       
      +0       0       0       0       0       0       0       0       0       0       0       0       0       0       0       
      +0       0       0       0       0       0
  4201 ;;      Totals:        16       0       0       0       0       0       0       0       0       0       0       0       
      +0       0       0       0       0       0       0       0       0       0       0       0       0       0       0       
      +0       0       0       0       0       0
  4202 ;;Total ram usage:       16 bytes
  4203 ;; Hardware stack levels used: 1
  4204 ;; This function calls:
  4205 ;;		Nothing
  4206 ;; This function is called by:
  4207 ;;		___flsub
  4208 ;;		_efgtoa
  4209 ;; This function uses a non-reentrant model
  4210 ;;
  4211                           
  4212                           	psect	text19
  4213   0029CA                     __ptext19:
  4214                           	callstack 0
  4215   0029CA                     ___fladd:
  4216                           	callstack 25
  4217   0029CA  5004               	movf	(___fladd@b+3)^0,w,c
  4218   0029CC  0B80               	andlw	128
  4219   0029CE  6E0D               	movwf	___fladd@signs^0,c
  4220   0029D0  5004               	movf	(___fladd@b+3)^0,w,c
  4221   0029D2  2404               	addwf	(___fladd@b+3)^0,w,c
  4222   0029D4  6E0F               	movwf	___fladd@bexp^0,c
  4223   0029D6  AE03               	btfss	(___fladd@b+2)^0,7,c
  4224   0029D8  EFF0  F014         	goto	u1861
  4225   0029DC  EFF2  F014         	goto	u1860
  4226   0029E0                     u1861:
  4227   0029E0  EFF3  F014         	goto	l2149
  4228   0029E4                     u1860:
  4229   0029E4  800F               	bsf	___fladd@bexp^0,0,c
  4230   0029E6                     l2149:
  4231   0029E6  500F               	movf	___fladd@bexp^0,w,c
  4232   0029E8  B4D8               	btfsc	status,2,c
  4233   0029EA  EFF9  F014         	goto	u1871
  4234   0029EE  EFFB  F014         	goto	u1870
  4235   0029F2                     u1871:
  4236   0029F2  EF10  F015         	goto	l2159
  4237   0029F6                     u1870:
  4238   0029F6  280F               	incf	___fladd@bexp^0,w,c
  4239   0029F8  A4D8               	btfss	status,2,c
  4240   0029FA  EF01  F015         	goto	u1881
  4241   0029FE  EF03  F015         	goto	u1880
  4242   002A02                     u1881:
  4243   002A02  EF0B  F015         	goto	l2155
  4244   002A06                     u1880:
  4245   002A06  0E00               	movlw	0
  4246   002A08  6E01               	movwf	___fladd@b^0,c
  4247   002A0A  0E00               	movlw	0
  4248   002A0C  6E02               	movwf	(___fladd@b+1)^0,c
  4249   002A0E  0E00               	movlw	0
  4250   002A10  6E03               	movwf	(___fladd@b+2)^0,c
  4251   002A12  0E00               	movlw	0
  4252   002A14  6E04               	movwf	(___fladd@b+3)^0,c
  4253   002A16                     l2155:
  4254   002A16  8E03               	bsf	(___fladd@b+2)^0,7,c
  4255   002A18  0E00               	movlw	0
  4256   002A1A  6E04               	movwf	(___fladd@b+3)^0,c
  4257   002A1C  EF18  F015         	goto	l2161
  4258   002A20                     l2159:
  4259   002A20  0E00               	movlw	0
  4260   002A22  6E01               	movwf	___fladd@b^0,c
  4261   002A24  0E00               	movlw	0
  4262   002A26  6E02               	movwf	(___fladd@b+1)^0,c
  4263   002A28  0E00               	movlw	0
  4264   002A2A  6E03               	movwf	(___fladd@b+2)^0,c
  4265   002A2C  0E00               	movlw	0
  4266   002A2E  6E04               	movwf	(___fladd@b+3)^0,c
  4267   002A30                     l2161:
  4268   002A30  5008               	movf	(___fladd@a+3)^0,w,c
  4269   002A32  0B80               	andlw	128
  4270   002A34  6E0E               	movwf	___fladd@aexp^0,c
  4271   002A36  500D               	movf	___fladd@signs^0,w,c
  4272   002A38  180E               	xorwf	___fladd@aexp^0,w,c
  4273   002A3A  B4D8               	btfsc	status,2,c
  4274   002A3C  EF22  F015         	goto	u1891
  4275   002A40  EF24  F015         	goto	u1890
  4276   002A44                     u1891:
  4277   002A44  EF25  F015         	goto	l2167
  4278   002A48                     u1890:
  4279   002A48  8C0D               	bsf	___fladd@signs^0,6,c
  4280   002A4A                     l2167:
  4281   002A4A  5008               	movf	(___fladd@a+3)^0,w,c
  4282   002A4C  2408               	addwf	(___fladd@a+3)^0,w,c
  4283   002A4E  6E0E               	movwf	___fladd@aexp^0,c
  4284   002A50  AE07               	btfss	(___fladd@a+2)^0,7,c
  4285   002A52  EF2D  F015         	goto	u1901
  4286   002A56  EF2F  F015         	goto	u1900
  4287   002A5A                     u1901:
  4288   002A5A  EF30  F015         	goto	l2173
  4289   002A5E                     u1900:
  4290   002A5E  800E               	bsf	___fladd@aexp^0,0,c
  4291   002A60                     l2173:
  4292   002A60  500E               	movf	___fladd@aexp^0,w,c
  4293   002A62  B4D8               	btfsc	status,2,c
  4294   002A64  EF36  F015         	goto	u1911
  4295   002A68  EF38  F015         	goto	u1910
  4296   002A6C                     u1911:
  4297   002A6C  EF4D  F015         	goto	l2183
  4298   002A70                     u1910:
  4299   002A70  280E               	incf	___fladd@aexp^0,w,c
  4300   002A72  A4D8               	btfss	status,2,c
  4301   002A74  EF3E  F015         	goto	u1921
  4302   002A78  EF40  F015         	goto	u1920
  4303   002A7C                     u1921:
  4304   002A7C  EF48  F015         	goto	l2179
  4305   002A80                     u1920:
  4306   002A80  0E00               	movlw	0
  4307   002A82  6E05               	movwf	___fladd@a^0,c
  4308   002A84  0E00               	movlw	0
  4309   002A86  6E06               	movwf	(___fladd@a+1)^0,c
  4310   002A88  0E00               	movlw	0
  4311   002A8A  6E07               	movwf	(___fladd@a+2)^0,c
  4312   002A8C  0E00               	movlw	0
  4313   002A8E  6E08               	movwf	(___fladd@a+3)^0,c
  4314   002A90                     l2179:
  4315   002A90  8E07               	bsf	(___fladd@a+2)^0,7,c
  4316   002A92  0E00               	movlw	0
  4317   002A94  6E08               	movwf	(___fladd@a+3)^0,c
  4318   002A96  EF55  F015         	goto	l2185
  4319   002A9A                     l2183:
  4320   002A9A  0E00               	movlw	0
  4321   002A9C  6E05               	movwf	___fladd@a^0,c
  4322   002A9E  0E00               	movlw	0
  4323   002AA0  6E06               	movwf	(___fladd@a+1)^0,c
  4324   002AA2  0E00               	movlw	0
  4325   002AA4  6E07               	movwf	(___fladd@a+2)^0,c
  4326   002AA6  0E00               	movlw	0
  4327   002AA8  6E08               	movwf	(___fladd@a+3)^0,c
  4328   002AAA                     l2185:
  4329   002AAA  500F               	movf	___fladd@bexp^0,w,c
  4330   002AAC  5C0E               	subwf	___fladd@aexp^0,w,c
  4331   002AAE  B0D8               	btfsc	status,0,c
  4332   002AB0  EF5C  F015         	goto	u1931
  4333   002AB4  EF5E  F015         	goto	u1930
  4334   002AB8                     u1931:
  4335   002AB8  EF85  F015         	goto	l2221
  4336   002ABC                     u1930:
  4337   002ABC  AC0D               	btfss	___fladd@signs^0,6,c
  4338   002ABE  EF63  F015         	goto	u1941
  4339   002AC2  EF65  F015         	goto	u1940
  4340   002AC6                     u1941:
  4341   002AC6  EF67  F015         	goto	l2191
  4342   002ACA                     u1940:
  4343   002ACA  0E80               	movlw	128
  4344   002ACC  1A0D               	xorwf	___fladd@signs^0,f,c
  4345   002ACE                     l2191:
  4346   002ACE  C00F  F010         	movff	___fladd@bexp,___fladd@grs
  4347   002AD2  C00E  F00F         	movff	___fladd@aexp,___fladd@bexp
  4348   002AD6  C010  F00E         	movff	___fladd@grs,___fladd@aexp
  4349   002ADA  C001  F010         	movff	___fladd@b,___fladd@grs
  4350   002ADE  C005  F001         	movff	___fladd@a,___fladd@b
  4351   002AE2  C010  F005         	movff	___fladd@grs,___fladd@a
  4352   002AE6  C002  F010         	movff	___fladd@b+1,___fladd@grs
  4353   002AEA  C006  F002         	movff	___fladd@a+1,___fladd@b+1
  4354   002AEE  C010  F006         	movff	___fladd@grs,___fladd@a+1
  4355   002AF2  C003  F010         	movff	___fladd@b+2,___fladd@grs
  4356   002AF6  C007  F003         	movff	___fladd@a+2,___fladd@b+2
  4357   002AFA  C010  F007         	movff	___fladd@grs,___fladd@a+2
  4358   002AFE  C004  F010         	movff	___fladd@b+3,___fladd@grs
  4359   002B02  C008  F004         	movff	___fladd@a+3,___fladd@b+3
  4360   002B06  C010  F008         	movff	___fladd@grs,___fladd@a+3
  4361   002B0A                     l2221:
  4362   002B0A  0E00               	movlw	0
  4363   002B0C  6E10               	movwf	___fladd@grs^0,c
  4364   002B0E  500F               	movf	___fladd@bexp^0,w,c
  4365   002B10  C00E  F009         	movff	___fladd@aexp,??___fladd
  4366   002B14  6A0A               	clrf	(??___fladd+1)^0,c
  4367   002B16  5E09               	subwf	??___fladd^0,f,c
  4368   002B18  0E00               	movlw	0
  4369   002B1A  5A0A               	subwfb	(??___fladd+1)^0,f,c
  4370   002B1C  BE0A               	btfsc	(??___fladd+1)^0,7,c
  4371   002B1E  EF9A  F015         	goto	u1951
  4372   002B22  500A               	movf	(??___fladd+1)^0,w,c
  4373   002B24  E109               	bnz	u1950
  4374   002B26  0E1A               	movlw	26
  4375   002B28  5C09               	subwf	??___fladd^0,w,c
  4376   002B2A  A0D8               	btfss	status,0,c
  4377   002B2C  EF9A  F015         	goto	u1951
  4378   002B30  EF9C  F015         	goto	u1950
  4379   002B34                     u1951:
  4380   002B34  EFD3  F015         	goto	l633
  4381   002B38                     u1950:
  4382   002B38  5001               	movf	___fladd@b^0,w,c
  4383   002B3A  1002               	iorwf	(___fladd@b+1)^0,w,c
  4384   002B3C  1003               	iorwf	(___fladd@b+2)^0,w,c
  4385   002B3E  1004               	iorwf	(___fladd@b+3)^0,w,c
  4386   002B40  A4D8               	btfss	status,2,c
  4387   002B42  EFA5  F015         	goto	u1961
  4388   002B46  EFA8  F015         	goto	u1960
  4389   002B4A                     u1961:
  4390   002B4A  0E01               	movlw	1
  4391   002B4C  EFA9  F015         	goto	u1970
  4392   002B50                     u1960:
  4393   002B50  0E00               	movlw	0
  4394   002B52                     u1970:
  4395   002B52  6E10               	movwf	___fladd@grs^0,c
  4396   002B54  0E00               	movlw	0
  4397   002B56  6E01               	movwf	___fladd@b^0,c
  4398   002B58  0E00               	movlw	0
  4399   002B5A  6E02               	movwf	(___fladd@b+1)^0,c
  4400   002B5C  0E00               	movlw	0
  4401   002B5E  6E03               	movwf	(___fladd@b+2)^0,c
  4402   002B60  0E00               	movlw	0
  4403   002B62  6E04               	movwf	(___fladd@b+3)^0,c
  4404   002B64  C00E  F00F         	movff	___fladd@aexp,___fladd@bexp
  4405   002B68  EFDC  F015         	goto	l632
  4406   002B6C                     l634:
  4407   002B6C  A010               	btfss	___fladd@grs^0,0,c
  4408   002B6E  EFBB  F015         	goto	u1981
  4409   002B72  EFBD  F015         	goto	u1980
  4410   002B76                     u1981:
  4411   002B76  EFC3  F015         	goto	l2233
  4412   002B7A                     u1980:
  4413   002B7A  90D8               	bcf	status,0,c
  4414   002B7C  3010               	rrcf	___fladd@grs^0,w,c
  4415   002B7E  0901               	iorlw	1
  4416   002B80  6E10               	movwf	___fladd@grs^0,c
  4417   002B82  EFC5  F015         	goto	l2235
  4418   002B86                     l2233:
  4419   002B86  90D8               	bcf	status,0,c
  4420   002B88  3210               	rrcf	___fladd@grs^0,f,c
  4421   002B8A                     l2235:
  4422   002B8A  A001               	btfss	___fladd@b^0,0,c
  4423   002B8C  EFCA  F015         	goto	u1991
  4424   002B90  EFCC  F015         	goto	u1990
  4425   002B94                     u1991:
  4426   002B94  EFCD  F015         	goto	l2239
  4427   002B98                     u1990:
  4428   002B98  8E10               	bsf	___fladd@grs^0,7,c
  4429   002B9A                     l2239:
  4430   002B9A  3404               	rlcf	(___fladd@b+3)^0,w,c
  4431   002B9C  3204               	rrcf	(___fladd@b+3)^0,f,c
  4432   002B9E  3203               	rrcf	(___fladd@b+2)^0,f,c
  4433   002BA0  3202               	rrcf	(___fladd@b+1)^0,f,c
  4434   002BA2  3201               	rrcf	___fladd@b^0,f,c
  4435   002BA4  2A0F               	incf	___fladd@bexp^0,f,c
  4436   002BA6                     l633:
  4437   002BA6  500E               	movf	___fladd@aexp^0,w,c
  4438   002BA8  5C0F               	subwf	___fladd@bexp^0,w,c
  4439   002BAA  A0D8               	btfss	status,0,c
  4440   002BAC  EFDA  F015         	goto	u2001
  4441   002BB0  EFDC  F015         	goto	u2000
  4442   002BB4                     u2001:
  4443   002BB4  EFB6  F015         	goto	l634
  4444   002BB8                     u2000:
  4445   002BB8                     l632:
  4446   002BB8  BC0D               	btfsc	___fladd@signs^0,6,c
  4447   002BBA  EFE1  F015         	goto	u2011
  4448   002BBE  EFE3  F015         	goto	u2010
  4449   002BC2                     u2011:
  4450   002BC2  EF23  F016         	goto	l2267
  4451   002BC6                     u2010:
  4452   002BC6  500F               	movf	___fladd@bexp^0,w,c
  4453   002BC8  A4D8               	btfss	status,2,c
  4454   002BCA  EFE9  F015         	goto	u2021
  4455   002BCE  EFEB  F015         	goto	u2020
  4456   002BD2                     u2021:
  4457   002BD2  EFF5  F015         	goto	l2249
  4458   002BD6                     u2020:
  4459   002BD6  0E00               	movlw	0
  4460   002BD8  6E01               	movwf	?___fladd^0,c
  4461   002BDA  0E00               	movlw	0
  4462   002BDC  6E02               	movwf	(?___fladd+1)^0,c
  4463   002BDE  0E00               	movlw	0
  4464   002BE0  6E03               	movwf	(?___fladd+2)^0,c
  4465   002BE2  0E00               	movlw	0
  4466   002BE4  6E04               	movwf	(?___fladd+3)^0,c
  4467   002BE6  EF44  F017         	goto	l641
  4468   002BEA                     l2249:
  4469   002BEA  5005               	movf	___fladd@a^0,w,c
  4470   002BEC  2601               	addwf	___fladd@b^0,f,c
  4471   002BEE  5006               	movf	(___fladd@a+1)^0,w,c
  4472   002BF0  2202               	addwfc	(___fladd@b+1)^0,f,c
  4473   002BF2  5007               	movf	(___fladd@a+2)^0,w,c
  4474   002BF4  2203               	addwfc	(___fladd@b+2)^0,f,c
  4475   002BF6  5008               	movf	(___fladd@a+3)^0,w,c
  4476   002BF8  2204               	addwfc	(___fladd@b+3)^0,f,c
  4477   002BFA  A004               	btfss	(___fladd@b+3)^0,0,c
  4478   002BFC  EF02  F016         	goto	u2031
  4479   002C00  EF04  F016         	goto	u2030
  4480   002C04                     u2031:
  4481   002C04  EFB0  F016         	goto	l2303
  4482   002C08                     u2030:
  4483   002C08  A010               	btfss	___fladd@grs^0,0,c
  4484   002C0A  EF09  F016         	goto	u2041
  4485   002C0E  EF0B  F016         	goto	u2040
  4486   002C12                     u2041:
  4487   002C12  EF11  F016         	goto	l2257
  4488   002C16                     u2040:
  4489   002C16  90D8               	bcf	status,0,c
  4490   002C18  3010               	rrcf	___fladd@grs^0,w,c
  4491   002C1A  0901               	iorlw	1
  4492   002C1C  6E10               	movwf	___fladd@grs^0,c
  4493   002C1E  EF13  F016         	goto	l2259
  4494   002C22                     l2257:
  4495   002C22  90D8               	bcf	status,0,c
  4496   002C24  3210               	rrcf	___fladd@grs^0,f,c
  4497   002C26                     l2259:
  4498   002C26  A001               	btfss	___fladd@b^0,0,c
  4499   002C28  EF18  F016         	goto	u2051
  4500   002C2C  EF1A  F016         	goto	u2050
  4501   002C30                     u2051:
  4502   002C30  EF1B  F016         	goto	l2263
  4503   002C34                     u2050:
  4504   002C34  8E10               	bsf	___fladd@grs^0,7,c
  4505   002C36                     l2263:
  4506   002C36  3404               	rlcf	(___fladd@b+3)^0,w,c
  4507   002C38  3204               	rrcf	(___fladd@b+3)^0,f,c
  4508   002C3A  3203               	rrcf	(___fladd@b+2)^0,f,c
  4509   002C3C  3202               	rrcf	(___fladd@b+1)^0,f,c
  4510   002C3E  3201               	rrcf	___fladd@b^0,f,c
  4511   002C40  2A0F               	incf	___fladd@bexp^0,f,c
  4512   002C42  EFB0  F016         	goto	l2303
  4513   002C46                     l2267:
  4514   002C46  5005               	movf	___fladd@a^0,w,c
  4515   002C48  5C01               	subwf	___fladd@b^0,w,c
  4516   002C4A  5006               	movf	(___fladd@a+1)^0,w,c
  4517   002C4C  5802               	subwfb	(___fladd@b+1)^0,w,c
  4518   002C4E  5007               	movf	(___fladd@a+2)^0,w,c
  4519   002C50  5803               	subwfb	(___fladd@b+2)^0,w,c
  4520   002C52  5004               	movf	(___fladd@b+3)^0,w,c
  4521   002C54  0A80               	xorlw	128
  4522   002C56  6E09               	movwf	??___fladd^0,c
  4523   002C58  5008               	movf	(___fladd@a+3)^0,w,c
  4524   002C5A  0A80               	xorlw	128
  4525   002C5C  5809               	subwfb	??___fladd^0,w,c
  4526   002C5E  B0D8               	btfsc	status,0,c
  4527   002C60  EF34  F016         	goto	u2061
  4528   002C64  EF36  F016         	goto	u2060
  4529   002C68                     u2061:
  4530   002C68  EF61  F016         	goto	l2277
  4531   002C6C                     u2060:
  4532   002C6C  5001               	movf	___fladd@b^0,w,c
  4533   002C6E  5C05               	subwf	___fladd@a^0,w,c
  4534   002C70  6E09               	movwf	??___fladd^0,c
  4535   002C72  5002               	movf	(___fladd@b+1)^0,w,c
  4536   002C74  5806               	subwfb	(___fladd@a+1)^0,w,c
  4537   002C76  6E0A               	movwf	(??___fladd+1)^0,c
  4538   002C78  5003               	movf	(___fladd@b+2)^0,w,c
  4539   002C7A  5807               	subwfb	(___fladd@a+2)^0,w,c
  4540   002C7C  6E0B               	movwf	(??___fladd+2)^0,c
  4541   002C7E  5004               	movf	(___fladd@b+3)^0,w,c
  4542   002C80  5808               	subwfb	(___fladd@a+3)^0,w,c
  4543   002C82  6E0C               	movwf	(??___fladd+3)^0,c
  4544   002C84  0EFF               	movlw	255
  4545   002C86  2409               	addwf	??___fladd^0,w,c
  4546   002C88  6E01               	movwf	___fladd@b^0,c
  4547   002C8A  0EFF               	movlw	255
  4548   002C8C  200A               	addwfc	(??___fladd+1)^0,w,c
  4549   002C8E  6E02               	movwf	(___fladd@b+1)^0,c
  4550   002C90  0EFF               	movlw	255
  4551   002C92  200B               	addwfc	(??___fladd+2)^0,w,c
  4552   002C94  6E03               	movwf	(___fladd@b+2)^0,c
  4553   002C96  0EFF               	movlw	255
  4554   002C98  200C               	addwfc	(??___fladd+3)^0,w,c
  4555   002C9A  6E04               	movwf	(___fladd@b+3)^0,c
  4556   002C9C  0E80               	movlw	128
  4557   002C9E  1A0D               	xorwf	___fladd@signs^0,f,c
  4558   002CA0  6C10               	negf	___fladd@grs^0,c
  4559   002CA2  5010               	movf	___fladd@grs^0,w,c
  4560   002CA4  A4D8               	btfss	status,2,c
  4561   002CA6  EF57  F016         	goto	u2071
  4562   002CAA  EF59  F016         	goto	u2070
  4563   002CAE                     u2071:
  4564   002CAE  EF69  F016         	goto	l649
  4565   002CB2                     u2070:
  4566   002CB2  0E01               	movlw	1
  4567   002CB4  2601               	addwf	___fladd@b^0,f,c
  4568   002CB6  0E00               	movlw	0
  4569   002CB8  2202               	addwfc	(___fladd@b+1)^0,f,c
  4570   002CBA  2203               	addwfc	(___fladd@b+2)^0,f,c
  4571   002CBC  2204               	addwfc	(___fladd@b+3)^0,f,c
  4572   002CBE  EF69  F016         	goto	l649
  4573   002CC2                     l2277:
  4574   002CC2  5005               	movf	___fladd@a^0,w,c
  4575   002CC4  5E01               	subwf	___fladd@b^0,f,c
  4576   002CC6  5006               	movf	(___fladd@a+1)^0,w,c
  4577   002CC8  5A02               	subwfb	(___fladd@b+1)^0,f,c
  4578   002CCA  5007               	movf	(___fladd@a+2)^0,w,c
  4579   002CCC  5A03               	subwfb	(___fladd@b+2)^0,f,c
  4580   002CCE  5008               	movf	(___fladd@a+3)^0,w,c
  4581   002CD0  5A04               	subwfb	(___fladd@b+3)^0,f,c
  4582   002CD2                     l649:
  4583   002CD2  5001               	movf	___fladd@b^0,w,c
  4584   002CD4  1002               	iorwf	(___fladd@b+1)^0,w,c
  4585   002CD6  1003               	iorwf	(___fladd@b+2)^0,w,c
  4586   002CD8  1004               	iorwf	(___fladd@b+3)^0,w,c
  4587   002CDA  A4D8               	btfss	status,2,c
  4588   002CDC  EF72  F016         	goto	u2081
  4589   002CE0  EF74  F016         	goto	u2080
  4590   002CE4                     u2081:
  4591   002CE4  EFA9  F016         	goto	l2301
  4592   002CE8                     u2080:
  4593   002CE8  5010               	movf	___fladd@grs^0,w,c
  4594   002CEA  A4D8               	btfss	status,2,c
  4595   002CEC  EF7A  F016         	goto	u2091
  4596   002CF0  EF7C  F016         	goto	u2090
  4597   002CF4                     u2091:
  4598   002CF4  EFA9  F016         	goto	l2301
  4599   002CF8                     u2090:
  4600   002CF8  0E00               	movlw	0
  4601   002CFA  6E01               	movwf	?___fladd^0,c
  4602   002CFC  0E00               	movlw	0
  4603   002CFE  6E02               	movwf	(?___fladd+1)^0,c
  4604   002D00  0E00               	movlw	0
  4605   002D02  6E03               	movwf	(?___fladd+2)^0,c
  4606   002D04  0E00               	movlw	0
  4607   002D06  6E04               	movwf	(?___fladd+3)^0,c
  4608   002D08  EF44  F017         	goto	l641
  4609   002D0C                     l2285:
  4610   002D0C  90D8               	bcf	status,0,c
  4611   002D0E  3601               	rlcf	___fladd@b^0,f,c
  4612   002D10  3602               	rlcf	(___fladd@b+1)^0,f,c
  4613   002D12  3603               	rlcf	(___fladd@b+2)^0,f,c
  4614   002D14  3604               	rlcf	(___fladd@b+3)^0,f,c
  4615   002D16  AE10               	btfss	___fladd@grs^0,7,c
  4616   002D18  EF90  F016         	goto	u2101
  4617   002D1C  EF92  F016         	goto	u2100
  4618   002D20                     u2101:
  4619   002D20  EF93  F016         	goto	l2291
  4620   002D24                     u2100:
  4621   002D24  8001               	bsf	___fladd@b^0,0,c
  4622   002D26                     l2291:
  4623   002D26  A010               	btfss	___fladd@grs^0,0,c
  4624   002D28  EF98  F016         	goto	u2111
  4625   002D2C  EF9A  F016         	goto	u2110
  4626   002D30                     u2111:
  4627   002D30  EF9E  F016         	goto	l2295
  4628   002D34                     u2110:
  4629   002D34  80D8               	bsf	status,0,c
  4630   002D36  3610               	rlcf	___fladd@grs^0,f,c
  4631   002D38  EFA0  F016         	goto	l2297
  4632   002D3C                     l2295:
  4633   002D3C  90D8               	bcf	status,0,c
  4634   002D3E  3610               	rlcf	___fladd@grs^0,f,c
  4635   002D40                     l2297:
  4636   002D40  500F               	movf	___fladd@bexp^0,w,c
  4637   002D42  B4D8               	btfsc	status,2,c
  4638   002D44  EFA6  F016         	goto	u2121
  4639   002D48  EFA8  F016         	goto	u2120
  4640   002D4C                     u2121:
  4641   002D4C  EFA9  F016         	goto	l2301
  4642   002D50                     u2120:
  4643   002D50  060F               	decf	___fladd@bexp^0,f,c
  4644   002D52                     l2301:
  4645   002D52  AE03               	btfss	(___fladd@b+2)^0,7,c
  4646   002D54  EFAE  F016         	goto	u2131
  4647   002D58  EFB0  F016         	goto	u2130
  4648   002D5C                     u2131:
  4649   002D5C  EF86  F016         	goto	l2285
  4650   002D60                     u2130:
  4651   002D60                     l2303:
  4652   002D60  0E00               	movlw	0
  4653   002D62  6E0E               	movwf	___fladd@aexp^0,c
  4654   002D64  AE10               	btfss	___fladd@grs^0,7,c
  4655   002D66  EFB7  F016         	goto	u2141
  4656   002D6A  EFB9  F016         	goto	u2140
  4657   002D6E                     u2141:
  4658   002D6E  EFD1  F016         	goto	l658
  4659   002D72                     u2140:
  4660   002D72  C010  F009         	movff	___fladd@grs,??___fladd
  4661   002D76  0E7F               	movlw	127
  4662   002D78  1609               	andwf	??___fladd^0,f,c
  4663   002D7A  B4D8               	btfsc	status,2,c
  4664   002D7C  EFC2  F016         	goto	u2151
  4665   002D80  EFC4  F016         	goto	u2150
  4666   002D84                     u2151:
  4667   002D84  EFC8  F016         	goto	l659
  4668   002D88                     u2150:
  4669   002D88                     l2309:
  4670   002D88  0E01               	movlw	1
  4671   002D8A  6E0E               	movwf	___fladd@aexp^0,c
  4672   002D8C  EFD1  F016         	goto	l658
  4673   002D90                     l659:
  4674   002D90  A001               	btfss	___fladd@b^0,0,c
  4675   002D92  EFCD  F016         	goto	u2161
  4676   002D96  EFCF  F016         	goto	u2160
  4677   002D9A                     u2161:
  4678   002D9A  EFD1  F016         	goto	l658
  4679   002D9E                     u2160:
  4680   002D9E  EFC4  F016         	goto	l2309
  4681   002DA2                     l658:
  4682   002DA2  500E               	movf	___fladd@aexp^0,w,c
  4683   002DA4  B4D8               	btfsc	status,2,c
  4684   002DA6  EFD7  F016         	goto	u2171
  4685   002DAA  EFD9  F016         	goto	u2170
  4686   002DAE                     u2171:
  4687   002DAE  EF04  F017         	goto	l2321
  4688   002DB2                     u2170:
  4689   002DB2  0E01               	movlw	1
  4690   002DB4  2601               	addwf	___fladd@b^0,f,c
  4691   002DB6  0E00               	movlw	0
  4692   002DB8  2202               	addwfc	(___fladd@b+1)^0,f,c
  4693   002DBA  2203               	addwfc	(___fladd@b+2)^0,f,c
  4694   002DBC  2204               	addwfc	(___fladd@b+3)^0,f,c
  4695   002DBE  A004               	btfss	(___fladd@b+3)^0,0,c
  4696   002DC0  EFE4  F016         	goto	u2181
  4697   002DC4  EFE6  F016         	goto	u2180
  4698   002DC8                     u2181:
  4699   002DC8  EF04  F017         	goto	l2321
  4700   002DCC                     u2180:
  4701   002DCC  C001  F009         	movff	___fladd@b,??___fladd
  4702   002DD0  C002  F00A         	movff	___fladd@b+1,??___fladd+1
  4703   002DD4  C003  F00B         	movff	___fladd@b+2,??___fladd+2
  4704   002DD8  C004  F00C         	movff	___fladd@b+3,??___fladd+3
  4705   002DDC  340C               	rlcf	(??___fladd+3)^0,w,c
  4706   002DDE  320C               	rrcf	(??___fladd+3)^0,f,c
  4707   002DE0  320B               	rrcf	(??___fladd+2)^0,f,c
  4708   002DE2  320A               	rrcf	(??___fladd+1)^0,f,c
  4709   002DE4  3209               	rrcf	??___fladd^0,f,c
  4710   002DE6  C009  F001         	movff	??___fladd,___fladd@b
  4711   002DEA  C00A  F002         	movff	??___fladd+1,___fladd@b+1
  4712   002DEE  C00B  F003         	movff	??___fladd+2,___fladd@b+2
  4713   002DF2  C00C  F004         	movff	??___fladd+3,___fladd@b+3
  4714   002DF6  280F               	incf	___fladd@bexp^0,w,c
  4715   002DF8  B4D8               	btfsc	status,2,c
  4716   002DFA  EF01  F017         	goto	u2191
  4717   002DFE  EF03  F017         	goto	u2190
  4718   002E02                     u2191:
  4719   002E02  EF04  F017         	goto	l2321
  4720   002E06                     u2190:
  4721   002E06  2A0F               	incf	___fladd@bexp^0,f,c
  4722   002E08                     l2321:
  4723   002E08  280F               	incf	___fladd@bexp^0,w,c
  4724   002E0A  B4D8               	btfsc	status,2,c
  4725   002E0C  EF0A  F017         	goto	u2201
  4726   002E10  EF0C  F017         	goto	u2200
  4727   002E14                     u2201:
  4728   002E14  EF14  F017         	goto	l2325
  4729   002E18                     u2200:
  4730   002E18  500F               	movf	___fladd@bexp^0,w,c
  4731   002E1A  A4D8               	btfss	status,2,c
  4732   002E1C  EF12  F017         	goto	u2211
  4733   002E20  EF14  F017         	goto	u2210
  4734   002E24                     u2211:
  4735   002E24  EF26  F017         	goto	l2329
  4736   002E28                     u2210:
  4737   002E28                     l2325:
  4738   002E28  0E00               	movlw	0
  4739   002E2A  6E01               	movwf	___fladd@b^0,c
  4740   002E2C  0E00               	movlw	0
  4741   002E2E  6E02               	movwf	(___fladd@b+1)^0,c
  4742   002E30  0E00               	movlw	0
  4743   002E32  6E03               	movwf	(___fladd@b+2)^0,c
  4744   002E34  0E00               	movlw	0
  4745   002E36  6E04               	movwf	(___fladd@b+3)^0,c
  4746   002E38  500F               	movf	___fladd@bexp^0,w,c
  4747   002E3A  A4D8               	btfss	status,2,c
  4748   002E3C  EF22  F017         	goto	u2221
  4749   002E40  EF24  F017         	goto	u2220
  4750   002E44                     u2221:
  4751   002E44  EF26  F017         	goto	l2329
  4752   002E48                     u2220:
  4753   002E48  0E00               	movlw	0
  4754   002E4A  6E0D               	movwf	___fladd@signs^0,c
  4755   002E4C                     l2329:
  4756   002E4C  A00F               	btfss	___fladd@bexp^0,0,c
  4757   002E4E  EF2B  F017         	goto	u2231
  4758   002E52  EF2D  F017         	goto	u2230
  4759   002E56                     u2231:
  4760   002E56  EF30  F017         	goto	l2333
  4761   002E5A                     u2230:
  4762   002E5A  8E03               	bsf	(___fladd@b+2)^0,7,c
  4763   002E5C  EF31  F017         	goto	l2335
  4764   002E60                     l2333:
  4765   002E60  9E03               	bcf	(___fladd@b+2)^0,7,c
  4766   002E62                     l2335:
  4767   002E62  90D8               	bcf	status,0,c
  4768   002E64  300F               	rrcf	___fladd@bexp^0,w,c
  4769   002E66  6E04               	movwf	(___fladd@b+3)^0,c
  4770   002E68  AE0D               	btfss	___fladd@signs^0,7,c
  4771   002E6A  EF39  F017         	goto	u2241
  4772   002E6E  EF3B  F017         	goto	u2240
  4773   002E72                     u2241:
  4774   002E72  EF3C  F017         	goto	l2341
  4775   002E76                     u2240:
  4776   002E76  8E04               	bsf	(___fladd@b+3)^0,7,c
  4777   002E78                     l2341:
  4778   002E78  C001  F001         	movff	___fladd@b,?___fladd
  4779   002E7C  C002  F002         	movff	___fladd@b+1,?___fladd+1
  4780   002E80  C003  F003         	movff	___fladd@b+2,?___fladd+2
  4781   002E84  C004  F004         	movff	___fladd@b+3,?___fladd+3
  4782   002E88                     l641:
  4783   002E88  0012               	return		;funcret
  4784   002E8A                     __end_of___fladd:
  4785                           	callstack 0
  4786                           
  4787 ;; *************** function ___flneg *****************
  4788 ;; Defined at:
  4789 ;;		line 15 in file "C:\Program Files\Microchip\xc8\v2.46\pic\sources\c99\common\flneg.c"
  4790 ;; Parameters:    Size  Location     Type
  4791 ;;  f1              4    0[COMRAM] unsigned char 
  4792 ;; Auto vars:     Size  Location     Type
  4793 ;;		None
  4794 ;; Return value:  Size  Location     Type
  4795 ;;                  4    0[COMRAM] unsigned char 
  4796 ;; Registers used:
  4797 ;;		wreg, status,2, status,0
  4798 ;; Tracked objects:
  4799 ;;		On entry : 0/0
  4800 ;;		On exit  : 0/0
  4801 ;;		Unchanged: 0/0
  4802 ;; Data sizes:     COMRAM   BANK0   BANK1   BANK2   BANK3   BANK4   BANK5   BANK6   BANK7   BANK8   BANK9  BANK10  BANK1
      +1  BANK12  BANK13  BANK14  BANK15  BANK16  BANK17  BANK18  BANK19  BANK20  BANK21  BANK22  BANK23  BANK24  BANK25  BANK2
      +6  BANK27  BANK28  BANK29  BANK30  BANK31
  4803 ;;      Params:         4       0       0       0       0       0       0       0       0       0       0       0       
      +0       0       0       0       0       0       0       0       0       0       0       0       0       0       0       
      +0       0       0       0       0       0
  4804 ;;      Locals:         0       0       0       0       0       0       0       0       0       0       0       0       
      +0       0       0       0       0       0       0       0       0       0       0       0       0       0       0       
      +0       0       0       0       0       0
  4805 ;;      Temps:          0       0       0       0       0       0       0       0       0       0       0       0       
      +0       0       0       0       0       0       0       0       0       0       0       0       0       0       0       
      +0       0       0       0       0       0
  4806 ;;      Totals:         4       0       0       0       0       0       0       0       0       0       0       0       
      +0       0       0       0       0       0       0       0       0       0       0       0       0       0       0       
      +0       0       0       0       0       0
  4807 ;;Total ram usage:        4 bytes
  4808 ;; Hardware stack levels used: 1
  4809 ;; This function calls:
  4810 ;;		Nothing
  4811 ;; This function is called by:
  4812 ;;		_efgtoa
  4813 ;; This function uses a non-reentrant model
  4814 ;;
  4815                           
  4816                           	psect	text20
  4817   004590                     __ptext20:
  4818                           	callstack 0
  4819   004590                     ___flneg:
  4820                           	callstack 26
  4821   004590  5001               	movf	___flneg@f1^0,w,c
  4822   004592  1002               	iorwf	(___flneg@f1+1)^0,w,c
  4823   004594  1003               	iorwf	(___flneg@f1+2)^0,w,c
  4824   004596  1004               	iorwf	(___flneg@f1+3)^0,w,c
  4825   004598  B4D8               	btfsc	status,2,c
  4826   00459A  EFD1  F022         	goto	u2761
  4827   00459E  EFD3  F022         	goto	u2760
  4828   0045A2                     u2761:
  4829   0045A2  EFDB  F022         	goto	l2675
  4830   0045A6                     u2760:
  4831   0045A6  0E00               	movlw	0
  4832   0045A8  1A01               	xorwf	___flneg@f1^0,f,c
  4833   0045AA  0E00               	movlw	0
  4834   0045AC  1A02               	xorwf	(___flneg@f1+1)^0,f,c
  4835   0045AE  0E00               	movlw	0
  4836   0045B0  1A03               	xorwf	(___flneg@f1+2)^0,f,c
  4837   0045B2  0E80               	movlw	128
  4838   0045B4  1A04               	xorwf	(___flneg@f1+3)^0,f,c
  4839   0045B6                     l2675:
  4840   0045B6  C001  F001         	movff	___flneg@f1,?___flneg
  4841   0045BA  C002  F002         	movff	___flneg@f1+1,?___flneg+1
  4842   0045BE  C003  F003         	movff	___flneg@f1+2,?___flneg+2
  4843   0045C2  C004  F004         	movff	___flneg@f1+3,?___flneg+3
  4844   0045C6  0012               	return		;funcret
  4845   0045C8                     __end_of___flneg:
  4846                           	callstack 0
  4847                           
  4848 ;; *************** function ___flmul *****************
  4849 ;; Defined at:
  4850 ;;		line 8 in file "C:\Program Files\Microchip\xc8\v2.46\pic\sources\c99\common\sprcmul.c"
  4851 ;; Parameters:    Size  Location     Type
  4852 ;;  b               4   14[COMRAM] unsigned char 
  4853 ;;  a               4   18[COMRAM] unsigned char 
  4854 ;; Auto vars:     Size  Location     Type
  4855 ;;  prod            4   33[COMRAM] struct .
  4856 ;;  grs             4   27[COMRAM] unsigned long 
  4857 ;;  temp            2   37[COMRAM] struct .
  4858 ;;  bexp            1   32[COMRAM] unsigned char 
  4859 ;;  aexp            1   31[COMRAM] unsigned char 
  4860 ;;  sign            1   26[COMRAM] unsigned char 
  4861 ;; Return value:  Size  Location     Type
  4862 ;;                  4   14[COMRAM] unsigned char 
  4863 ;; Registers used:
  4864 ;;		wreg, status,2, status,0, prodl, prodh
  4865 ;; Tracked objects:
  4866 ;;		On entry : 0/0
  4867 ;;		On exit  : 0/0
  4868 ;;		Unchanged: 0/0
  4869 ;; Data sizes:     COMRAM   BANK0   BANK1   BANK2   BANK3   BANK4   BANK5   BANK6   BANK7   BANK8   BANK9  BANK10  BANK1
      +1  BANK12  BANK13  BANK14  BANK15  BANK16  BANK17  BANK18  BANK19  BANK20  BANK21  BANK22  BANK23  BANK24  BANK25  BANK2
      +6  BANK27  BANK28  BANK29  BANK30  BANK31
  4870 ;;      Params:         8       0       0       0       0       0       0       0       0       0       0       0       
      +0       0       0       0       0       0       0       0       0       0       0       0       0       0       0       
      +0       0       0       0       0       0
  4871 ;;      Locals:        13       0       0       0       0       0       0       0       0       0       0       0       
      +0       0       0       0       0       0       0       0       0       0       0       0       0       0       0       
      +0       0       0       0       0       0
  4872 ;;      Temps:          4       0       0       0       0       0       0       0       0       0       0       0       
      +0       0       0       0       0       0       0       0       0       0       0       0       0       0       0       
      +0       0       0       0       0       0
  4873 ;;      Totals:        25       0       0       0       0       0       0       0       0       0       0       0       
      +0       0       0       0       0       0       0       0       0       0       0       0       0       0       0       
      +0       0       0       0       0       0
  4874 ;;Total ram usage:       25 bytes
  4875 ;; Hardware stack levels used: 1
  4876 ;; This function calls:
  4877 ;;		Nothing
  4878 ;; This function is called by:
  4879 ;;		_main
  4880 ;;		_efgtoa
  4881 ;; This function uses a non-reentrant model
  4882 ;;
  4883                           
  4884                           	psect	text21
  4885   002E8A                     __ptext21:
  4886                           	callstack 0
  4887   002E8A                     ___flmul:
  4888                           	callstack 26
  4889   002E8A  5012               	movf	(___flmul@b+3)^0,w,c
  4890   002E8C  0B80               	andlw	128
  4891   002E8E  6E1B               	movwf	___flmul@sign^0,c
  4892   002E90  5012               	movf	(___flmul@b+3)^0,w,c
  4893   002E92  2412               	addwf	(___flmul@b+3)^0,w,c
  4894   002E94  6E21               	movwf	___flmul@bexp^0,c
  4895   002E96  AE11               	btfss	(___flmul@b+2)^0,7,c
  4896   002E98  EF50  F017         	goto	u2491
  4897   002E9C  EF52  F017         	goto	u2490
  4898   002EA0                     u2491:
  4899   002EA0  EF53  F017         	goto	l2503
  4900   002EA4                     u2490:
  4901   002EA4  8021               	bsf	___flmul@bexp^0,0,c
  4902   002EA6                     l2503:
  4903   002EA6  5021               	movf	___flmul@bexp^0,w,c
  4904   002EA8  B4D8               	btfsc	status,2,c
  4905   002EAA  EF59  F017         	goto	u2501
  4906   002EAE  EF5B  F017         	goto	u2500
  4907   002EB2                     u2501:
  4908   002EB2  EF6E  F017         	goto	l2511
  4909   002EB6                     u2500:
  4910   002EB6  2821               	incf	___flmul@bexp^0,w,c
  4911   002EB8  A4D8               	btfss	status,2,c
  4912   002EBA  EF61  F017         	goto	u2511
  4913   002EBE  EF63  F017         	goto	u2510
  4914   002EC2                     u2511:
  4915   002EC2  EF6B  F017         	goto	l2509
  4916   002EC6                     u2510:
  4917   002EC6  0E00               	movlw	0
  4918   002EC8  6E0F               	movwf	___flmul@b^0,c
  4919   002ECA  0E00               	movlw	0
  4920   002ECC  6E10               	movwf	(___flmul@b+1)^0,c
  4921   002ECE  0E00               	movlw	0
  4922   002ED0  6E11               	movwf	(___flmul@b+2)^0,c
  4923   002ED2  0E00               	movlw	0
  4924   002ED4  6E12               	movwf	(___flmul@b+3)^0,c
  4925   002ED6                     l2509:
  4926   002ED6  8E11               	bsf	(___flmul@b+2)^0,7,c
  4927   002ED8  EF76  F017         	goto	l2513
  4928   002EDC                     l2511:
  4929   002EDC  0E00               	movlw	0
  4930   002EDE  6E0F               	movwf	___flmul@b^0,c
  4931   002EE0  0E00               	movlw	0
  4932   002EE2  6E10               	movwf	(___flmul@b+1)^0,c
  4933   002EE4  0E00               	movlw	0
  4934   002EE6  6E11               	movwf	(___flmul@b+2)^0,c
  4935   002EE8  0E00               	movlw	0
  4936   002EEA  6E12               	movwf	(___flmul@b+3)^0,c
  4937   002EEC                     l2513:
  4938   002EEC  5016               	movf	(___flmul@a+3)^0,w,c
  4939   002EEE  0B80               	andlw	128
  4940   002EF0  1A1B               	xorwf	___flmul@sign^0,f,c
  4941   002EF2  5016               	movf	(___flmul@a+3)^0,w,c
  4942   002EF4  2416               	addwf	(___flmul@a+3)^0,w,c
  4943   002EF6  6E20               	movwf	___flmul@aexp^0,c
  4944   002EF8  AE15               	btfss	(___flmul@a+2)^0,7,c
  4945   002EFA  EF81  F017         	goto	u2521
  4946   002EFE  EF83  F017         	goto	u2520
  4947   002F02                     u2521:
  4948   002F02  EF84  F017         	goto	l2521
  4949   002F06                     u2520:
  4950   002F06  8020               	bsf	___flmul@aexp^0,0,c
  4951   002F08                     l2521:
  4952   002F08  5020               	movf	___flmul@aexp^0,w,c
  4953   002F0A  B4D8               	btfsc	status,2,c
  4954   002F0C  EF8A  F017         	goto	u2531
  4955   002F10  EF8C  F017         	goto	u2530
  4956   002F14                     u2531:
  4957   002F14  EF9F  F017         	goto	l2529
  4958   002F18                     u2530:
  4959   002F18  2820               	incf	___flmul@aexp^0,w,c
  4960   002F1A  A4D8               	btfss	status,2,c
  4961   002F1C  EF92  F017         	goto	u2541
  4962   002F20  EF94  F017         	goto	u2540
  4963   002F24                     u2541:
  4964   002F24  EF9C  F017         	goto	l2527
  4965   002F28                     u2540:
  4966   002F28  0E00               	movlw	0
  4967   002F2A  6E13               	movwf	___flmul@a^0,c
  4968   002F2C  0E00               	movlw	0
  4969   002F2E  6E14               	movwf	(___flmul@a+1)^0,c
  4970   002F30  0E00               	movlw	0
  4971   002F32  6E15               	movwf	(___flmul@a+2)^0,c
  4972   002F34  0E00               	movlw	0
  4973   002F36  6E16               	movwf	(___flmul@a+3)^0,c
  4974   002F38                     l2527:
  4975   002F38  8E15               	bsf	(___flmul@a+2)^0,7,c
  4976   002F3A  EFA7  F017         	goto	l718
  4977   002F3E                     l2529:
  4978   002F3E  0E00               	movlw	0
  4979   002F40  6E13               	movwf	___flmul@a^0,c
  4980   002F42  0E00               	movlw	0
  4981   002F44  6E14               	movwf	(___flmul@a+1)^0,c
  4982   002F46  0E00               	movlw	0
  4983   002F48  6E15               	movwf	(___flmul@a+2)^0,c
  4984   002F4A  0E00               	movlw	0
  4985   002F4C  6E16               	movwf	(___flmul@a+3)^0,c
  4986   002F4E                     l718:
  4987   002F4E  5020               	movf	___flmul@aexp^0,w,c
  4988   002F50  B4D8               	btfsc	status,2,c
  4989   002F52  EFAD  F017         	goto	u2551
  4990   002F56  EFAF  F017         	goto	u2550
  4991   002F5A                     u2551:
  4992   002F5A  EFB7  F017         	goto	l2533
  4993   002F5E                     u2550:
  4994   002F5E  5021               	movf	___flmul@bexp^0,w,c
  4995   002F60  A4D8               	btfss	status,2,c
  4996   002F62  EFB5  F017         	goto	u2561
  4997   002F66  EFB7  F017         	goto	u2560
  4998   002F6A                     u2561:
  4999   002F6A  EFC1  F017         	goto	l2537
  5000   002F6E                     u2560:
  5001   002F6E                     l2533:
  5002   002F6E  0E00               	movlw	0
  5003   002F70  6E0F               	movwf	?___flmul^0,c
  5004   002F72  0E00               	movlw	0
  5005   002F74  6E10               	movwf	(?___flmul+1)^0,c
  5006   002F76  0E00               	movlw	0
  5007   002F78  6E11               	movwf	(?___flmul+2)^0,c
  5008   002F7A  0E00               	movlw	0
  5009   002F7C  6E12               	movwf	(?___flmul+3)^0,c
  5010   002F7E  EF6B  F019         	goto	l722
  5011   002F82                     l2537:
  5012   002F82  5015               	movf	(___flmul@a+2)^0,w,c
  5013   002F84  020F               	mulwf	___flmul@b^0,c
  5014   002F86  006F FFCC  F026    	movff	prodl,___flmul@temp
  5015   002F8C  006F FFD0  F027    	movff	prodh,___flmul@temp+1
  5016   002F92  5026               	movf	___flmul@temp^0,w,c
  5017   002F94  6E1C               	movwf	___flmul@grs^0,c
  5018   002F96  6A1D               	clrf	(___flmul@grs+1)^0,c
  5019   002F98  6A1E               	clrf	(___flmul@grs+2)^0,c
  5020   002F9A  6A1F               	clrf	(___flmul@grs+3)^0,c
  5021   002F9C  5027               	movf	(___flmul@temp+1)^0,w,c
  5022   002F9E  6E22               	movwf	___flmul@prod^0,c
  5023   002FA0  6A23               	clrf	(___flmul@prod+1)^0,c
  5024   002FA2  6A24               	clrf	(___flmul@prod+2)^0,c
  5025   002FA4  6A25               	clrf	(___flmul@prod+3)^0,c
  5026   002FA6  5014               	movf	(___flmul@a+1)^0,w,c
  5027   002FA8  0210               	mulwf	(___flmul@b+1)^0,c
  5028   002FAA  006F FFCC  F026    	movff	prodl,___flmul@temp
  5029   002FB0  006F FFD0  F027    	movff	prodh,___flmul@temp+1
  5030   002FB6  5026               	movf	___flmul@temp^0,w,c
  5031   002FB8  261C               	addwf	___flmul@grs^0,f,c
  5032   002FBA  0E00               	movlw	0
  5033   002FBC  221D               	addwfc	(___flmul@grs+1)^0,f,c
  5034   002FBE  221E               	addwfc	(___flmul@grs+2)^0,f,c
  5035   002FC0  221F               	addwfc	(___flmul@grs+3)^0,f,c
  5036   002FC2  5027               	movf	(___flmul@temp+1)^0,w,c
  5037   002FC4  2622               	addwf	___flmul@prod^0,f,c
  5038   002FC6  0E00               	movlw	0
  5039   002FC8  2223               	addwfc	(___flmul@prod+1)^0,f,c
  5040   002FCA  2224               	addwfc	(___flmul@prod+2)^0,f,c
  5041   002FCC  2225               	addwfc	(___flmul@prod+3)^0,f,c
  5042   002FCE  5013               	movf	___flmul@a^0,w,c
  5043   002FD0  0211               	mulwf	(___flmul@b+2)^0,c
  5044   002FD2  006F FFCC  F026    	movff	prodl,___flmul@temp
  5045   002FD8  006F FFD0  F027    	movff	prodh,___flmul@temp+1
  5046   002FDE  5026               	movf	___flmul@temp^0,w,c
  5047   002FE0  261C               	addwf	___flmul@grs^0,f,c
  5048   002FE2  0E00               	movlw	0
  5049   002FE4  221D               	addwfc	(___flmul@grs+1)^0,f,c
  5050   002FE6  221E               	addwfc	(___flmul@grs+2)^0,f,c
  5051   002FE8  221F               	addwfc	(___flmul@grs+3)^0,f,c
  5052   002FEA  5027               	movf	(___flmul@temp+1)^0,w,c
  5053   002FEC  2622               	addwf	___flmul@prod^0,f,c
  5054   002FEE  0E00               	movlw	0
  5055   002FF0  2223               	addwfc	(___flmul@prod+1)^0,f,c
  5056   002FF2  2224               	addwfc	(___flmul@prod+2)^0,f,c
  5057   002FF4  2225               	addwfc	(___flmul@prod+3)^0,f,c
  5058   002FF6  C01E  F01F         	movff	___flmul@grs+2,___flmul@grs+3
  5059   002FFA  C01D  F01E         	movff	___flmul@grs+1,___flmul@grs+2
  5060   002FFE  C01C  F01D         	movff	___flmul@grs,___flmul@grs+1
  5061   003002  6A1C               	clrf	___flmul@grs^0,c
  5062   003004  5013               	movf	___flmul@a^0,w,c
  5063   003006  0210               	mulwf	(___flmul@b+1)^0,c
  5064   003008  006F FFCC  F026    	movff	prodl,___flmul@temp
  5065   00300E  006F FFD0  F027    	movff	prodh,___flmul@temp+1
  5066   003014  5026               	movf	___flmul@temp^0,w,c
  5067   003016  261C               	addwf	___flmul@grs^0,f,c
  5068   003018  5027               	movf	(___flmul@temp+1)^0,w,c
  5069   00301A  221D               	addwfc	(___flmul@grs+1)^0,f,c
  5070   00301C  0E00               	movlw	0
  5071   00301E  221E               	addwfc	(___flmul@grs+2)^0,f,c
  5072   003020  0E00               	movlw	0
  5073   003022  221F               	addwfc	(___flmul@grs+3)^0,f,c
  5074   003024  5014               	movf	(___flmul@a+1)^0,w,c
  5075   003026  020F               	mulwf	___flmul@b^0,c
  5076   003028  006F FFCC  F026    	movff	prodl,___flmul@temp
  5077   00302E  006F FFD0  F027    	movff	prodh,___flmul@temp+1
  5078   003034  5026               	movf	___flmul@temp^0,w,c
  5079   003036  261C               	addwf	___flmul@grs^0,f,c
  5080   003038  5027               	movf	(___flmul@temp+1)^0,w,c
  5081   00303A  221D               	addwfc	(___flmul@grs+1)^0,f,c
  5082   00303C  0E00               	movlw	0
  5083   00303E  221E               	addwfc	(___flmul@grs+2)^0,f,c
  5084   003040  0E00               	movlw	0
  5085   003042  221F               	addwfc	(___flmul@grs+3)^0,f,c
  5086   003044  C01E  F01F         	movff	___flmul@grs+2,___flmul@grs+3
  5087   003048  C01D  F01E         	movff	___flmul@grs+1,___flmul@grs+2
  5088   00304C  C01C  F01D         	movff	___flmul@grs,___flmul@grs+1
  5089   003050  6A1C               	clrf	___flmul@grs^0,c
  5090   003052  5013               	movf	___flmul@a^0,w,c
  5091   003054  020F               	mulwf	___flmul@b^0,c
  5092   003056  006F FFCC  F026    	movff	prodl,___flmul@temp
  5093   00305C  006F FFD0  F027    	movff	prodh,___flmul@temp+1
  5094   003062  5026               	movf	___flmul@temp^0,w,c
  5095   003064  261C               	addwf	___flmul@grs^0,f,c
  5096   003066  5027               	movf	(___flmul@temp+1)^0,w,c
  5097   003068  221D               	addwfc	(___flmul@grs+1)^0,f,c
  5098   00306A  0E00               	movlw	0
  5099   00306C  221E               	addwfc	(___flmul@grs+2)^0,f,c
  5100   00306E  0E00               	movlw	0
  5101   003070  221F               	addwfc	(___flmul@grs+3)^0,f,c
  5102   003072  5015               	movf	(___flmul@a+2)^0,w,c
  5103   003074  0210               	mulwf	(___flmul@b+1)^0,c
  5104   003076  006F FFCC  F026    	movff	prodl,___flmul@temp
  5105   00307C  006F FFD0  F027    	movff	prodh,___flmul@temp+1
  5106   003082  5026               	movf	___flmul@temp^0,w,c
  5107   003084  2622               	addwf	___flmul@prod^0,f,c
  5108   003086  5027               	movf	(___flmul@temp+1)^0,w,c
  5109   003088  2223               	addwfc	(___flmul@prod+1)^0,f,c
  5110   00308A  0E00               	movlw	0
  5111   00308C  2224               	addwfc	(___flmul@prod+2)^0,f,c
  5112   00308E  0E00               	movlw	0
  5113   003090  2225               	addwfc	(___flmul@prod+3)^0,f,c
  5114   003092  5014               	movf	(___flmul@a+1)^0,w,c
  5115   003094  0211               	mulwf	(___flmul@b+2)^0,c
  5116   003096  006F FFCC  F026    	movff	prodl,___flmul@temp
  5117   00309C  006F FFD0  F027    	movff	prodh,___flmul@temp+1
  5118   0030A2  5026               	movf	___flmul@temp^0,w,c
  5119   0030A4  2622               	addwf	___flmul@prod^0,f,c
  5120   0030A6  5027               	movf	(___flmul@temp+1)^0,w,c
  5121   0030A8  2223               	addwfc	(___flmul@prod+1)^0,f,c
  5122   0030AA  0E00               	movlw	0
  5123   0030AC  2224               	addwfc	(___flmul@prod+2)^0,f,c
  5124   0030AE  0E00               	movlw	0
  5125   0030B0  2225               	addwfc	(___flmul@prod+3)^0,f,c
  5126   0030B2  5015               	movf	(___flmul@a+2)^0,w,c
  5127   0030B4  0211               	mulwf	(___flmul@b+2)^0,c
  5128   0030B6  006F FFCC  F026    	movff	prodl,___flmul@temp
  5129   0030BC  006F FFD0  F027    	movff	prodh,___flmul@temp+1
  5130   0030C2  5026               	movf	___flmul@temp^0,w,c
  5131   0030C4  6E17               	movwf	??___flmul^0,c
  5132   0030C6  5027               	movf	(___flmul@temp+1)^0,w,c
  5133   0030C8  6E18               	movwf	(??___flmul+1)^0,c
  5134   0030CA  6A19               	clrf	(??___flmul+2)^0,c
  5135   0030CC  6A1A               	clrf	(??___flmul+3)^0,c
  5136   0030CE  C019  F01A         	movff	??___flmul+2,??___flmul+3
  5137   0030D2  C018  F019         	movff	??___flmul+1,??___flmul+2
  5138   0030D6  C017  F018         	movff	??___flmul,??___flmul+1
  5139   0030DA  6A17               	clrf	??___flmul^0,c
  5140   0030DC  5017               	movf	??___flmul^0,w,c
  5141   0030DE  2622               	addwf	___flmul@prod^0,f,c
  5142   0030E0  5018               	movf	(??___flmul+1)^0,w,c
  5143   0030E2  2223               	addwfc	(___flmul@prod+1)^0,f,c
  5144   0030E4  5019               	movf	(??___flmul+2)^0,w,c
  5145   0030E6  2224               	addwfc	(___flmul@prod+2)^0,f,c
  5146   0030E8  501A               	movf	(??___flmul+3)^0,w,c
  5147   0030EA  2225               	addwfc	(___flmul@prod+3)^0,f,c
  5148   0030EC  C01C  F017         	movff	___flmul@grs,??___flmul
  5149   0030F0  C01D  F018         	movff	___flmul@grs+1,??___flmul+1
  5150   0030F4  C01E  F019         	movff	___flmul@grs+2,??___flmul+2
  5151   0030F8  C01F  F01A         	movff	___flmul@grs+3,??___flmul+3
  5152   0030FC  0E19               	movlw	25
  5153   0030FE  EF86  F018         	goto	u2570
  5154   003102                     u2575:
  5155   003102  90D8               	bcf	status,0,c
  5156   003104  321A               	rrcf	(??___flmul+3)^0,f,c
  5157   003106  3219               	rrcf	(??___flmul+2)^0,f,c
  5158   003108  3218               	rrcf	(??___flmul+1)^0,f,c
  5159   00310A  3217               	rrcf	??___flmul^0,f,c
  5160   00310C                     u2570:
  5161   00310C  2EE8               	decfsz	wreg,f,c
  5162   00310E  EF81  F018         	goto	u2575
  5163   003112  5017               	movf	??___flmul^0,w,c
  5164   003114  2622               	addwf	___flmul@prod^0,f,c
  5165   003116  5018               	movf	(??___flmul+1)^0,w,c
  5166   003118  2223               	addwfc	(___flmul@prod+1)^0,f,c
  5167   00311A  5019               	movf	(??___flmul+2)^0,w,c
  5168   00311C  2224               	addwfc	(___flmul@prod+2)^0,f,c
  5169   00311E  501A               	movf	(??___flmul+3)^0,w,c
  5170   003120  2225               	addwfc	(___flmul@prod+3)^0,f,c
  5171   003122  C01E  F01F         	movff	___flmul@grs+2,___flmul@grs+3
  5172   003126  C01D  F01E         	movff	___flmul@grs+1,___flmul@grs+2
  5173   00312A  C01C  F01D         	movff	___flmul@grs,___flmul@grs+1
  5174   00312E  6A1C               	clrf	___flmul@grs^0,c
  5175   003130  5020               	movf	___flmul@aexp^0,w,c
  5176   003132  C021  F017         	movff	___flmul@bexp,??___flmul
  5177   003136  6A18               	clrf	(??___flmul+1)^0,c
  5178   003138  2617               	addwf	??___flmul^0,f,c
  5179   00313A  0E00               	movlw	0
  5180   00313C  2218               	addwfc	(??___flmul+1)^0,f,c
  5181   00313E  0E82               	movlw	130
  5182   003140  2417               	addwf	??___flmul^0,w,c
  5183   003142  6E26               	movwf	___flmul@temp^0,c
  5184   003144  0EFF               	movlw	255
  5185   003146  2018               	addwfc	(??___flmul+1)^0,w,c
  5186   003148  6E27               	movwf	(___flmul@temp+1)^0,c
  5187   00314A  EFBC  F018         	goto	l2585
  5188   00314E                     l2579:
  5189   00314E  90D8               	bcf	status,0,c
  5190   003150  3622               	rlcf	___flmul@prod^0,f,c
  5191   003152  3623               	rlcf	(___flmul@prod+1)^0,f,c
  5192   003154  3624               	rlcf	(___flmul@prod+2)^0,f,c
  5193   003156  3625               	rlcf	(___flmul@prod+3)^0,f,c
  5194   003158  AE1F               	btfss	(___flmul@grs+3)^0,7,c
  5195   00315A  EFB1  F018         	goto	u2581
  5196   00315E  EFB3  F018         	goto	u2580
  5197   003162                     u2581:
  5198   003162  EFB4  F018         	goto	l725
  5199   003166                     u2580:
  5200   003166  8022               	bsf	___flmul@prod^0,0,c
  5201   003168                     l725:
  5202   003168  90D8               	bcf	status,0,c
  5203   00316A  361C               	rlcf	___flmul@grs^0,f,c
  5204   00316C  361D               	rlcf	(___flmul@grs+1)^0,f,c
  5205   00316E  361E               	rlcf	(___flmul@grs+2)^0,f,c
  5206   003170  361F               	rlcf	(___flmul@grs+3)^0,f,c
  5207   003172  0626               	decf	___flmul@temp^0,f,c
  5208   003174  A0D8               	btfss	status,0,c
  5209   003176  0627               	decf	(___flmul@temp+1)^0,f,c
  5210   003178                     l2585:
  5211   003178  AE24               	btfss	(___flmul@prod+2)^0,7,c
  5212   00317A  EFC1  F018         	goto	u2591
  5213   00317E  EFC3  F018         	goto	u2590
  5214   003182                     u2591:
  5215   003182  EFA7  F018         	goto	l2579
  5216   003186                     u2590:
  5217   003186  0E00               	movlw	0
  5218   003188  6E20               	movwf	___flmul@aexp^0,c
  5219   00318A  AE1F               	btfss	(___flmul@grs+3)^0,7,c
  5220   00318C  EFCA  F018         	goto	u2601
  5221   003190  EFCC  F018         	goto	u2600
  5222   003194                     u2601:
  5223   003194  EFF0  F018         	goto	l727
  5224   003198                     u2600:
  5225   003198  0EFF               	movlw	255
  5226   00319A  141C               	andwf	___flmul@grs^0,w,c
  5227   00319C  6E17               	movwf	??___flmul^0,c
  5228   00319E  0EFF               	movlw	255
  5229   0031A0  141D               	andwf	(___flmul@grs+1)^0,w,c
  5230   0031A2  6E18               	movwf	(??___flmul+1)^0,c
  5231   0031A4  0EFF               	movlw	255
  5232   0031A6  141E               	andwf	(___flmul@grs+2)^0,w,c
  5233   0031A8  6E19               	movwf	(??___flmul+2)^0,c
  5234   0031AA  0E7F               	movlw	127
  5235   0031AC  141F               	andwf	(___flmul@grs+3)^0,w,c
  5236   0031AE  6E1A               	movwf	(??___flmul+3)^0,c
  5237   0031B0  5017               	movf	??___flmul^0,w,c
  5238   0031B2  1018               	iorwf	(??___flmul+1)^0,w,c
  5239   0031B4  1019               	iorwf	(??___flmul+2)^0,w,c
  5240   0031B6  101A               	iorwf	(??___flmul+3)^0,w,c
  5241   0031B8  B4D8               	btfsc	status,2,c
  5242   0031BA  EFE1  F018         	goto	u2611
  5243   0031BE  EFE3  F018         	goto	u2610
  5244   0031C2                     u2611:
  5245   0031C2  EFE7  F018         	goto	l728
  5246   0031C6                     u2610:
  5247   0031C6                     l2593:
  5248   0031C6  0E01               	movlw	1
  5249   0031C8  6E20               	movwf	___flmul@aexp^0,c
  5250   0031CA  EFF0  F018         	goto	l727
  5251   0031CE                     l728:
  5252   0031CE  A022               	btfss	___flmul@prod^0,0,c
  5253   0031D0  EFEC  F018         	goto	u2621
  5254   0031D4  EFEE  F018         	goto	u2620
  5255   0031D8                     u2621:
  5256   0031D8  EFF0  F018         	goto	l727
  5257   0031DC                     u2620:
  5258   0031DC  EFE3  F018         	goto	l2593
  5259   0031E0                     l727:
  5260   0031E0  5020               	movf	___flmul@aexp^0,w,c
  5261   0031E2  B4D8               	btfsc	status,2,c
  5262   0031E4  EFF6  F018         	goto	u2631
  5263   0031E8  EFF8  F018         	goto	u2630
  5264   0031EC                     u2631:
  5265   0031EC  EF1C  F019         	goto	l2605
  5266   0031F0                     u2630:
  5267   0031F0  0E01               	movlw	1
  5268   0031F2  2622               	addwf	___flmul@prod^0,f,c
  5269   0031F4  0E00               	movlw	0
  5270   0031F6  2223               	addwfc	(___flmul@prod+1)^0,f,c
  5271   0031F8  2224               	addwfc	(___flmul@prod+2)^0,f,c
  5272   0031FA  2225               	addwfc	(___flmul@prod+3)^0,f,c
  5273   0031FC  A025               	btfss	(___flmul@prod+3)^0,0,c
  5274   0031FE  EF03  F019         	goto	u2641
  5275   003202  EF05  F019         	goto	u2640
  5276   003206                     u2641:
  5277   003206  EF1C  F019         	goto	l2605
  5278   00320A                     u2640:
  5279   00320A  C022  F017         	movff	___flmul@prod,??___flmul
  5280   00320E  C023  F018         	movff	___flmul@prod+1,??___flmul+1
  5281   003212  C024  F019         	movff	___flmul@prod+2,??___flmul+2
  5282   003216  C025  F01A         	movff	___flmul@prod+3,??___flmul+3
  5283   00321A  341A               	rlcf	(??___flmul+3)^0,w,c
  5284   00321C  321A               	rrcf	(??___flmul+3)^0,f,c
  5285   00321E  3219               	rrcf	(??___flmul+2)^0,f,c
  5286   003220  3218               	rrcf	(??___flmul+1)^0,f,c
  5287   003222  3217               	rrcf	??___flmul^0,f,c
  5288   003224  C017  F022         	movff	??___flmul,___flmul@prod
  5289   003228  C018  F023         	movff	??___flmul+1,___flmul@prod+1
  5290   00322C  C019  F024         	movff	??___flmul+2,___flmul@prod+2
  5291   003230  C01A  F025         	movff	??___flmul+3,___flmul@prod+3
  5292   003234  4A26               	infsnz	___flmul@temp^0,f,c
  5293   003236  2A27               	incf	(___flmul@temp+1)^0,f,c
  5294   003238                     l2605:
  5295   003238  BE27               	btfsc	(___flmul@temp+1)^0,7,c
  5296   00323A  EF27  F019         	goto	u2651
  5297   00323E  5027               	movf	(___flmul@temp+1)^0,w,c
  5298   003240  E108               	bnz	u2650
  5299   003242  2826               	incf	___flmul@temp^0,w,c
  5300   003244  A0D8               	btfss	status,0,c
  5301   003246  EF27  F019         	goto	u2651
  5302   00324A  EF29  F019         	goto	u2650
  5303   00324E                     u2651:
  5304   00324E  EF33  F019         	goto	l2609
  5305   003252                     u2650:
  5306   003252  0E00               	movlw	0
  5307   003254  6E22               	movwf	___flmul@prod^0,c
  5308   003256  0E00               	movlw	0
  5309   003258  6E23               	movwf	(___flmul@prod+1)^0,c
  5310   00325A  0E80               	movlw	128
  5311   00325C  6E24               	movwf	(___flmul@prod+2)^0,c
  5312   00325E  0E7F               	movlw	127
  5313   003260  6E25               	movwf	(___flmul@prod+3)^0,c
  5314   003262  EF61  F019         	goto	l2621
  5315   003266                     l2609:
  5316   003266  BE27               	btfsc	(___flmul@temp+1)^0,7,c
  5317   003268  EF40  F019         	goto	u2660
  5318   00326C  5027               	movf	(___flmul@temp+1)^0,w,c
  5319   00326E  E106               	bnz	u2661
  5320   003270  0426               	decf	___flmul@temp^0,w,c
  5321   003272  B0D8               	btfsc	status,0,c
  5322   003274  EF3E  F019         	goto	u2661
  5323   003278  EF40  F019         	goto	u2660
  5324   00327C                     u2661:
  5325   00327C  EF4C  F019         	goto	l735
  5326   003280                     u2660:
  5327   003280  0E00               	movlw	0
  5328   003282  6E22               	movwf	___flmul@prod^0,c
  5329   003284  0E00               	movlw	0
  5330   003286  6E23               	movwf	(___flmul@prod+1)^0,c
  5331   003288  0E00               	movlw	0
  5332   00328A  6E24               	movwf	(___flmul@prod+2)^0,c
  5333   00328C  0E00               	movlw	0
  5334   00328E  6E25               	movwf	(___flmul@prod+3)^0,c
  5335   003290  0E00               	movlw	0
  5336   003292  6E1B               	movwf	___flmul@sign^0,c
  5337   003294  EF61  F019         	goto	l2621
  5338   003298                     l735:
  5339   003298  C026  F021         	movff	___flmul@temp,___flmul@bexp
  5340   00329C  0EFF               	movlw	255
  5341   00329E  1622               	andwf	___flmul@prod^0,f,c
  5342   0032A0  0EFF               	movlw	255
  5343   0032A2  1623               	andwf	(___flmul@prod+1)^0,f,c
  5344   0032A4  0E7F               	movlw	127
  5345   0032A6  1624               	andwf	(___flmul@prod+2)^0,f,c
  5346   0032A8  0E00               	movlw	0
  5347   0032AA  1625               	andwf	(___flmul@prod+3)^0,f,c
  5348   0032AC  A021               	btfss	___flmul@bexp^0,0,c
  5349   0032AE  EF5B  F019         	goto	u2671
  5350   0032B2  EF5D  F019         	goto	u2670
  5351   0032B6                     u2671:
  5352   0032B6  EF5E  F019         	goto	l2619
  5353   0032BA                     u2670:
  5354   0032BA  8E24               	bsf	(___flmul@prod+2)^0,7,c
  5355   0032BC                     l2619:
  5356   0032BC  90D8               	bcf	status,0,c
  5357   0032BE  3021               	rrcf	___flmul@bexp^0,w,c
  5358   0032C0  6E25               	movwf	(___flmul@prod+3)^0,c
  5359   0032C2                     l2621:
  5360   0032C2  501B               	movf	___flmul@sign^0,w,c
  5361   0032C4  1225               	iorwf	(___flmul@prod+3)^0,f,c
  5362   0032C6  C022  F00F         	movff	___flmul@prod,?___flmul
  5363   0032CA  C023  F010         	movff	___flmul@prod+1,?___flmul+1
  5364   0032CE  C024  F011         	movff	___flmul@prod+2,?___flmul+2
  5365   0032D2  C025  F012         	movff	___flmul@prod+3,?___flmul+3
  5366   0032D6                     l722:
  5367   0032D6  0012               	return		;funcret
  5368   0032D8                     __end_of___flmul:
  5369                           	callstack 0
  5370                           
  5371 ;; *************** function ___flge *****************
  5372 ;; Defined at:
  5373 ;;		line 4 in file "C:\Program Files\Microchip\xc8\v2.46\pic\sources\c99\common\flge.c"
  5374 ;; Parameters:    Size  Location     Type
  5375 ;;  ff1             4   39[COMRAM] unsigned char 
  5376 ;;  ff2             4   43[COMRAM] unsigned char 
  5377 ;; Auto vars:     Size  Location     Type
  5378 ;;		None
  5379 ;; Return value:  Size  Location     Type
  5380 ;;		None               void
  5381 ;; Registers used:
  5382 ;;		wreg, status,2, status,0
  5383 ;; Tracked objects:
  5384 ;;		On entry : 0/0
  5385 ;;		On exit  : 0/0
  5386 ;;		Unchanged: 0/0
  5387 ;; Data sizes:     COMRAM   BANK0   BANK1   BANK2   BANK3   BANK4   BANK5   BANK6   BANK7   BANK8   BANK9  BANK10  BANK1
      +1  BANK12  BANK13  BANK14  BANK15  BANK16  BANK17  BANK18  BANK19  BANK20  BANK21  BANK22  BANK23  BANK24  BANK25  BANK2
      +6  BANK27  BANK28  BANK29  BANK30  BANK31
  5388 ;;      Params:         8       0       0       0       0       0       0       0       0       0       0       0       
      +0       0       0       0       0       0       0       0       0       0       0       0       0       0       0       
      +0       0       0       0       0       0
  5389 ;;      Locals:         0       0       0       0       0       0       0       0       0       0       0       0       
      +0       0       0       0       0       0       0       0       0       0       0       0       0       0       0       
      +0       0       0       0       0       0
  5390 ;;      Temps:          4       0       0       0       0       0       0       0       0       0       0       0       
      +0       0       0       0       0       0       0       0       0       0       0       0       0       0       0       
      +0       0       0       0       0       0
  5391 ;;      Totals:        12       0       0       0       0       0       0       0       0       0       0       0       
      +0       0       0       0       0       0       0       0       0       0       0       0       0       0       0       
      +0       0       0       0       0       0
  5392 ;;Total ram usage:       12 bytes
  5393 ;; Hardware stack levels used: 1
  5394 ;; This function calls:
  5395 ;;		Nothing
  5396 ;; This function is called by:
  5397 ;;		_efgtoa
  5398 ;; This function uses a non-reentrant model
  5399 ;;
  5400                           
  5401                           	psect	text22
  5402   003D50                     __ptext22:
  5403                           	callstack 0
  5404   003D50                     ___flge:
  5405                           	callstack 26
  5406   003D50  0E00               	movlw	0
  5407   003D52  1428               	andwf	___flge@ff1^0,w,c
  5408   003D54  6E30               	movwf	??___flge^0,c
  5409   003D56  0E00               	movlw	0
  5410   003D58  1429               	andwf	(___flge@ff1+1)^0,w,c
  5411   003D5A  6E31               	movwf	(??___flge+1)^0,c
  5412   003D5C  0E80               	movlw	128
  5413   003D5E  142A               	andwf	(___flge@ff1+2)^0,w,c
  5414   003D60  6E32               	movwf	(??___flge+2)^0,c
  5415   003D62  0E7F               	movlw	127
  5416   003D64  142B               	andwf	(___flge@ff1+3)^0,w,c
  5417   003D66  6E33               	movwf	(??___flge+3)^0,c
  5418   003D68  5030               	movf	??___flge^0,w,c
  5419   003D6A  1031               	iorwf	(??___flge+1)^0,w,c
  5420   003D6C  1032               	iorwf	(??___flge+2)^0,w,c
  5421   003D6E  1033               	iorwf	(??___flge+3)^0,w,c
  5422   003D70  A4D8               	btfss	status,2,c
  5423   003D72  EFBD  F01E         	goto	u2711
  5424   003D76  EFBF  F01E         	goto	u2710
  5425   003D7A                     u2711:
  5426   003D7A  EFC7  F01E         	goto	l2653
  5427   003D7E                     u2710:
  5428   003D7E  0E00               	movlw	0
  5429   003D80  6E28               	movwf	___flge@ff1^0,c
  5430   003D82  0E00               	movlw	0
  5431   003D84  6E29               	movwf	(___flge@ff1+1)^0,c
  5432   003D86  0E00               	movlw	0
  5433   003D88  6E2A               	movwf	(___flge@ff1+2)^0,c
  5434   003D8A  0E00               	movlw	0
  5435   003D8C  6E2B               	movwf	(___flge@ff1+3)^0,c
  5436   003D8E                     l2653:
  5437   003D8E  0E00               	movlw	0
  5438   003D90  142C               	andwf	___flge@ff2^0,w,c
  5439   003D92  6E30               	movwf	??___flge^0,c
  5440   003D94  0E00               	movlw	0
  5441   003D96  142D               	andwf	(___flge@ff2+1)^0,w,c
  5442   003D98  6E31               	movwf	(??___flge+1)^0,c
  5443   003D9A  0E80               	movlw	128
  5444   003D9C  142E               	andwf	(___flge@ff2+2)^0,w,c
  5445   003D9E  6E32               	movwf	(??___flge+2)^0,c
  5446   003DA0  0E7F               	movlw	127
  5447   003DA2  142F               	andwf	(___flge@ff2+3)^0,w,c
  5448   003DA4  6E33               	movwf	(??___flge+3)^0,c
  5449   003DA6  5030               	movf	??___flge^0,w,c
  5450   003DA8  1031               	iorwf	(??___flge+1)^0,w,c
  5451   003DAA  1032               	iorwf	(??___flge+2)^0,w,c
  5452   003DAC  1033               	iorwf	(??___flge+3)^0,w,c
  5453   003DAE  A4D8               	btfss	status,2,c
  5454   003DB0  EFDC  F01E         	goto	u2721
  5455   003DB4  EFDE  F01E         	goto	u2720
  5456   003DB8                     u2721:
  5457   003DB8  EFE6  F01E         	goto	l2657
  5458   003DBC                     u2720:
  5459   003DBC  0E00               	movlw	0
  5460   003DBE  6E2C               	movwf	___flge@ff2^0,c
  5461   003DC0  0E00               	movlw	0
  5462   003DC2  6E2D               	movwf	(___flge@ff2+1)^0,c
  5463   003DC4  0E00               	movlw	0
  5464   003DC6  6E2E               	movwf	(___flge@ff2+2)^0,c
  5465   003DC8  0E00               	movlw	0
  5466   003DCA  6E2F               	movwf	(___flge@ff2+3)^0,c
  5467   003DCC                     l2657:
  5468   003DCC  AE2B               	btfss	(___flge@ff1+3)^0,7,c
  5469   003DCE  EFEB  F01E         	goto	u2731
  5470   003DD2  EFED  F01E         	goto	u2730
  5471   003DD6                     u2731:
  5472   003DD6  EFF6  F01E         	goto	l2661
  5473   003DDA                     u2730:
  5474   003DDA  6C28               	negf	___flge@ff1^0,c
  5475   003DDC  1E29               	comf	(___flge@ff1+1)^0,f,c
  5476   003DDE  B0D8               	btfsc	status,0,c
  5477   003DE0  2A29               	incf	(___flge@ff1+1)^0,f,c
  5478   003DE2  1E2A               	comf	(___flge@ff1+2)^0,f,c
  5479   003DE4  B0D8               	btfsc	status,0,c
  5480   003DE6  2A2A               	incf	(___flge@ff1+2)^0,f,c
  5481   003DE8  0E80               	movlw	128
  5482   003DEA  562B               	subfwb	(___flge@ff1+3)^0,f,c
  5483   003DEC                     l2661:
  5484   003DEC  AE2F               	btfss	(___flge@ff2+3)^0,7,c
  5485   003DEE  EFFB  F01E         	goto	u2741
  5486   003DF2  EFFD  F01E         	goto	u2740
  5487   003DF6                     u2741:
  5488   003DF6  EF06  F01F         	goto	l369
  5489   003DFA                     u2740:
  5490   003DFA  6C2C               	negf	___flge@ff2^0,c
  5491   003DFC  1E2D               	comf	(___flge@ff2+1)^0,f,c
  5492   003DFE  B0D8               	btfsc	status,0,c
  5493   003E00  2A2D               	incf	(___flge@ff2+1)^0,f,c
  5494   003E02  1E2E               	comf	(___flge@ff2+2)^0,f,c
  5495   003E04  B0D8               	btfsc	status,0,c
  5496   003E06  2A2E               	incf	(___flge@ff2+2)^0,f,c
  5497   003E08  0E80               	movlw	128
  5498   003E0A  562F               	subfwb	(___flge@ff2+3)^0,f,c
  5499   003E0C                     l369:
  5500   003E0C  0E00               	movlw	0
  5501   003E0E  1A28               	xorwf	___flge@ff1^0,f,c
  5502   003E10  0E00               	movlw	0
  5503   003E12  1A29               	xorwf	(___flge@ff1+1)^0,f,c
  5504   003E14  0E00               	movlw	0
  5505   003E16  1A2A               	xorwf	(___flge@ff1+2)^0,f,c
  5506   003E18  0E80               	movlw	128
  5507   003E1A  1A2B               	xorwf	(___flge@ff1+3)^0,f,c
  5508   003E1C  0E00               	movlw	0
  5509   003E1E  1A2C               	xorwf	___flge@ff2^0,f,c
  5510   003E20  0E00               	movlw	0
  5511   003E22  1A2D               	xorwf	(___flge@ff2+1)^0,f,c
  5512   003E24  0E00               	movlw	0
  5513   003E26  1A2E               	xorwf	(___flge@ff2+2)^0,f,c
  5514   003E28  0E80               	movlw	128
  5515   003E2A  1A2F               	xorwf	(___flge@ff2+3)^0,f,c
  5516   003E2C  502C               	movf	___flge@ff2^0,w,c
  5517   003E2E  5C28               	subwf	___flge@ff1^0,w,c
  5518   003E30  502D               	movf	(___flge@ff2+1)^0,w,c
  5519   003E32  5829               	subwfb	(___flge@ff1+1)^0,w,c
  5520   003E34  502E               	movf	(___flge@ff2+2)^0,w,c
  5521   003E36  582A               	subwfb	(___flge@ff1+2)^0,w,c
  5522   003E38  502F               	movf	(___flge@ff2+3)^0,w,c
  5523   003E3A  582B               	subwfb	(___flge@ff1+3)^0,w,c
  5524   003E3C  B0D8               	btfsc	status,0,c
  5525   003E3E  EF23  F01F         	goto	u2751
  5526   003E42  EF25  F01F         	goto	u2750
  5527   003E46                     u2751:
  5528   003E46  EF28  F01F         	goto	l2667
  5529   003E4A                     u2750:
  5530   003E4A  90D8               	bcf	status,0,c
  5531   003E4C  EF29  F01F         	goto	l374
  5532   003E50                     l2667:
  5533   003E50  80D8               	bsf	status,0,c
  5534   003E52                     l374:
  5535   003E52  0012               	return		;funcret
  5536   003E54                     __end_of___flge:
  5537                           	callstack 0
  5538                           
  5539 ;; *************** function ___fleq *****************
  5540 ;; Defined at:
  5541 ;;		line 4 in file "C:\Program Files\Microchip\xc8\v2.46\pic\sources\c99\common\fleq.c"
  5542 ;; Parameters:    Size  Location     Type
  5543 ;;  ff1             4    0[COMRAM] unsigned char 
  5544 ;;  ff2             4    4[COMRAM] unsigned char 
  5545 ;; Auto vars:     Size  Location     Type
  5546 ;;		None
  5547 ;; Return value:  Size  Location     Type
  5548 ;;		None               void
  5549 ;; Registers used:
  5550 ;;		wreg, status,2, status,0
  5551 ;; Tracked objects:
  5552 ;;		On entry : 0/0
  5553 ;;		On exit  : 0/0
  5554 ;;		Unchanged: 0/0
  5555 ;; Data sizes:     COMRAM   BANK0   BANK1   BANK2   BANK3   BANK4   BANK5   BANK6   BANK7   BANK8   BANK9  BANK10  BANK1
      +1  BANK12  BANK13  BANK14  BANK15  BANK16  BANK17  BANK18  BANK19  BANK20  BANK21  BANK22  BANK23  BANK24  BANK25  BANK2
      +6  BANK27  BANK28  BANK29  BANK30  BANK31
  5556 ;;      Params:         8       0       0       0       0       0       0       0       0       0       0       0       
      +0       0       0       0       0       0       0       0       0       0       0       0       0       0       0       
      +0       0       0       0       0       0
  5557 ;;      Locals:         0       0       0       0       0       0       0       0       0       0       0       0       
      +0       0       0       0       0       0       0       0       0       0       0       0       0       0       0       
      +0       0       0       0       0       0
  5558 ;;      Temps:          4       0       0       0       0       0       0       0       0       0       0       0       
      +0       0       0       0       0       0       0       0       0       0       0       0       0       0       0       
      +0       0       0       0       0       0
  5559 ;;      Totals:        12       0       0       0       0       0       0       0       0       0       0       0       
      +0       0       0       0       0       0       0       0       0       0       0       0       0       0       0       
      +0       0       0       0       0       0
  5560 ;;Total ram usage:       12 bytes
  5561 ;; Hardware stack levels used: 1
  5562 ;; This function calls:
  5563 ;;		Nothing
  5564 ;; This function is called by:
  5565 ;;		_efgtoa
  5566 ;; This function uses a non-reentrant model
  5567 ;;
  5568                           
  5569                           	psect	text23
  5570   00418E                     __ptext23:
  5571                           	callstack 0
  5572   00418E                     ___fleq:
  5573                           	callstack 26
  5574   00418E  0E00               	movlw	0
  5575   004190  1401               	andwf	___fleq@ff1^0,w,c
  5576   004192  6E09               	movwf	??___fleq^0,c
  5577   004194  0E00               	movlw	0
  5578   004196  1402               	andwf	(___fleq@ff1+1)^0,w,c
  5579   004198  6E0A               	movwf	(??___fleq+1)^0,c
  5580   00419A  0E80               	movlw	128
  5581   00419C  1403               	andwf	(___fleq@ff1+2)^0,w,c
  5582   00419E  6E0B               	movwf	(??___fleq+2)^0,c
  5583   0041A0  0E7F               	movlw	127
  5584   0041A2  1404               	andwf	(___fleq@ff1+3)^0,w,c
  5585   0041A4  6E0C               	movwf	(??___fleq+3)^0,c
  5586   0041A6  5009               	movf	??___fleq^0,w,c
  5587   0041A8  100A               	iorwf	(??___fleq+1)^0,w,c
  5588   0041AA  100B               	iorwf	(??___fleq+2)^0,w,c
  5589   0041AC  100C               	iorwf	(??___fleq+3)^0,w,c
  5590   0041AE  A4D8               	btfss	status,2,c
  5591   0041B0  EFDC  F020         	goto	u2681
  5592   0041B4  EFDE  F020         	goto	u2680
  5593   0041B8                     u2681:
  5594   0041B8  EFE6  F020         	goto	l2637
  5595   0041BC                     u2680:
  5596   0041BC  0E00               	movlw	0
  5597   0041BE  6E01               	movwf	___fleq@ff1^0,c
  5598   0041C0  0E00               	movlw	0
  5599   0041C2  6E02               	movwf	(___fleq@ff1+1)^0,c
  5600   0041C4  0E00               	movlw	0
  5601   0041C6  6E03               	movwf	(___fleq@ff1+2)^0,c
  5602   0041C8  0E00               	movlw	0
  5603   0041CA  6E04               	movwf	(___fleq@ff1+3)^0,c
  5604   0041CC                     l2637:
  5605   0041CC  0E00               	movlw	0
  5606   0041CE  1405               	andwf	___fleq@ff2^0,w,c
  5607   0041D0  6E09               	movwf	??___fleq^0,c
  5608   0041D2  0E00               	movlw	0
  5609   0041D4  1406               	andwf	(___fleq@ff2+1)^0,w,c
  5610   0041D6  6E0A               	movwf	(??___fleq+1)^0,c
  5611   0041D8  0E80               	movlw	128
  5612   0041DA  1407               	andwf	(___fleq@ff2+2)^0,w,c
  5613   0041DC  6E0B               	movwf	(??___fleq+2)^0,c
  5614   0041DE  0E7F               	movlw	127
  5615   0041E0  1408               	andwf	(___fleq@ff2+3)^0,w,c
  5616   0041E2  6E0C               	movwf	(??___fleq+3)^0,c
  5617   0041E4  5009               	movf	??___fleq^0,w,c
  5618   0041E6  100A               	iorwf	(??___fleq+1)^0,w,c
  5619   0041E8  100B               	iorwf	(??___fleq+2)^0,w,c
  5620   0041EA  100C               	iorwf	(??___fleq+3)^0,w,c
  5621   0041EC  A4D8               	btfss	status,2,c
  5622   0041EE  EFFB  F020         	goto	u2691
  5623   0041F2  EFFD  F020         	goto	u2690
  5624   0041F6                     u2691:
  5625   0041F6  EF05  F021         	goto	l2641
  5626   0041FA                     u2690:
  5627   0041FA  0E00               	movlw	0
  5628   0041FC  6E05               	movwf	___fleq@ff2^0,c
  5629   0041FE  0E00               	movlw	0
  5630   004200  6E06               	movwf	(___fleq@ff2+1)^0,c
  5631   004202  0E00               	movlw	0
  5632   004204  6E07               	movwf	(___fleq@ff2+2)^0,c
  5633   004206  0E00               	movlw	0
  5634   004208  6E08               	movwf	(___fleq@ff2+3)^0,c
  5635   00420A                     l2641:
  5636   00420A  5005               	movf	___fleq@ff2^0,w,c
  5637   00420C  1801               	xorwf	___fleq@ff1^0,w,c
  5638   00420E  E10F               	bnz	u2700
  5639   004210  5006               	movf	(___fleq@ff2+1)^0,w,c
  5640   004212  1802               	xorwf	(___fleq@ff1+1)^0,w,c
  5641   004214  E10C               	bnz	u2700
  5642   004216  5007               	movf	(___fleq@ff2+2)^0,w,c
  5643   004218  1803               	xorwf	(___fleq@ff1+2)^0,w,c
  5644   00421A  E109               	bnz	u2700
  5645   00421C  5008               	movf	(___fleq@ff2+3)^0,w,c
  5646   00421E  1804               	xorwf	(___fleq@ff1+3)^0,w,c
  5647   004220  B4D8               	btfsc	status,2,c
  5648   004222  EF15  F021         	goto	u2701
  5649   004226  EF17  F021         	goto	u2700
  5650   00422A                     u2701:
  5651   00422A  EF1A  F021         	goto	l2645
  5652   00422E                     u2700:
  5653   00422E  90D8               	bcf	status,0,c
  5654   004230  EF1B  F021         	goto	l363
  5655   004234                     l2645:
  5656   004234  80D8               	bsf	status,0,c
  5657   004236                     l363:
  5658   004236  0012               	return		;funcret
  5659   004238                     __end_of___fleq:
  5660                           	callstack 0
  5661                           
  5662 ;; *************** function ___fldiv *****************
  5663 ;; Defined at:
  5664 ;;		line 11 in file "C:\Program Files\Microchip\xc8\v2.46\pic\sources\c99\common\sprcdiv.c"
  5665 ;; Parameters:    Size  Location     Type
  5666 ;;  b               4    0[COMRAM] unsigned char 
  5667 ;;  a               4    4[COMRAM] unsigned char 
  5668 ;; Auto vars:     Size  Location     Type
  5669 ;;  grs             4   19[COMRAM] unsigned long 
  5670 ;;  rem             4   12[COMRAM] unsigned long 
  5671 ;;  new_exp         2   17[COMRAM] short 
  5672 ;;  aexp            1   24[COMRAM] unsigned char 
  5673 ;;  bexp            1   23[COMRAM] unsigned char 
  5674 ;;  sign            1   16[COMRAM] unsigned char 
  5675 ;; Return value:  Size  Location     Type
  5676 ;;                  4    0[COMRAM] unsigned char 
  5677 ;; Registers used:
  5678 ;;		wreg, status,2, status,0
  5679 ;; Tracked objects:
  5680 ;;		On entry : 0/0
  5681 ;;		On exit  : 0/0
  5682 ;;		Unchanged: 0/0
  5683 ;; Data sizes:     COMRAM   BANK0   BANK1   BANK2   BANK3   BANK4   BANK5   BANK6   BANK7   BANK8   BANK9  BANK10  BANK1
      +1  BANK12  BANK13  BANK14  BANK15  BANK16  BANK17  BANK18  BANK19  BANK20  BANK21  BANK22  BANK23  BANK24  BANK25  BANK2
      +6  BANK27  BANK28  BANK29  BANK30  BANK31
  5684 ;;      Params:         8       0       0       0       0       0       0       0       0       0       0       0       
      +0       0       0       0       0       0       0       0       0       0       0       0       0       0       0       
      +0       0       0       0       0       0
  5685 ;;      Locals:        13       0       0       0       0       0       0       0       0       0       0       0       
      +0       0       0       0       0       0       0       0       0       0       0       0       0       0       0       
      +0       0       0       0       0       0
  5686 ;;      Temps:          4       0       0       0       0       0       0       0       0       0       0       0       
      +0       0       0       0       0       0       0       0       0       0       0       0       0       0       0       
      +0       0       0       0       0       0
  5687 ;;      Totals:        25       0       0       0       0       0       0       0       0       0       0       0       
      +0       0       0       0       0       0       0       0       0       0       0       0       0       0       0       
      +0       0       0       0       0       0
  5688 ;;Total ram usage:       25 bytes
  5689 ;; Hardware stack levels used: 1
  5690 ;; This function calls:
  5691 ;;		Nothing
  5692 ;; This function is called by:
  5693 ;;		_efgtoa
  5694 ;; This function uses a non-reentrant model
  5695 ;;
  5696                           
  5697                           	psect	text24
  5698   0032D8                     __ptext24:
  5699                           	callstack 0
  5700   0032D8                     ___fldiv:
  5701                           	callstack 26
  5702   0032D8  5004               	movf	(___fldiv@b+3)^0,w,c
  5703   0032DA  0B80               	andlw	128
  5704   0032DC  6E11               	movwf	___fldiv@sign^0,c
  5705   0032DE  5004               	movf	(___fldiv@b+3)^0,w,c
  5706   0032E0  2404               	addwf	(___fldiv@b+3)^0,w,c
  5707   0032E2  6E18               	movwf	___fldiv@bexp^0,c
  5708   0032E4  AE03               	btfss	(___fldiv@b+2)^0,7,c
  5709   0032E6  EF77  F019         	goto	u2261
  5710   0032EA  EF79  F019         	goto	u2260
  5711   0032EE                     u2261:
  5712   0032EE  EF7A  F019         	goto	l2365
  5713   0032F2                     u2260:
  5714   0032F2  8018               	bsf	___fldiv@bexp^0,0,c
  5715   0032F4                     l2365:
  5716   0032F4  5018               	movf	___fldiv@bexp^0,w,c
  5717   0032F6  B4D8               	btfsc	status,2,c
  5718   0032F8  EF80  F019         	goto	u2271
  5719   0032FC  EF82  F019         	goto	u2270
  5720   003300                     u2271:
  5721   003300  EF97  F019         	goto	l2375
  5722   003304                     u2270:
  5723   003304  2818               	incf	___fldiv@bexp^0,w,c
  5724   003306  A4D8               	btfss	status,2,c
  5725   003308  EF88  F019         	goto	u2281
  5726   00330C  EF8A  F019         	goto	u2280
  5727   003310                     u2281:
  5728   003310  EF92  F019         	goto	l2371
  5729   003314                     u2280:
  5730   003314  0E00               	movlw	0
  5731   003316  6E01               	movwf	___fldiv@b^0,c
  5732   003318  0E00               	movlw	0
  5733   00331A  6E02               	movwf	(___fldiv@b+1)^0,c
  5734   00331C  0E00               	movlw	0
  5735   00331E  6E03               	movwf	(___fldiv@b+2)^0,c
  5736   003320  0E00               	movlw	0
  5737   003322  6E04               	movwf	(___fldiv@b+3)^0,c
  5738   003324                     l2371:
  5739   003324  8E03               	bsf	(___fldiv@b+2)^0,7,c
  5740   003326  0E00               	movlw	0
  5741   003328  6E04               	movwf	(___fldiv@b+3)^0,c
  5742   00332A  EF9F  F019         	goto	l2377
  5743   00332E                     l2375:
  5744   00332E  0E00               	movlw	0
  5745   003330  6E01               	movwf	___fldiv@b^0,c
  5746   003332  0E00               	movlw	0
  5747   003334  6E02               	movwf	(___fldiv@b+1)^0,c
  5748   003336  0E00               	movlw	0
  5749   003338  6E03               	movwf	(___fldiv@b+2)^0,c
  5750   00333A  0E00               	movlw	0
  5751   00333C  6E04               	movwf	(___fldiv@b+3)^0,c
  5752   00333E                     l2377:
  5753   00333E  5008               	movf	(___fldiv@a+3)^0,w,c
  5754   003340  0B80               	andlw	128
  5755   003342  1A11               	xorwf	___fldiv@sign^0,f,c
  5756   003344  5008               	movf	(___fldiv@a+3)^0,w,c
  5757   003346  2408               	addwf	(___fldiv@a+3)^0,w,c
  5758   003348  6E19               	movwf	___fldiv@aexp^0,c
  5759   00334A  AE07               	btfss	(___fldiv@a+2)^0,7,c
  5760   00334C  EFAA  F019         	goto	u2291
  5761   003350  EFAC  F019         	goto	u2290
  5762   003354                     u2291:
  5763   003354  EFAD  F019         	goto	l2385
  5764   003358                     u2290:
  5765   003358  8019               	bsf	___fldiv@aexp^0,0,c
  5766   00335A                     l2385:
  5767   00335A  5019               	movf	___fldiv@aexp^0,w,c
  5768   00335C  B4D8               	btfsc	status,2,c
  5769   00335E  EFB3  F019         	goto	u2301
  5770   003362  EFB5  F019         	goto	u2300
  5771   003366                     u2301:
  5772   003366  EFCA  F019         	goto	l2395
  5773   00336A                     u2300:
  5774   00336A  2819               	incf	___fldiv@aexp^0,w,c
  5775   00336C  A4D8               	btfss	status,2,c
  5776   00336E  EFBB  F019         	goto	u2311
  5777   003372  EFBD  F019         	goto	u2310
  5778   003376                     u2311:
  5779   003376  EFC5  F019         	goto	l2391
  5780   00337A                     u2310:
  5781   00337A  0E00               	movlw	0
  5782   00337C  6E05               	movwf	___fldiv@a^0,c
  5783   00337E  0E00               	movlw	0
  5784   003380  6E06               	movwf	(___fldiv@a+1)^0,c
  5785   003382  0E00               	movlw	0
  5786   003384  6E07               	movwf	(___fldiv@a+2)^0,c
  5787   003386  0E00               	movlw	0
  5788   003388  6E08               	movwf	(___fldiv@a+3)^0,c
  5789   00338A                     l2391:
  5790   00338A  8E07               	bsf	(___fldiv@a+2)^0,7,c
  5791   00338C  0E00               	movlw	0
  5792   00338E  6E08               	movwf	(___fldiv@a+3)^0,c
  5793   003390  EFD2  F019         	goto	l2397
  5794   003394                     l2395:
  5795   003394  0E00               	movlw	0
  5796   003396  6E05               	movwf	___fldiv@a^0,c
  5797   003398  0E00               	movlw	0
  5798   00339A  6E06               	movwf	(___fldiv@a+1)^0,c
  5799   00339C  0E00               	movlw	0
  5800   00339E  6E07               	movwf	(___fldiv@a+2)^0,c
  5801   0033A0  0E00               	movlw	0
  5802   0033A2  6E08               	movwf	(___fldiv@a+3)^0,c
  5803   0033A4                     l2397:
  5804   0033A4  5005               	movf	___fldiv@a^0,w,c
  5805   0033A6  1006               	iorwf	(___fldiv@a+1)^0,w,c
  5806   0033A8  1007               	iorwf	(___fldiv@a+2)^0,w,c
  5807   0033AA  1008               	iorwf	(___fldiv@a+3)^0,w,c
  5808   0033AC  A4D8               	btfss	status,2,c
  5809   0033AE  EFDB  F019         	goto	u2321
  5810   0033B2  EFDD  F019         	goto	u2320
  5811   0033B6                     u2321:
  5812   0033B6  EFF5  F019         	goto	l2409
  5813   0033BA                     u2320:
  5814   0033BA  0E00               	movlw	0
  5815   0033BC  6E01               	movwf	___fldiv@b^0,c
  5816   0033BE  0E00               	movlw	0
  5817   0033C0  6E02               	movwf	(___fldiv@b+1)^0,c
  5818   0033C2  0E00               	movlw	0
  5819   0033C4  6E03               	movwf	(___fldiv@b+2)^0,c
  5820   0033C6  0E00               	movlw	0
  5821   0033C8  6E04               	movwf	(___fldiv@b+3)^0,c
  5822   0033CA  0E80               	movlw	128
  5823   0033CC  1203               	iorwf	(___fldiv@b+2)^0,f,c
  5824   0033CE  0E7F               	movlw	127
  5825   0033D0  1204               	iorwf	(___fldiv@b+3)^0,f,c
  5826   0033D2                     l2403:
  5827   0033D2  5011               	movf	___fldiv@sign^0,w,c
  5828   0033D4  1204               	iorwf	(___fldiv@b+3)^0,f,c
  5829   0033D6  C001  F001         	movff	___fldiv@b,?___fldiv
  5830   0033DA  C002  F002         	movff	___fldiv@b+1,?___fldiv+1
  5831   0033DE  C003  F003         	movff	___fldiv@b+2,?___fldiv+2
  5832   0033E2  C004  F004         	movff	___fldiv@b+3,?___fldiv+3
  5833   0033E6  EF38  F01B         	goto	l686
  5834   0033EA                     l2409:
  5835   0033EA  5018               	movf	___fldiv@bexp^0,w,c
  5836   0033EC  A4D8               	btfss	status,2,c
  5837   0033EE  EFFB  F019         	goto	u2331
  5838   0033F2  EFFD  F019         	goto	u2330
  5839   0033F6                     u2331:
  5840   0033F6  EF07  F01A         	goto	l2417
  5841   0033FA                     u2330:
  5842   0033FA  0E00               	movlw	0
  5843   0033FC  6E01               	movwf	?___fldiv^0,c
  5844   0033FE  0E00               	movlw	0
  5845   003400  6E02               	movwf	(?___fldiv+1)^0,c
  5846   003402  0E00               	movlw	0
  5847   003404  6E03               	movwf	(?___fldiv+2)^0,c
  5848   003406  0E00               	movlw	0
  5849   003408  6E04               	movwf	(?___fldiv+3)^0,c
  5850   00340A  EF38  F01B         	goto	l686
  5851   00340E                     l2417:
  5852   00340E  5019               	movf	___fldiv@aexp^0,w,c
  5853   003410  C018  F009         	movff	___fldiv@bexp,??___fldiv
  5854   003414  6A0A               	clrf	(??___fldiv+1)^0,c
  5855   003416  5E09               	subwf	??___fldiv^0,f,c
  5856   003418  0E00               	movlw	0
  5857   00341A  5A0A               	subwfb	(??___fldiv+1)^0,f,c
  5858   00341C  0E7F               	movlw	127
  5859   00341E  2409               	addwf	??___fldiv^0,w,c
  5860   003420  6E12               	movwf	___fldiv@new_exp^0,c
  5861   003422  0E00               	movlw	0
  5862   003424  200A               	addwfc	(??___fldiv+1)^0,w,c
  5863   003426  6E13               	movwf	(___fldiv@new_exp+1)^0,c
  5864   003428  C001  F00D         	movff	___fldiv@b,___fldiv@rem
  5865   00342C  C002  F00E         	movff	___fldiv@b+1,___fldiv@rem+1
  5866   003430  C003  F00F         	movff	___fldiv@b+2,___fldiv@rem+2
  5867   003434  C004  F010         	movff	___fldiv@b+3,___fldiv@rem+3
  5868   003438  0E00               	movlw	0
  5869   00343A  6E01               	movwf	___fldiv@b^0,c
  5870   00343C  0E00               	movlw	0
  5871   00343E  6E02               	movwf	(___fldiv@b+1)^0,c
  5872   003440  0E00               	movlw	0
  5873   003442  6E03               	movwf	(___fldiv@b+2)^0,c
  5874   003444  0E00               	movlw	0
  5875   003446  6E04               	movwf	(___fldiv@b+3)^0,c
  5876   003448  0E00               	movlw	0
  5877   00344A  6E14               	movwf	___fldiv@grs^0,c
  5878   00344C  0E00               	movlw	0
  5879   00344E  6E15               	movwf	(___fldiv@grs+1)^0,c
  5880   003450  0E00               	movlw	0
  5881   003452  6E16               	movwf	(___fldiv@grs+2)^0,c
  5882   003454  0E00               	movlw	0
  5883   003456  6E17               	movwf	(___fldiv@grs+3)^0,c
  5884   003458  0E00               	movlw	0
  5885   00345A  6E19               	movwf	___fldiv@aexp^0,c
  5886   00345C  EF68  F01A         	goto	l688
  5887   003460                     l2427:
  5888   003460  5019               	movf	___fldiv@aexp^0,w,c
  5889   003462  B4D8               	btfsc	status,2,c
  5890   003464  EF36  F01A         	goto	u2341
  5891   003468  EF38  F01A         	goto	u2340
  5892   00346C                     u2341:
  5893   00346C  EF4F  F01A         	goto	l2435
  5894   003470                     u2340:
  5895   003470  90D8               	bcf	status,0,c
  5896   003472  360D               	rlcf	___fldiv@rem^0,f,c
  5897   003474  360E               	rlcf	(___fldiv@rem+1)^0,f,c
  5898   003476  360F               	rlcf	(___fldiv@rem+2)^0,f,c
  5899   003478  3610               	rlcf	(___fldiv@rem+3)^0,f,c
  5900   00347A  90D8               	bcf	status,0,c
  5901   00347C  3601               	rlcf	___fldiv@b^0,f,c
  5902   00347E  3602               	rlcf	(___fldiv@b+1)^0,f,c
  5903   003480  3603               	rlcf	(___fldiv@b+2)^0,f,c
  5904   003482  3604               	rlcf	(___fldiv@b+3)^0,f,c
  5905   003484  AE17               	btfss	(___fldiv@grs+3)^0,7,c
  5906   003486  EF47  F01A         	goto	u2351
  5907   00348A  EF49  F01A         	goto	u2350
  5908   00348E                     u2351:
  5909   00348E  EF4A  F01A         	goto	l691
  5910   003492                     u2350:
  5911   003492  8001               	bsf	___fldiv@b^0,0,c
  5912   003494                     l691:
  5913   003494  90D8               	bcf	status,0,c
  5914   003496  3614               	rlcf	___fldiv@grs^0,f,c
  5915   003498  3615               	rlcf	(___fldiv@grs+1)^0,f,c
  5916   00349A  3616               	rlcf	(___fldiv@grs+2)^0,f,c
  5917   00349C  3617               	rlcf	(___fldiv@grs+3)^0,f,c
  5918   00349E                     l2435:
  5919   00349E  5005               	movf	___fldiv@a^0,w,c
  5920   0034A0  5C0D               	subwf	___fldiv@rem^0,w,c
  5921   0034A2  5006               	movf	(___fldiv@a+1)^0,w,c
  5922   0034A4  580E               	subwfb	(___fldiv@rem+1)^0,w,c
  5923   0034A6  5007               	movf	(___fldiv@a+2)^0,w,c
  5924   0034A8  580F               	subwfb	(___fldiv@rem+2)^0,w,c
  5925   0034AA  5008               	movf	(___fldiv@a+3)^0,w,c
  5926   0034AC  5810               	subwfb	(___fldiv@rem+3)^0,w,c
  5927   0034AE  A0D8               	btfss	status,0,c
  5928   0034B0  EF5C  F01A         	goto	u2361
  5929   0034B4  EF5E  F01A         	goto	u2360
  5930   0034B8                     u2361:
  5931   0034B8  EF67  F01A         	goto	l2441
  5932   0034BC                     u2360:
  5933   0034BC  8C17               	bsf	(___fldiv@grs+3)^0,6,c
  5934   0034BE  5005               	movf	___fldiv@a^0,w,c
  5935   0034C0  5E0D               	subwf	___fldiv@rem^0,f,c
  5936   0034C2  5006               	movf	(___fldiv@a+1)^0,w,c
  5937   0034C4  5A0E               	subwfb	(___fldiv@rem+1)^0,f,c
  5938   0034C6  5007               	movf	(___fldiv@a+2)^0,w,c
  5939   0034C8  5A0F               	subwfb	(___fldiv@rem+2)^0,f,c
  5940   0034CA  5008               	movf	(___fldiv@a+3)^0,w,c
  5941   0034CC  5A10               	subwfb	(___fldiv@rem+3)^0,f,c
  5942   0034CE                     l2441:
  5943   0034CE  2A19               	incf	___fldiv@aexp^0,f,c
  5944   0034D0                     l688:
  5945   0034D0  0E19               	movlw	25
  5946   0034D2  6419               	cpfsgt	___fldiv@aexp^0,c
  5947   0034D4  EF6E  F01A         	goto	u2371
  5948   0034D8  EF70  F01A         	goto	u2370
  5949   0034DC                     u2371:
  5950   0034DC  EF30  F01A         	goto	l2427
  5951   0034E0                     u2370:
  5952   0034E0  500D               	movf	___fldiv@rem^0,w,c
  5953   0034E2  100E               	iorwf	(___fldiv@rem+1)^0,w,c
  5954   0034E4  100F               	iorwf	(___fldiv@rem+2)^0,w,c
  5955   0034E6  1010               	iorwf	(___fldiv@rem+3)^0,w,c
  5956   0034E8  B4D8               	btfsc	status,2,c
  5957   0034EA  EF79  F01A         	goto	u2381
  5958   0034EE  EF7B  F01A         	goto	u2380
  5959   0034F2                     u2381:
  5960   0034F2  EF93  F01A         	goto	l2453
  5961   0034F6                     u2380:
  5962   0034F6  8014               	bsf	___fldiv@grs^0,0,c
  5963   0034F8  EF93  F01A         	goto	l2453
  5964   0034FC                     l2447:
  5965   0034FC  90D8               	bcf	status,0,c
  5966   0034FE  3601               	rlcf	___fldiv@b^0,f,c
  5967   003500  3602               	rlcf	(___fldiv@b+1)^0,f,c
  5968   003502  3603               	rlcf	(___fldiv@b+2)^0,f,c
  5969   003504  3604               	rlcf	(___fldiv@b+3)^0,f,c
  5970   003506  AE17               	btfss	(___fldiv@grs+3)^0,7,c
  5971   003508  EF88  F01A         	goto	u2391
  5972   00350C  EF8A  F01A         	goto	u2390
  5973   003510                     u2391:
  5974   003510  EF8B  F01A         	goto	l697
  5975   003514                     u2390:
  5976   003514  8001               	bsf	___fldiv@b^0,0,c
  5977   003516                     l697:
  5978   003516  90D8               	bcf	status,0,c
  5979   003518  3614               	rlcf	___fldiv@grs^0,f,c
  5980   00351A  3615               	rlcf	(___fldiv@grs+1)^0,f,c
  5981   00351C  3616               	rlcf	(___fldiv@grs+2)^0,f,c
  5982   00351E  3617               	rlcf	(___fldiv@grs+3)^0,f,c
  5983   003520  0612               	decf	___fldiv@new_exp^0,f,c
  5984   003522  A0D8               	btfss	status,0,c
  5985   003524  0613               	decf	(___fldiv@new_exp+1)^0,f,c
  5986   003526                     l2453:
  5987   003526  AE03               	btfss	(___fldiv@b+2)^0,7,c
  5988   003528  EF98  F01A         	goto	u2401
  5989   00352C  EF9A  F01A         	goto	u2400
  5990   003530                     u2401:
  5991   003530  EF7E  F01A         	goto	l2447
  5992   003534                     u2400:
  5993   003534  0E00               	movlw	0
  5994   003536  6E19               	movwf	___fldiv@aexp^0,c
  5995   003538  AE17               	btfss	(___fldiv@grs+3)^0,7,c
  5996   00353A  EFA1  F01A         	goto	u2411
  5997   00353E  EFA3  F01A         	goto	u2410
  5998   003542                     u2411:
  5999   003542  EFC7  F01A         	goto	l699
  6000   003546                     u2410:
  6001   003546  0EFF               	movlw	255
  6002   003548  1414               	andwf	___fldiv@grs^0,w,c
  6003   00354A  6E09               	movwf	??___fldiv^0,c
  6004   00354C  0EFF               	movlw	255
  6005   00354E  1415               	andwf	(___fldiv@grs+1)^0,w,c
  6006   003550  6E0A               	movwf	(??___fldiv+1)^0,c
  6007   003552  0EFF               	movlw	255
  6008   003554  1416               	andwf	(___fldiv@grs+2)^0,w,c
  6009   003556  6E0B               	movwf	(??___fldiv+2)^0,c
  6010   003558  0E7F               	movlw	127
  6011   00355A  1417               	andwf	(___fldiv@grs+3)^0,w,c
  6012   00355C  6E0C               	movwf	(??___fldiv+3)^0,c
  6013   00355E  5009               	movf	??___fldiv^0,w,c
  6014   003560  100A               	iorwf	(??___fldiv+1)^0,w,c
  6015   003562  100B               	iorwf	(??___fldiv+2)^0,w,c
  6016   003564  100C               	iorwf	(??___fldiv+3)^0,w,c
  6017   003566  B4D8               	btfsc	status,2,c
  6018   003568  EFB8  F01A         	goto	u2421
  6019   00356C  EFBA  F01A         	goto	u2420
  6020   003570                     u2421:
  6021   003570  EFBE  F01A         	goto	l700
  6022   003574                     u2420:
  6023   003574                     l2461:
  6024   003574  0E01               	movlw	1
  6025   003576  6E19               	movwf	___fldiv@aexp^0,c
  6026   003578  EFC7  F01A         	goto	l699
  6027   00357C                     l700:
  6028   00357C  A001               	btfss	___fldiv@b^0,0,c
  6029   00357E  EFC3  F01A         	goto	u2431
  6030   003582  EFC5  F01A         	goto	u2430
  6031   003586                     u2431:
  6032   003586  EFC7  F01A         	goto	l699
  6033   00358A                     u2430:
  6034   00358A  EFBA  F01A         	goto	l2461
  6035   00358E                     l699:
  6036   00358E  5019               	movf	___fldiv@aexp^0,w,c
  6037   003590  B4D8               	btfsc	status,2,c
  6038   003592  EFCD  F01A         	goto	u2441
  6039   003596  EFCF  F01A         	goto	u2440
  6040   00359A                     u2441:
  6041   00359A  EFF3  F01A         	goto	l2473
  6042   00359E                     u2440:
  6043   00359E  0E01               	movlw	1
  6044   0035A0  2601               	addwf	___fldiv@b^0,f,c
  6045   0035A2  0E00               	movlw	0
  6046   0035A4  2202               	addwfc	(___fldiv@b+1)^0,f,c
  6047   0035A6  2203               	addwfc	(___fldiv@b+2)^0,f,c
  6048   0035A8  2204               	addwfc	(___fldiv@b+3)^0,f,c
  6049   0035AA  A004               	btfss	(___fldiv@b+3)^0,0,c
  6050   0035AC  EFDA  F01A         	goto	u2451
  6051   0035B0  EFDC  F01A         	goto	u2450
  6052   0035B4                     u2451:
  6053   0035B4  EFF3  F01A         	goto	l2473
  6054   0035B8                     u2450:
  6055   0035B8  C001  F009         	movff	___fldiv@b,??___fldiv
  6056   0035BC  C002  F00A         	movff	___fldiv@b+1,??___fldiv+1
  6057   0035C0  C003  F00B         	movff	___fldiv@b+2,??___fldiv+2
  6058   0035C4  C004  F00C         	movff	___fldiv@b+3,??___fldiv+3
  6059   0035C8  340C               	rlcf	(??___fldiv+3)^0,w,c
  6060   0035CA  320C               	rrcf	(??___fldiv+3)^0,f,c
  6061   0035CC  320B               	rrcf	(??___fldiv+2)^0,f,c
  6062   0035CE  320A               	rrcf	(??___fldiv+1)^0,f,c
  6063   0035D0  3209               	rrcf	??___fldiv^0,f,c
  6064   0035D2  C009  F001         	movff	??___fldiv,___fldiv@b
  6065   0035D6  C00A  F002         	movff	??___fldiv+1,___fldiv@b+1
  6066   0035DA  C00B  F003         	movff	??___fldiv+2,___fldiv@b+2
  6067   0035DE  C00C  F004         	movff	??___fldiv+3,___fldiv@b+3
  6068   0035E2  4A12               	infsnz	___fldiv@new_exp^0,f,c
  6069   0035E4  2A13               	incf	(___fldiv@new_exp+1)^0,f,c
  6070   0035E6                     l2473:
  6071   0035E6  BE13               	btfsc	(___fldiv@new_exp+1)^0,7,c
  6072   0035E8  EFFE  F01A         	goto	u2461
  6073   0035EC  5013               	movf	(___fldiv@new_exp+1)^0,w,c
  6074   0035EE  E108               	bnz	u2460
  6075   0035F0  2812               	incf	___fldiv@new_exp^0,w,c
  6076   0035F2  A0D8               	btfss	status,0,c
  6077   0035F4  EFFE  F01A         	goto	u2461
  6078   0035F8  EF00  F01B         	goto	u2460
  6079   0035FC                     u2461:
  6080   0035FC  EF0B  F01B         	goto	l2477
  6081   003600                     u2460:
  6082   003600  0E00               	movlw	0
  6083   003602  6E13               	movwf	(___fldiv@new_exp+1)^0,c
  6084   003604  6812               	setf	___fldiv@new_exp^0,c
  6085   003606  0E00               	movlw	0
  6086   003608  6E01               	movwf	___fldiv@b^0,c
  6087   00360A  0E00               	movlw	0
  6088   00360C  6E02               	movwf	(___fldiv@b+1)^0,c
  6089   00360E  0E00               	movlw	0
  6090   003610  6E03               	movwf	(___fldiv@b+2)^0,c
  6091   003612  0E00               	movlw	0
  6092   003614  6E04               	movwf	(___fldiv@b+3)^0,c
  6093   003616                     l2477:
  6094   003616  BE13               	btfsc	(___fldiv@new_exp+1)^0,7,c
  6095   003618  EF18  F01B         	goto	u2470
  6096   00361C  5013               	movf	(___fldiv@new_exp+1)^0,w,c
  6097   00361E  E106               	bnz	u2471
  6098   003620  0412               	decf	___fldiv@new_exp^0,w,c
  6099   003622  B0D8               	btfsc	status,0,c
  6100   003624  EF16  F01B         	goto	u2471
  6101   003628  EF18  F01B         	goto	u2470
  6102   00362C                     u2471:
  6103   00362C  EF26  F01B         	goto	l2481
  6104   003630                     u2470:
  6105   003630  0E00               	movlw	0
  6106   003632  6E13               	movwf	(___fldiv@new_exp+1)^0,c
  6107   003634  0E00               	movlw	0
  6108   003636  6E12               	movwf	___fldiv@new_exp^0,c
  6109   003638  0E00               	movlw	0
  6110   00363A  6E01               	movwf	___fldiv@b^0,c
  6111   00363C  0E00               	movlw	0
  6112   00363E  6E02               	movwf	(___fldiv@b+1)^0,c
  6113   003640  0E00               	movlw	0
  6114   003642  6E03               	movwf	(___fldiv@b+2)^0,c
  6115   003644  0E00               	movlw	0
  6116   003646  6E04               	movwf	(___fldiv@b+3)^0,c
  6117   003648  0E00               	movlw	0
  6118   00364A  6E11               	movwf	___fldiv@sign^0,c
  6119   00364C                     l2481:
  6120   00364C  C012  F018         	movff	___fldiv@new_exp,___fldiv@bexp
  6121   003650  A018               	btfss	___fldiv@bexp^0,0,c
  6122   003652  EF2D  F01B         	goto	u2481
  6123   003656  EF2F  F01B         	goto	u2480
  6124   00365A                     u2481:
  6125   00365A  EF32  F01B         	goto	l2487
  6126   00365E                     u2480:
  6127   00365E  8E03               	bsf	(___fldiv@b+2)^0,7,c
  6128   003660  EF33  F01B         	goto	l2489
  6129   003664                     l2487:
  6130   003664  9E03               	bcf	(___fldiv@b+2)^0,7,c
  6131   003666                     l2489:
  6132   003666  90D8               	bcf	status,0,c
  6133   003668  3018               	rrcf	___fldiv@bexp^0,w,c
  6134   00366A  6E04               	movwf	(___fldiv@b+3)^0,c
  6135   00366C  EFE9  F019         	goto	l2403
  6136   003670                     l686:
  6137   003670  0012               	return		;funcret
  6138   003672                     __end_of___fldiv:
  6139                           	callstack 0
  6140                           
  6141 ;; *************** function ___xxtofl *****************
  6142 ;; Defined at:
  6143 ;;		line 10 in file "C:\Program Files\Microchip\xc8\v2.46\pic\sources\c99\common\xxtofl.c"
  6144 ;; Parameters:    Size  Location     Type
  6145 ;;  sign            1    wreg     unsigned char 
  6146 ;;  val             4    0[COMRAM] long 
  6147 ;; Auto vars:     Size  Location     Type
  6148 ;;  sign            1    8[COMRAM] unsigned char 
  6149 ;;  arg             4   10[COMRAM] unsigned long 
  6150 ;;  exp             1    9[COMRAM] unsigned char 
  6151 ;; Return value:  Size  Location     Type
  6152 ;;                  4    0[COMRAM] unsigned char 
  6153 ;; Registers used:
  6154 ;;		wreg, status,2, status,0
  6155 ;; Tracked objects:
  6156 ;;		On entry : 0/0
  6157 ;;		On exit  : 0/0
  6158 ;;		Unchanged: 0/0
  6159 ;; Data sizes:     COMRAM   BANK0   BANK1   BANK2   BANK3   BANK4   BANK5   BANK6   BANK7   BANK8   BANK9  BANK10  BANK1
      +1  BANK12  BANK13  BANK14  BANK15  BANK16  BANK17  BANK18  BANK19  BANK20  BANK21  BANK22  BANK23  BANK24  BANK25  BANK2
      +6  BANK27  BANK28  BANK29  BANK30  BANK31
  6160 ;;      Params:         4       0       0       0       0       0       0       0       0       0       0       0       
      +0       0       0       0       0       0       0       0       0       0       0       0       0       0       0       
      +0       0       0       0       0       0
  6161 ;;      Locals:         6       0       0       0       0       0       0       0       0       0       0       0       
      +0       0       0       0       0       0       0       0       0       0       0       0       0       0       0       
      +0       0       0       0       0       0
  6162 ;;      Temps:          4       0       0       0       0       0       0       0       0       0       0       0       
      +0       0       0       0       0       0       0       0       0       0       0       0       0       0       0       
      +0       0       0       0       0       0
  6163 ;;      Totals:        14       0       0       0       0       0       0       0       0       0       0       0       
      +0       0       0       0       0       0       0       0       0       0       0       0       0       0       0       
      +0       0       0       0       0       0
  6164 ;;Total ram usage:       14 bytes
  6165 ;; Hardware stack levels used: 1
  6166 ;; This function calls:
  6167 ;;		Nothing
  6168 ;; This function is called by:
  6169 ;;		_main
  6170 ;; This function uses a non-reentrant model
  6171 ;;
  6172                           
  6173                           	psect	text25
  6174   003A96                     __ptext25:
  6175                           	callstack 0
  6176   003A96                     ___xxtofl:
  6177                           	callstack 30
  6178                           
  6179                           ;incstack = 0
  6180                           ;___xxtofl@sign stored from wreg
  6181   003A96  6E09               	movwf	___xxtofl@sign^0,c
  6182   003A98  5009               	movf	___xxtofl@sign^0,w,c
  6183   003A9A  B4D8               	btfsc	status,2,c
  6184   003A9C  EF52  F01D         	goto	u3521
  6185   003AA0  EF54  F01D         	goto	u3520
  6186   003AA4                     u3521:
  6187   003AA4  EF76  F01D         	goto	l759
  6188   003AA8                     u3520:
  6189   003AA8  BE04               	btfsc	(___xxtofl@val+3)^0,7,c
  6190   003AAA  EF5B  F01D         	goto	u3530
  6191   003AAE  EF59  F01D         	goto	u3531
  6192   003AB2                     u3531:
  6193   003AB2  EF76  F01D         	goto	l759
  6194   003AB6                     u3530:
  6195   003AB6  C001  F005         	movff	___xxtofl@val,??___xxtofl
  6196   003ABA  C002  F006         	movff	___xxtofl@val+1,??___xxtofl+1
  6197   003ABE  C003  F007         	movff	___xxtofl@val+2,??___xxtofl+2
  6198   003AC2  C004  F008         	movff	___xxtofl@val+3,??___xxtofl+3
  6199   003AC6  1E05               	comf	??___xxtofl^0,f,c
  6200   003AC8  1E06               	comf	(??___xxtofl+1)^0,f,c
  6201   003ACA  1E07               	comf	(??___xxtofl+2)^0,f,c
  6202   003ACC  1E08               	comf	(??___xxtofl+3)^0,f,c
  6203   003ACE  2A05               	incf	??___xxtofl^0,f,c
  6204   003AD0  0E00               	movlw	0
  6205   003AD2  2206               	addwfc	(??___xxtofl+1)^0,f,c
  6206   003AD4  2207               	addwfc	(??___xxtofl+2)^0,f,c
  6207   003AD6  2208               	addwfc	(??___xxtofl+3)^0,f,c
  6208   003AD8  C005  F00B         	movff	??___xxtofl,___xxtofl@arg
  6209   003ADC  C006  F00C         	movff	??___xxtofl+1,___xxtofl@arg+1
  6210   003AE0  C007  F00D         	movff	??___xxtofl+2,___xxtofl@arg+2
  6211   003AE4  C008  F00E         	movff	??___xxtofl+3,___xxtofl@arg+3
  6212   003AE8  EF7E  F01D         	goto	l3219
  6213   003AEC                     l759:
  6214   003AEC  C001  F00B         	movff	___xxtofl@val,___xxtofl@arg
  6215   003AF0  C002  F00C         	movff	___xxtofl@val+1,___xxtofl@arg+1
  6216   003AF4  C003  F00D         	movff	___xxtofl@val+2,___xxtofl@arg+2
  6217   003AF8  C004  F00E         	movff	___xxtofl@val+3,___xxtofl@arg+3
  6218   003AFC                     l3219:
  6219   003AFC  5001               	movf	___xxtofl@val^0,w,c
  6220   003AFE  1002               	iorwf	(___xxtofl@val+1)^0,w,c
  6221   003B00  1003               	iorwf	(___xxtofl@val+2)^0,w,c
  6222   003B02  1004               	iorwf	(___xxtofl@val+3)^0,w,c
  6223   003B04  A4D8               	btfss	status,2,c
  6224   003B06  EF87  F01D         	goto	u3541
  6225   003B0A  EF89  F01D         	goto	u3540
  6226   003B0E                     u3541:
  6227   003B0E  EF93  F01D         	goto	l3225
  6228   003B12                     u3540:
  6229   003B12  0E00               	movlw	0
  6230   003B14  6E01               	movwf	?___xxtofl^0,c
  6231   003B16  0E00               	movlw	0
  6232   003B18  6E02               	movwf	(?___xxtofl+1)^0,c
  6233   003B1A  0E00               	movlw	0
  6234   003B1C  6E03               	movwf	(?___xxtofl+2)^0,c
  6235   003B1E  0E00               	movlw	0
  6236   003B20  6E04               	movwf	(?___xxtofl+3)^0,c
  6237   003B22  EF24  F01E         	goto	l762
  6238   003B26                     l3225:
  6239   003B26  0E96               	movlw	150
  6240   003B28  6E0A               	movwf	___xxtofl@exp^0,c
  6241   003B2A  EF9D  F01D         	goto	l3229
  6242   003B2E                     l3227:
  6243   003B2E  2A0A               	incf	___xxtofl@exp^0,f,c
  6244   003B30  90D8               	bcf	status,0,c
  6245   003B32  320E               	rrcf	(___xxtofl@arg+3)^0,f,c
  6246   003B34  320D               	rrcf	(___xxtofl@arg+2)^0,f,c
  6247   003B36  320C               	rrcf	(___xxtofl@arg+1)^0,f,c
  6248   003B38  320B               	rrcf	___xxtofl@arg^0,f,c
  6249   003B3A                     l3229:
  6250   003B3A  0E00               	movlw	0
  6251   003B3C  140B               	andwf	___xxtofl@arg^0,w,c
  6252   003B3E  6E05               	movwf	??___xxtofl^0,c
  6253   003B40  0E00               	movlw	0
  6254   003B42  140C               	andwf	(___xxtofl@arg+1)^0,w,c
  6255   003B44  6E06               	movwf	(??___xxtofl+1)^0,c
  6256   003B46  0E00               	movlw	0
  6257   003B48  140D               	andwf	(___xxtofl@arg+2)^0,w,c
  6258   003B4A  6E07               	movwf	(??___xxtofl+2)^0,c
  6259   003B4C  0EFE               	movlw	254
  6260   003B4E  140E               	andwf	(___xxtofl@arg+3)^0,w,c
  6261   003B50  6E08               	movwf	(??___xxtofl+3)^0,c
  6262   003B52  5005               	movf	??___xxtofl^0,w,c
  6263   003B54  1006               	iorwf	(??___xxtofl+1)^0,w,c
  6264   003B56  1007               	iorwf	(??___xxtofl+2)^0,w,c
  6265   003B58  1008               	iorwf	(??___xxtofl+3)^0,w,c
  6266   003B5A  A4D8               	btfss	status,2,c
  6267   003B5C  EFB2  F01D         	goto	u3551
  6268   003B60  EFB4  F01D         	goto	u3550
  6269   003B64                     u3551:
  6270   003B64  EF97  F01D         	goto	l3227
  6271   003B68                     u3550:
  6272   003B68  EFC2  F01D         	goto	l766
  6273   003B6C                     l3231:
  6274   003B6C  2A0A               	incf	___xxtofl@exp^0,f,c
  6275   003B6E  0E01               	movlw	1
  6276   003B70  260B               	addwf	___xxtofl@arg^0,f,c
  6277   003B72  0E00               	movlw	0
  6278   003B74  220C               	addwfc	(___xxtofl@arg+1)^0,f,c
  6279   003B76  220D               	addwfc	(___xxtofl@arg+2)^0,f,c
  6280   003B78  220E               	addwfc	(___xxtofl@arg+3)^0,f,c
  6281   003B7A  90D8               	bcf	status,0,c
  6282   003B7C  320E               	rrcf	(___xxtofl@arg+3)^0,f,c
  6283   003B7E  320D               	rrcf	(___xxtofl@arg+2)^0,f,c
  6284   003B80  320C               	rrcf	(___xxtofl@arg+1)^0,f,c
  6285   003B82  320B               	rrcf	___xxtofl@arg^0,f,c
  6286   003B84                     l766:
  6287   003B84  0E00               	movlw	0
  6288   003B86  140B               	andwf	___xxtofl@arg^0,w,c
  6289   003B88  6E05               	movwf	??___xxtofl^0,c
  6290   003B8A  0E00               	movlw	0
  6291   003B8C  140C               	andwf	(___xxtofl@arg+1)^0,w,c
  6292   003B8E  6E06               	movwf	(??___xxtofl+1)^0,c
  6293   003B90  0E00               	movlw	0
  6294   003B92  140D               	andwf	(___xxtofl@arg+2)^0,w,c
  6295   003B94  6E07               	movwf	(??___xxtofl+2)^0,c
  6296   003B96  0EFF               	movlw	255
  6297   003B98  140E               	andwf	(___xxtofl@arg+3)^0,w,c
  6298   003B9A  6E08               	movwf	(??___xxtofl+3)^0,c
  6299   003B9C  5005               	movf	??___xxtofl^0,w,c
  6300   003B9E  1006               	iorwf	(??___xxtofl+1)^0,w,c
  6301   003BA0  1007               	iorwf	(??___xxtofl+2)^0,w,c
  6302   003BA2  1008               	iorwf	(??___xxtofl+3)^0,w,c
  6303   003BA4  A4D8               	btfss	status,2,c
  6304   003BA6  EFD7  F01D         	goto	u3561
  6305   003BAA  EFD9  F01D         	goto	u3560
  6306   003BAE                     u3561:
  6307   003BAE  EFB6  F01D         	goto	l3231
  6308   003BB2                     u3560:
  6309   003BB2  EFE1  F01D         	goto	l3239
  6310   003BB6                     l3237:
  6311   003BB6  060A               	decf	___xxtofl@exp^0,f,c
  6312   003BB8  90D8               	bcf	status,0,c
  6313   003BBA  360B               	rlcf	___xxtofl@arg^0,f,c
  6314   003BBC  360C               	rlcf	(___xxtofl@arg+1)^0,f,c
  6315   003BBE  360D               	rlcf	(___xxtofl@arg+2)^0,f,c
  6316   003BC0  360E               	rlcf	(___xxtofl@arg+3)^0,f,c
  6317   003BC2                     l3239:
  6318   003BC2  BE0D               	btfsc	(___xxtofl@arg+2)^0,7,c
  6319   003BC4  EFE6  F01D         	goto	u3571
  6320   003BC8  EFE8  F01D         	goto	u3570
  6321   003BCC                     u3571:
  6322   003BCC  EFF0  F01D         	goto	l773
  6323   003BD0                     u3570:
  6324   003BD0  0E02               	movlw	2
  6325   003BD2  600A               	cpfslt	___xxtofl@exp^0,c
  6326   003BD4  EFEE  F01D         	goto	u3581
  6327   003BD8  EFF0  F01D         	goto	u3580
  6328   003BDC                     u3581:
  6329   003BDC  EFDB  F01D         	goto	l3237
  6330   003BE0                     u3580:
  6331   003BE0                     l773:
  6332   003BE0  B00A               	btfsc	___xxtofl@exp^0,0,c
  6333   003BE2  EFF5  F01D         	goto	u3591
  6334   003BE6  EFF7  F01D         	goto	u3590
  6335   003BEA                     u3591:
  6336   003BEA  EFF8  F01D         	goto	l3245
  6337   003BEE                     u3590:
  6338   003BEE  9E0D               	bcf	(___xxtofl@arg+2)^0,7,c
  6339   003BF0                     l3245:
  6340   003BF0  90D8               	bcf	status,0,c
  6341   003BF2  320A               	rrcf	___xxtofl@exp^0,f,c
  6342   003BF4  C00A  F005         	movff	___xxtofl@exp,??___xxtofl
  6343   003BF8  6A06               	clrf	(??___xxtofl+1)^0,c
  6344   003BFA  6A07               	clrf	(??___xxtofl+2)^0,c
  6345   003BFC  6A08               	clrf	(??___xxtofl+3)^0,c
  6346   003BFE  C005  F008         	movff	??___xxtofl,??___xxtofl+3
  6347   003C02  6A07               	clrf	(??___xxtofl+2)^0,c
  6348   003C04  6A06               	clrf	(??___xxtofl+1)^0,c
  6349   003C06  6A05               	clrf	??___xxtofl^0,c
  6350   003C08  5005               	movf	??___xxtofl^0,w,c
  6351   003C0A  120B               	iorwf	___xxtofl@arg^0,f,c
  6352   003C0C  5006               	movf	(??___xxtofl+1)^0,w,c
  6353   003C0E  120C               	iorwf	(___xxtofl@arg+1)^0,f,c
  6354   003C10  5007               	movf	(??___xxtofl+2)^0,w,c
  6355   003C12  120D               	iorwf	(___xxtofl@arg+2)^0,f,c
  6356   003C14  5008               	movf	(??___xxtofl+3)^0,w,c
  6357   003C16  120E               	iorwf	(___xxtofl@arg+3)^0,f,c
  6358   003C18  5009               	movf	___xxtofl@sign^0,w,c
  6359   003C1A  B4D8               	btfsc	status,2,c
  6360   003C1C  EF12  F01E         	goto	u3601
  6361   003C20  EF14  F01E         	goto	u3600
  6362   003C24                     u3601:
  6363   003C24  EF1C  F01E         	goto	l3255
  6364   003C28                     u3600:
  6365   003C28  BE04               	btfsc	(___xxtofl@val+3)^0,7,c
  6366   003C2A  EF1B  F01E         	goto	u3610
  6367   003C2E  EF19  F01E         	goto	u3611
  6368   003C32                     u3611:
  6369   003C32  EF1C  F01E         	goto	l3255
  6370   003C36                     u3610:
  6371   003C36  8E0E               	bsf	(___xxtofl@arg+3)^0,7,c
  6372   003C38                     l3255:
  6373   003C38  C00B  F001         	movff	___xxtofl@arg,?___xxtofl
  6374   003C3C  C00C  F002         	movff	___xxtofl@arg+1,?___xxtofl+1
  6375   003C40  C00D  F003         	movff	___xxtofl@arg+2,?___xxtofl+2
  6376   003C44  C00E  F004         	movff	___xxtofl@arg+3,?___xxtofl+3
  6377   003C48                     l762:
  6378   003C48  0012               	return		;funcret
  6379   003C4A                     __end_of___xxtofl:
  6380                           	callstack 0
  6381                           
  6382 ;; *************** function _LCD_String_xy *****************
  6383 ;; Defined at:
  6384 ;;		line 173 in file "main.c"
  6385 ;; Parameters:    Size  Location     Type
  6386 ;;  row             1    wreg     unsigned char 
  6387 ;;  pos             1    9[COMRAM] unsigned char 
  6388 ;;  msg             2   10[COMRAM] PTR const unsigned char 
  6389 ;;		 -> STR_3(15), data(10), 
  6390 ;; Auto vars:     Size  Location     Type
  6391 ;;  row             1   12[COMRAM] unsigned char 
  6392 ;;  location        1   13[COMRAM] unsigned char 
  6393 ;; Return value:  Size  Location     Type
  6394 ;;                  1    wreg      void 
  6395 ;; Registers used:
  6396 ;;		wreg, fsr1l, fsr1h, status,2, status,0, tblptrl, tblptrh, tblptru, cstack
  6397 ;; Tracked objects:
  6398 ;;		On entry : 0/0
  6399 ;;		On exit  : 0/0
  6400 ;;		Unchanged: 0/0
  6401 ;; Data sizes:     COMRAM   BANK0   BANK1   BANK2   BANK3   BANK4   BANK5   BANK6   BANK7   BANK8   BANK9  BANK10  BANK1
      +1  BANK12  BANK13  BANK14  BANK15  BANK16  BANK17  BANK18  BANK19  BANK20  BANK21  BANK22  BANK23  BANK24  BANK25  BANK2
      +6  BANK27  BANK28  BANK29  BANK30  BANK31
  6402 ;;      Params:         3       0       0       0       0       0       0       0       0       0       0       0       
      +0       0       0       0       0       0       0       0       0       0       0       0       0       0       0       
      +0       0       0       0       0       0
  6403 ;;      Locals:         2       0       0       0       0       0       0       0       0       0       0       0       
      +0       0       0       0       0       0       0       0       0       0       0       0       0       0       0       
      +0       0       0       0       0       0
  6404 ;;      Temps:          0       0       0       0       0       0       0       0       0       0       0       0       
      +0       0       0       0       0       0       0       0       0       0       0       0       0       0       0       
      +0       0       0       0       0       0
  6405 ;;      Totals:         5       0       0       0       0       0       0       0       0       0       0       0       
      +0       0       0       0       0       0       0       0       0       0       0       0       0       0       0       
      +0       0       0       0       0       0
  6406 ;;Total ram usage:        5 bytes
  6407 ;; Hardware stack levels used: 1
  6408 ;; Hardware stack levels required when called: 3
  6409 ;; This function calls:
  6410 ;;		_LCD_Command
  6411 ;;		_LCD_String
  6412 ;; This function is called by:
  6413 ;;		_main
  6414 ;; This function uses a non-reentrant model
  6415 ;;
  6416                           
  6417                           	psect	text26
  6418   0044DA                     __ptext26:
  6419                           	callstack 0
  6420   0044DA                     _LCD_String_xy:
  6421                           	callstack 27
  6422                           
  6423                           ;incstack = 0
  6424                           ;LCD_String_xy@row stored from wreg
  6425   0044DA  6E0D               	movwf	LCD_String_xy@row^0,c
  6426   0044DC                     
  6427                           ;main.c: 176:     if(row<=1)
  6428   0044DC  0E02               	movlw	2
  6429   0044DE  600D               	cpfslt	LCD_String_xy@row^0,c
  6430   0044E0  EF74  F022         	goto	u3511
  6431   0044E4  EF76  F022         	goto	u3510
  6432   0044E8                     u3511:
  6433   0044E8  EF7F  F022         	goto	l3207
  6434   0044EC                     u3510:
  6435   0044EC                     
  6436                           ;main.c: 177:     {;main.c: 178:         location=(0x80) | ((pos) & 0x0f);
  6437   0044EC  500A               	movf	LCD_String_xy@pos^0,w,c
  6438   0044EE  0B0F               	andlw	15
  6439   0044F0  0980               	iorlw	128
  6440   0044F2  6E0E               	movwf	LCD_String_xy@location^0,c
  6441   0044F4                     
  6442                           ;main.c: 179:         LCD_Command(location);
  6443   0044F4  500E               	movf	LCD_String_xy@location^0,w,c
  6444   0044F6  EC56  F023         	call	_LCD_Command
  6445                           
  6446                           ;main.c: 180:     }
  6447   0044FA  EF86  F022         	goto	l3211
  6448   0044FE                     l3207:
  6449                           
  6450                           ;main.c: 182:     {;main.c: 183:         location=(0xC0) | ((pos) & 0x0f);
  6451   0044FE  500A               	movf	LCD_String_xy@pos^0,w,c
  6452   004500  0B0F               	andlw	15
  6453   004502  09C0               	iorlw	192
  6454   004504  6E0E               	movwf	LCD_String_xy@location^0,c
  6455   004506                     
  6456                           ;main.c: 184:         LCD_Command(location);
  6457   004506  500E               	movf	LCD_String_xy@location^0,w,c
  6458   004508  EC56  F023         	call	_LCD_Command
  6459   00450C                     l3211:
  6460                           
  6461                           ;main.c: 186:     LCD_String(msg);
  6462   00450C  C00B  F008         	movff	LCD_String_xy@msg,LCD_String@msg
  6463   004510  C00C  F009         	movff	LCD_String_xy@msg+1,LCD_String@msg+1
  6464   004514  EC1C  F021         	call	_LCD_String	;wreg free
  6465   004518  0012               	return		;funcret
  6466   00451A                     __end_of_LCD_String_xy:
  6467                           	callstack 0
  6468                           
  6469 ;; *************** function _LCD_String *****************
  6470 ;; Defined at:
  6471 ;;		line 164 in file "main.c"
  6472 ;; Parameters:    Size  Location     Type
  6473 ;;  msg             2    7[COMRAM] PTR const unsigned char 
  6474 ;;		 -> STR_3(15), data(10), 
  6475 ;; Auto vars:     Size  Location     Type
  6476 ;;		None
  6477 ;; Return value:  Size  Location     Type
  6478 ;;                  1    wreg      void 
  6479 ;; Registers used:
  6480 ;;		wreg, fsr1l, fsr1h, status,2, status,0, tblptrl, tblptrh, tblptru, cstack
  6481 ;; Tracked objects:
  6482 ;;		On entry : 0/0
  6483 ;;		On exit  : 0/0
  6484 ;;		Unchanged: 0/0
  6485 ;; Data sizes:     COMRAM   BANK0   BANK1   BANK2   BANK3   BANK4   BANK5   BANK6   BANK7   BANK8   BANK9  BANK10  BANK1
      +1  BANK12  BANK13  BANK14  BANK15  BANK16  BANK17  BANK18  BANK19  BANK20  BANK21  BANK22  BANK23  BANK24  BANK25  BANK2
      +6  BANK27  BANK28  BANK29  BANK30  BANK31
  6486 ;;      Params:         2       0       0       0       0       0       0       0       0       0       0       0       
      +0       0       0       0       0       0       0       0       0       0       0       0       0       0       0       
      +0       0       0       0       0       0
  6487 ;;      Locals:         0       0       0       0       0       0       0       0       0       0       0       0       
      +0       0       0       0       0       0       0       0       0       0       0       0       0       0       0       
      +0       0       0       0       0       0
  6488 ;;      Temps:          0       0       0       0       0       0       0       0       0       0       0       0       
      +0       0       0       0       0       0       0       0       0       0       0       0       0       0       0       
      +0       0       0       0       0       0
  6489 ;;      Totals:         2       0       0       0       0       0       0       0       0       0       0       0       
      +0       0       0       0       0       0       0       0       0       0       0       0       0       0       0       
      +0       0       0       0       0       0
  6490 ;;Total ram usage:        2 bytes
  6491 ;; Hardware stack levels used: 1
  6492 ;; Hardware stack levels required when called: 2
  6493 ;; This function calls:
  6494 ;;		_LCD_Char
  6495 ;; This function is called by:
  6496 ;;		_LCD_String_xy
  6497 ;; This function uses a non-reentrant model
  6498 ;;
  6499                           
  6500                           	psect	text27
  6501   004238                     __ptext27:
  6502                           	callstack 0
  6503   004238                     _LCD_String:
  6504                           	callstack 27
  6505   004238                     
  6506                           ;main.c: 164: void LCD_String(const char *msg);main.c: 165: {;main.c: 166:     while((*m
      +                          sg)!=0)
  6507   004238  EF37  F021         	goto	l3147
  6508   00423C                     l3143:
  6509                           
  6510                           ;main.c: 167:     {;main.c: 168:       LCD_Char(*msg);
  6511   00423C  0060  F023  FFF6   	movff	LCD_String@msg,tblptrl
  6512   004242  0060  F027  FFF7   	movff	LCD_String@msg+1,tblptrh
  6513   004248  0E00               	movlw	low (__smallconst shr (0+16))
  6514   00424A  6EF8               	movwf	tblptru,c
  6515   00424C  0E1F               	movlw	(high __ramtop+-1)
  6516   00424E  64F7               	cpfsgt	tblptrh,c
  6517   004250  D003               	bra	u3457
  6518   004252  0008               	tblrd		*
  6519   004254  50F5               	movf	tablat,w,c
  6520   004256  D007               	bra	u3450
  6521   004258                     u3457:
  6522   004258  006F FFDB FFE1     	movff	tblptrl,fsr1l
  6523   00425E  006F FFDF FFE2     	movff	tblptrh,fsr1h
  6524   004264  50E7               	movf	indf1,w,c
  6525   004266                     u3450:
  6526   004266  EC47  F023         	call	_LCD_Char
  6527   00426A                     
  6528                           ;main.c: 169:       msg++;
  6529   00426A  4A08               	infsnz	LCD_String@msg^0,f,c
  6530   00426C  2A09               	incf	(LCD_String@msg+1)^0,f,c
  6531   00426E                     l3147:
  6532                           
  6533                           ;main.c: 166:     while((*msg)!=0)
  6534   00426E  0060  F023  FFF6   	movff	LCD_String@msg,tblptrl
  6535   004274  0060  F027  FFF7   	movff	LCD_String@msg+1,tblptrh
  6536   00427A  0E00               	movlw	low (__smallconst shr (0+16))
  6537   00427C  6EF8               	movwf	tblptru,c
  6538   00427E  0E1F               	movlw	(high __ramtop+-1)
  6539   004280  64F7               	cpfsgt	tblptrh,c
  6540   004282  D003               	bra	u3467
  6541   004284  0008               	tblrd		*
  6542   004286  50F5               	movf	tablat,w,c
  6543   004288  D007               	bra	u3460
  6544   00428A                     u3467:
  6545   00428A  006F FFDB FFE1     	movff	tblptrl,fsr1l
  6546   004290  006F FFDF FFE2     	movff	tblptrh,fsr1h
  6547   004296  50E7               	movf	indf1,w,c
  6548   004298                     u3460:
  6549   004298  0900               	iorlw	0
  6550   00429A  A4D8               	btfss	status,2,c
  6551   00429C  EF52  F021         	goto	u3471
  6552   0042A0  EF54  F021         	goto	u3470
  6553   0042A4                     u3471:
  6554   0042A4  EF1E  F021         	goto	l3143
  6555   0042A8                     u3470:
  6556   0042A8  0012               	return		;funcret
  6557   0042AA                     __end_of_LCD_String:
  6558                           	callstack 0
  6559                           
  6560 ;; *************** function _LCD_Char *****************
  6561 ;; Defined at:
  6562 ;;		line 153 in file "main.c"
  6563 ;; Parameters:    Size  Location     Type
  6564 ;;  dat             1    wreg     unsigned char 
  6565 ;; Auto vars:     Size  Location     Type
  6566 ;;  dat             1    6[COMRAM] unsigned char 
  6567 ;; Return value:  Size  Location     Type
  6568 ;;                  1    wreg      void 
  6569 ;; Registers used:
  6570 ;;		wreg, status,2, status,0, cstack
  6571 ;; Tracked objects:
  6572 ;;		On entry : 0/0
  6573 ;;		On exit  : 0/0
  6574 ;;		Unchanged: 0/0
  6575 ;; Data sizes:     COMRAM   BANK0   BANK1   BANK2   BANK3   BANK4   BANK5   BANK6   BANK7   BANK8   BANK9  BANK10  BANK1
      +1  BANK12  BANK13  BANK14  BANK15  BANK16  BANK17  BANK18  BANK19  BANK20  BANK21  BANK22  BANK23  BANK24  BANK25  BANK2
      +6  BANK27  BANK28  BANK29  BANK30  BANK31
  6576 ;;      Params:         0       0       0       0       0       0       0       0       0       0       0       0       
      +0       0       0       0       0       0       0       0       0       0       0       0       0       0       0       
      +0       0       0       0       0       0
  6577 ;;      Locals:         1       0       0       0       0       0       0       0       0       0       0       0       
      +0       0       0       0       0       0       0       0       0       0       0       0       0       0       0       
      +0       0       0       0       0       0
  6578 ;;      Temps:          0       0       0       0       0       0       0       0       0       0       0       0       
      +0       0       0       0       0       0       0       0       0       0       0       0       0       0       0       
      +0       0       0       0       0       0
  6579 ;;      Totals:         1       0       0       0       0       0       0       0       0       0       0       0       
      +0       0       0       0       0       0       0       0       0       0       0       0       0       0       0       
      +0       0       0       0       0       0
  6580 ;;Total ram usage:        1 bytes
  6581 ;; Hardware stack levels used: 1
  6582 ;; Hardware stack levels required when called: 1
  6583 ;; This function calls:
  6584 ;;		_MSdelay
  6585 ;; This function is called by:
  6586 ;;		_LCD_String
  6587 ;; This function uses a non-reentrant model
  6588 ;;
  6589                           
  6590                           	psect	text28
  6591   00468E                     __ptext28:
  6592                           	callstack 0
  6593   00468E                     _LCD_Char:
  6594                           	callstack 27
  6595                           
  6596                           ;incstack = 0
  6597                           ;LCD_Char@dat stored from wreg
  6598   00468E  6E07               	movwf	LCD_Char@dat^0,c
  6599   004690                     
  6600                           ;main.c: 153: void LCD_Char(char dat);main.c: 154: {;main.c: 155:     LATB= dat;
  6601   004690  0060  F01F  FFBB   	movff	LCD_Char@dat,16315	;volatile
  6602   004696                     
  6603                           ;main.c: 156:     LATD0 = 1;
  6604   004696  80BD               	bsf	16317,0,c	;volatile
  6605   004698                     
  6606                           ;main.c: 157:     LATD1=1;
  6607   004698  82BD               	bsf	16317,1,c	;volatile
  6608   00469A                     
  6609                           ;main.c: 158:     __nop();
  6610   00469A  0000               	nop	
  6611   00469C                     
  6612                           ;main.c: 159:     LATD1=0;
  6613   00469C  92BD               	bcf	16317,1,c	;volatile
  6614   00469E                     
  6615                           ;main.c: 160:     MSdelay(1);
  6616   00469E  0E00               	movlw	0
  6617   0046A0  6E02               	movwf	(MSdelay@val+1)^0,c
  6618   0046A2  0E01               	movlw	1
  6619   0046A4  6E01               	movwf	MSdelay@val^0,c
  6620   0046A6  ECE2  F021         	call	_MSdelay	;wreg free
  6621   0046AA  0012               	return		;funcret
  6622   0046AC                     __end_of_LCD_Char:
  6623                           	callstack 0
  6624                           
  6625 ;; *************** function _LCD_Init *****************
  6626 ;; Defined at:
  6627 ;;		line 127 in file "main.c"
  6628 ;; Parameters:    Size  Location     Type
  6629 ;;		None
  6630 ;; Auto vars:     Size  Location     Type
  6631 ;;		None
  6632 ;; Return value:  Size  Location     Type
  6633 ;;                  1    wreg      void 
  6634 ;; Registers used:
  6635 ;;		wreg, status,2, status,0, cstack
  6636 ;; Tracked objects:
  6637 ;;		On entry : 0/0
  6638 ;;		On exit  : 0/0
  6639 ;;		Unchanged: 0/0
  6640 ;; Data sizes:     COMRAM   BANK0   BANK1   BANK2   BANK3   BANK4   BANK5   BANK6   BANK7   BANK8   BANK9  BANK10  BANK1
      +1  BANK12  BANK13  BANK14  BANK15  BANK16  BANK17  BANK18  BANK19  BANK20  BANK21  BANK22  BANK23  BANK24  BANK25  BANK2
      +6  BANK27  BANK28  BANK29  BANK30  BANK31
  6641 ;;      Params:         0       0       0       0       0       0       0       0       0       0       0       0       
      +0       0       0       0       0       0       0       0       0       0       0       0       0       0       0       
      +0       0       0       0       0       0
  6642 ;;      Locals:         0       0       0       0       0       0       0       0       0       0       0       0       
      +0       0       0       0       0       0       0       0       0       0       0       0       0       0       0       
      +0       0       0       0       0       0
  6643 ;;      Temps:          0       0       0       0       0       0       0       0       0       0       0       0       
      +0       0       0       0       0       0       0       0       0       0       0       0       0       0       0       
      +0       0       0       0       0       0
  6644 ;;      Totals:         0       0       0       0       0       0       0       0       0       0       0       0       
      +0       0       0       0       0       0       0       0       0       0       0       0       0       0       0       
      +0       0       0       0       0       0
  6645 ;;Total ram usage:        0 bytes
  6646 ;; Hardware stack levels used: 1
  6647 ;; Hardware stack levels required when called: 2
  6648 ;; This function calls:
  6649 ;;		_LCD_Command
  6650 ;;		_MSdelay
  6651 ;; This function is called by:
  6652 ;;		_main
  6653 ;; This function uses a non-reentrant model
  6654 ;;
  6655                           
  6656                           	psect	text29
  6657   004636                     __ptext29:
  6658                           	callstack 0
  6659   004636                     _LCD_Init:
  6660                           	callstack 28
  6661   004636                     
  6662                           ;main.c: 129:     MSdelay(15);
  6663   004636  0E00               	movlw	0
  6664   004638  6E02               	movwf	(MSdelay@val+1)^0,c
  6665   00463A  0E0F               	movlw	15
  6666   00463C  6E01               	movwf	MSdelay@val^0,c
  6667   00463E  ECE2  F021         	call	_MSdelay	;wreg free
  6668   004642                     
  6669                           ;main.c: 130:     TRISB = 0x00;
  6670   004642  0E00               	movlw	0
  6671   004644  6EC3               	movwf	195,c	;volatile
  6672   004646                     
  6673                           ;main.c: 131:     TRISD = 0x00;
  6674   004646  0E00               	movlw	0
  6675   004648  6EC5               	movwf	197,c	;volatile
  6676                           
  6677                           ;main.c: 132:     LCD_Command(0x01);
  6678   00464A  0E01               	movlw	1
  6679   00464C  EC56  F023         	call	_LCD_Command
  6680                           
  6681                           ;main.c: 133:     LCD_Command(0x38);
  6682   004650  0E38               	movlw	56
  6683   004652  EC56  F023         	call	_LCD_Command
  6684                           
  6685                           ;main.c: 134:     LCD_Command(0x0c);
  6686   004656  0E0C               	movlw	12
  6687   004658  EC56  F023         	call	_LCD_Command
  6688                           
  6689                           ;main.c: 135:     LCD_Command(0x06);
  6690   00465C  0E06               	movlw	6
  6691   00465E  EC56  F023         	call	_LCD_Command
  6692   004662  0012               	return		;funcret
  6693   004664                     __end_of_LCD_Init:
  6694                           	callstack 0
  6695                           
  6696 ;; *************** function _LCD_Clear *****************
  6697 ;; Defined at:
  6698 ;;		line 138 in file "main.c"
  6699 ;; Parameters:    Size  Location     Type
  6700 ;;		None
  6701 ;; Auto vars:     Size  Location     Type
  6702 ;;		None
  6703 ;; Return value:  Size  Location     Type
  6704 ;;                  1    wreg      void 
  6705 ;; Registers used:
  6706 ;;		wreg, status,2, status,0, cstack
  6707 ;; Tracked objects:
  6708 ;;		On entry : 0/0
  6709 ;;		On exit  : 0/0
  6710 ;;		Unchanged: 0/0
  6711 ;; Data sizes:     COMRAM   BANK0   BANK1   BANK2   BANK3   BANK4   BANK5   BANK6   BANK7   BANK8   BANK9  BANK10  BANK1
      +1  BANK12  BANK13  BANK14  BANK15  BANK16  BANK17  BANK18  BANK19  BANK20  BANK21  BANK22  BANK23  BANK24  BANK25  BANK2
      +6  BANK27  BANK28  BANK29  BANK30  BANK31
  6712 ;;      Params:         0       0       0       0       0       0       0       0       0       0       0       0       
      +0       0       0       0       0       0       0       0       0       0       0       0       0       0       0       
      +0       0       0       0       0       0
  6713 ;;      Locals:         0       0       0       0       0       0       0       0       0       0       0       0       
      +0       0       0       0       0       0       0       0       0       0       0       0       0       0       0       
      +0       0       0       0       0       0
  6714 ;;      Temps:          0       0       0       0       0       0       0       0       0       0       0       0       
      +0       0       0       0       0       0       0       0       0       0       0       0       0       0       0       
      +0       0       0       0       0       0
  6715 ;;      Totals:         0       0       0       0       0       0       0       0       0       0       0       0       
      +0       0       0       0       0       0       0       0       0       0       0       0       0       0       0       
      +0       0       0       0       0       0
  6716 ;;Total ram usage:        0 bytes
  6717 ;; Hardware stack levels used: 1
  6718 ;; Hardware stack levels required when called: 2
  6719 ;; This function calls:
  6720 ;;		_LCD_Command
  6721 ;; This function is called by:
  6722 ;;		_main
  6723 ;; This function uses a non-reentrant model
  6724 ;;
  6725                           
  6726                           	psect	text30
  6727   0046DE                     __ptext30:
  6728                           	callstack 0
  6729   0046DE                     _LCD_Clear:
  6730                           	callstack 28
  6731   0046DE                     
  6732                           ;main.c: 140:         LCD_Command(0x01);
  6733   0046DE  0E01               	movlw	1
  6734   0046E0  EC56  F023         	call	_LCD_Command
  6735   0046E4  0012               	return		;funcret
  6736   0046E6                     __end_of_LCD_Clear:
  6737                           	callstack 0
  6738                           
  6739 ;; *************** function _LCD_Command *****************
  6740 ;; Defined at:
  6741 ;;		line 143 in file "main.c"
  6742 ;; Parameters:    Size  Location     Type
  6743 ;;  cmd             1    wreg     unsigned char 
  6744 ;; Auto vars:     Size  Location     Type
  6745 ;;  cmd             1    6[COMRAM] unsigned char 
  6746 ;; Return value:  Size  Location     Type
  6747 ;;                  1    wreg      void 
  6748 ;; Registers used:
  6749 ;;		wreg, status,2, status,0, cstack
  6750 ;; Tracked objects:
  6751 ;;		On entry : 0/0
  6752 ;;		On exit  : 0/0
  6753 ;;		Unchanged: 0/0
  6754 ;; Data sizes:     COMRAM   BANK0   BANK1   BANK2   BANK3   BANK4   BANK5   BANK6   BANK7   BANK8   BANK9  BANK10  BANK1
      +1  BANK12  BANK13  BANK14  BANK15  BANK16  BANK17  BANK18  BANK19  BANK20  BANK21  BANK22  BANK23  BANK24  BANK25  BANK2
      +6  BANK27  BANK28  BANK29  BANK30  BANK31
  6755 ;;      Params:         0       0       0       0       0       0       0       0       0       0       0       0       
      +0       0       0       0       0       0       0       0       0       0       0       0       0       0       0       
      +0       0       0       0       0       0
  6756 ;;      Locals:         1       0       0       0       0       0       0       0       0       0       0       0       
      +0       0       0       0       0       0       0       0       0       0       0       0       0       0       0       
      +0       0       0       0       0       0
  6757 ;;      Temps:          0       0       0       0       0       0       0       0       0       0       0       0       
      +0       0       0       0       0       0       0       0       0       0       0       0       0       0       0       
      +0       0       0       0       0       0
  6758 ;;      Totals:         1       0       0       0       0       0       0       0       0       0       0       0       
      +0       0       0       0       0       0       0       0       0       0       0       0       0       0       0       
      +0       0       0       0       0       0
  6759 ;;Total ram usage:        1 bytes
  6760 ;; Hardware stack levels used: 1
  6761 ;; Hardware stack levels required when called: 1
  6762 ;; This function calls:
  6763 ;;		_MSdelay
  6764 ;; This function is called by:
  6765 ;;		_LCD_Init
  6766 ;;		_LCD_Clear
  6767 ;;		_LCD_String_xy
  6768 ;; This function uses a non-reentrant model
  6769 ;;
  6770                           
  6771                           	psect	text31
  6772   0046AC                     __ptext31:
  6773                           	callstack 0
  6774   0046AC                     _LCD_Command:
  6775                           	callstack 28
  6776                           
  6777                           ;incstack = 0
  6778                           ;LCD_Command@cmd stored from wreg
  6779   0046AC  6E07               	movwf	LCD_Command@cmd^0,c
  6780   0046AE                     
  6781                           ;main.c: 143: void LCD_Command(char cmd );main.c: 144: {;main.c: 145:     LATB= cmd;
  6782   0046AE  0060  F01F  FFBB   	movff	LCD_Command@cmd,16315	;volatile
  6783   0046B4                     
  6784                           ;main.c: 146:     LATD0 = 0;
  6785   0046B4  90BD               	bcf	16317,0,c	;volatile
  6786   0046B6                     
  6787                           ;main.c: 147:     LATD1 = 1;
  6788   0046B6  82BD               	bsf	16317,1,c	;volatile
  6789   0046B8                     
  6790                           ;main.c: 148:     __nop();
  6791   0046B8  0000               	nop	
  6792   0046BA                     
  6793                           ;main.c: 149:     LATD1 = 0;
  6794   0046BA  92BD               	bcf	16317,1,c	;volatile
  6795   0046BC                     
  6796                           ;main.c: 150:     MSdelay(3);
  6797   0046BC  0E00               	movlw	0
  6798   0046BE  6E02               	movwf	(MSdelay@val+1)^0,c
  6799   0046C0  0E03               	movlw	3
  6800   0046C2  6E01               	movwf	MSdelay@val^0,c
  6801   0046C4  ECE2  F021         	call	_MSdelay	;wreg free
  6802   0046C8  0012               	return		;funcret
  6803   0046CA                     __end_of_LCD_Command:
  6804                           	callstack 0
  6805                           
  6806 ;; *************** function _MSdelay *****************
  6807 ;; Defined at:
  6808 ;;		line 190 in file "main.c"
  6809 ;; Parameters:    Size  Location     Type
  6810 ;;  val             2    0[COMRAM] unsigned int 
  6811 ;; Auto vars:     Size  Location     Type
  6812 ;;  j               2    4[COMRAM] unsigned int 
  6813 ;;  i               2    2[COMRAM] unsigned int 
  6814 ;; Return value:  Size  Location     Type
  6815 ;;                  1    wreg      void 
  6816 ;; Registers used:
  6817 ;;		wreg, status,2, status,0
  6818 ;; Tracked objects:
  6819 ;;		On entry : 0/0
  6820 ;;		On exit  : 0/0
  6821 ;;		Unchanged: 0/0
  6822 ;; Data sizes:     COMRAM   BANK0   BANK1   BANK2   BANK3   BANK4   BANK5   BANK6   BANK7   BANK8   BANK9  BANK10  BANK1
      +1  BANK12  BANK13  BANK14  BANK15  BANK16  BANK17  BANK18  BANK19  BANK20  BANK21  BANK22  BANK23  BANK24  BANK25  BANK2
      +6  BANK27  BANK28  BANK29  BANK30  BANK31
  6823 ;;      Params:         2       0       0       0       0       0       0       0       0       0       0       0       
      +0       0       0       0       0       0       0       0       0       0       0       0       0       0       0       
      +0       0       0       0       0       0
  6824 ;;      Locals:         4       0       0       0       0       0       0       0       0       0       0       0       
      +0       0       0       0       0       0       0       0       0       0       0       0       0       0       0       
      +0       0       0       0       0       0
  6825 ;;      Temps:          0       0       0       0       0       0       0       0       0       0       0       0       
      +0       0       0       0       0       0       0       0       0       0       0       0       0       0       0       
      +0       0       0       0       0       0
  6826 ;;      Totals:         6       0       0       0       0       0       0       0       0       0       0       0       
      +0       0       0       0       0       0       0       0       0       0       0       0       0       0       0       
      +0       0       0       0       0       0
  6827 ;;Total ram usage:        6 bytes
  6828 ;; Hardware stack levels used: 1
  6829 ;; This function calls:
  6830 ;;		Nothing
  6831 ;; This function is called by:
  6832 ;;		_LCD_Init
  6833 ;;		_LCD_Command
  6834 ;;		_LCD_Char
  6835 ;; This function uses a non-reentrant model
  6836 ;;
  6837                           
  6838                           	psect	text32
  6839   0043C4                     __ptext32:
  6840                           	callstack 0
  6841   0043C4                     _MSdelay:
  6842                           	callstack 27
  6843   0043C4                     
  6844                           ;main.c: 190: void MSdelay(unsigned int val);main.c: 191: {;main.c: 192:      unsigned i
      +                          nt i,j;;main.c: 193:         for(i=0;i<val;i++)
  6845   0043C4  0E00               	movlw	0
  6846   0043C6  6E04               	movwf	(MSdelay@i+1)^0,c
  6847   0043C8  0E00               	movlw	0
  6848   0043CA  6E03               	movwf	MSdelay@i^0,c
  6849   0043CC  EFFB  F021         	goto	l2821
  6850   0043D0                     l2809:
  6851                           
  6852                           ;main.c: 194:             for(j=0;j<165;j++);
  6853   0043D0  0E00               	movlw	0
  6854   0043D2  6E06               	movwf	(MSdelay@j+1)^0,c
  6855   0043D4  0E00               	movlw	0
  6856   0043D6  6E05               	movwf	MSdelay@j^0,c
  6857   0043D8                     l2815:
  6858   0043D8  4A05               	infsnz	MSdelay@j^0,f,c
  6859   0043DA  2A06               	incf	(MSdelay@j+1)^0,f,c
  6860   0043DC  5006               	movf	(MSdelay@j+1)^0,w,c
  6861   0043DE  E109               	bnz	u3060
  6862   0043E0  0EA5               	movlw	165
  6863   0043E2  5C05               	subwf	MSdelay@j^0,w,c
  6864   0043E4  A0D8               	btfss	status,0,c
  6865   0043E6  EFF7  F021         	goto	u3061
  6866   0043EA  EFF9  F021         	goto	u3060
  6867   0043EE                     u3061:
  6868   0043EE  EFEC  F021         	goto	l2815
  6869   0043F2                     u3060:
  6870   0043F2  4A03               	infsnz	MSdelay@i^0,f,c
  6871   0043F4  2A04               	incf	(MSdelay@i+1)^0,f,c
  6872   0043F6                     l2821:
  6873   0043F6  5001               	movf	MSdelay@val^0,w,c
  6874   0043F8  5C03               	subwf	MSdelay@i^0,w,c
  6875   0043FA  5002               	movf	(MSdelay@val+1)^0,w,c
  6876   0043FC  5804               	subwfb	(MSdelay@i+1)^0,w,c
  6877   0043FE  A0D8               	btfss	status,0,c
  6878   004400  EF04  F022         	goto	u3071
  6879   004404  EF06  F022         	goto	u3070
  6880   004408                     u3071:
  6881   004408  EFE8  F021         	goto	l2809
  6882   00440C                     u3070:
  6883   00440C  0012               	return		;funcret
  6884   00440E                     __end_of_MSdelay:
  6885                           	callstack 0
  6886                           
  6887 ;; *************** function _ADC_Init *****************
  6888 ;; Defined at:
  6889 ;;		line 199 in file "main.c"
  6890 ;; Parameters:    Size  Location     Type
  6891 ;;		None
  6892 ;; Auto vars:     Size  Location     Type
  6893 ;;		None
  6894 ;; Return value:  Size  Location     Type
  6895 ;;                  1    wreg      void 
  6896 ;; Registers used:
  6897 ;;		wreg, status,2
  6898 ;; Tracked objects:
  6899 ;;		On entry : 0/0
  6900 ;;		On exit  : 0/0
  6901 ;;		Unchanged: 0/0
  6902 ;; Data sizes:     COMRAM   BANK0   BANK1   BANK2   BANK3   BANK4   BANK5   BANK6   BANK7   BANK8   BANK9  BANK10  BANK1
      +1  BANK12  BANK13  BANK14  BANK15  BANK16  BANK17  BANK18  BANK19  BANK20  BANK21  BANK22  BANK23  BANK24  BANK25  BANK2
      +6  BANK27  BANK28  BANK29  BANK30  BANK31
  6903 ;;      Params:         0       0       0       0       0       0       0       0       0       0       0       0       
      +0       0       0       0       0       0       0       0       0       0       0       0       0       0       0       
      +0       0       0       0       0       0
  6904 ;;      Locals:         0       0       0       0       0       0       0       0       0       0       0       0       
      +0       0       0       0       0       0       0       0       0       0       0       0       0       0       0       
      +0       0       0       0       0       0
  6905 ;;      Temps:          0       0       0       0       0       0       0       0       0       0       0       0       
      +0       0       0       0       0       0       0       0       0       0       0       0       0       0       0       
      +0       0       0       0       0       0
  6906 ;;      Totals:         0       0       0       0       0       0       0       0       0       0       0       0       
      +0       0       0       0       0       0       0       0       0       0       0       0       0       0       0       
      +0       0       0       0       0       0
  6907 ;;Total ram usage:        0 bytes
  6908 ;; Hardware stack levels used: 1
  6909 ;; This function calls:
  6910 ;;		Nothing
  6911 ;; This function is called by:
  6912 ;;		_main
  6913 ;; This function uses a non-reentrant model
  6914 ;;
  6915                           
  6916                           	psect	text33
  6917   0045C8                     __ptext33:
  6918                           	callstack 0
  6919   0045C8                     _ADC_Init:
  6920                           	callstack 30
  6921   0045C8                     
  6922                           ;main.c: 203:     ADCON0bits.FM = 1;
  6923   0045C8  013E               	movlb	62	; () banked
  6924   0045CA  51F8               	movf	248,w,b	;volatile
  6925   0045CC  0BF3               	andlw	-13
  6926   0045CE  0904               	iorlw	4
  6927   0045D0  6FF8               	movwf	248,b	;volatile
  6928   0045D2                     
  6929                           ; BSR set to: 62
  6930                           ;main.c: 205:     ADCON0bits.CS = 0;
  6931   0045D2  99F8               	bcf	248,4,b	;volatile
  6932   0045D4                     
  6933                           ; BSR set to: 62
  6934                           ;main.c: 207:     TRISAbits.TRISA0 = 1;
  6935   0045D4  80C2               	bsf	194,0,c	;volatile
  6936   0045D6                     
  6937                           ; BSR set to: 62
  6938                           ;main.c: 209:     ANSELAbits.ANSELA0 = 1;
  6939   0045D6  013A               	movlb	58	; () banked
  6940   0045D8  8140               	bsf	64,0,b	;volatile
  6941                           
  6942                           ;main.c: 211:     ADPCH = 0;
  6943   0045DA  0E00               	movlw	0
  6944   0045DC  013E               	movlb	62	; () banked
  6945   0045DE  6FF1               	movwf	241,b	;volatile
  6946                           
  6947                           ;main.c: 213:     ADCLK = 0;
  6948   0045E0  0E00               	movlw	0
  6949   0045E2  6FFF               	movwf	255,b	;volatile
  6950                           
  6951                           ;main.c: 215:     ADRESL = 0;
  6952   0045E4  0E00               	movlw	0
  6953   0045E6  6FEF               	movwf	239,b	;volatile
  6954                           
  6955                           ;main.c: 216:     ADRESH = 0;
  6956   0045E8  0E00               	movlw	0
  6957   0045EA  6FF0               	movwf	240,b	;volatile
  6958                           
  6959                           ;main.c: 218:     ADPREL = 0;
  6960   0045EC  0E00               	movlw	0
  6961   0045EE  6FF6               	movwf	246,b	;volatile
  6962                           
  6963                           ;main.c: 219:     ADPREH = 0;
  6964   0045F0  0E00               	movlw	0
  6965   0045F2  6FF7               	movwf	247,b	;volatile
  6966                           
  6967                           ;main.c: 221:     ADACQL = 0;
  6968   0045F4  0E00               	movlw	0
  6969   0045F6  6FF3               	movwf	243,b	;volatile
  6970                           
  6971                           ;main.c: 222:     ADACQH = 0;
  6972   0045F8  0E00               	movlw	0
  6973   0045FA  6FF4               	movwf	244,b	;volatile
  6974   0045FC                     
  6975                           ; BSR set to: 62
  6976                           ;main.c: 224:     ADCON0bits.ON = 1;
  6977   0045FC  8FF8               	bsf	248,7,b	;volatile
  6978   0045FE                     
  6979                           ; BSR set to: 62
  6980   0045FE  0012               	return		;funcret
  6981   004600                     __end_of_ADC_Init:
  6982                           	callstack 0
  6983                           
  6984                           	psect	rparam
  6985   000000                     
  6986                           	psect	config
  6987                           
  6988                           ;Config register CONFIG1L @ 0x300000
  6989                           ;	External Oscillator Selection
  6990                           ;	FEXTOSC = LP, LP (crystal oscillator) optimized for 32.768 kHz; PFM set to low power
  6991                           ;	Reset Oscillator Selection
  6992                           ;	RSTOSC = EXTOSC, EXTOSC operating per FEXTOSC bits (device manufacturing default)
  6993   300000                     	org	3145728
  6994   300000  F8                 	db	248
  6995                           
  6996                           ;Config register CONFIG1H @ 0x300001
  6997                           ;	Clock out Enable bit
  6998                           ;	CLKOUTEN = OFF, CLKOUT function is disabled
  6999                           ;	PRLOCKED One-Way Set Enable bit
  7000                           ;	PR1WAY = ON, PRLOCK bit can be cleared and set only once
  7001                           ;	Clock Switch Enable bit
  7002                           ;	CSWEN = ON, Writing to NOSC and NDIV is allowed
  7003                           ;	Fail-Safe Clock Monitor Enable bit
  7004                           ;	FCMEN = ON, Fail-Safe Clock Monitor enabled
  7005   300001                     	org	3145729
  7006   300001  FF                 	db	255
  7007                           
  7008                           ;Config register CONFIG2L @ 0x300002
  7009                           ;	MCLR Enable bit
  7010                           ;	MCLRE = EXTMCLR, If LVP = 0, MCLR pin is MCLR; If LVP = 1, RE3 pin function is MCLR
  7011                           ;	Power-up timer selection bits
  7012                           ;	PWRTS = PWRT_OFF, PWRT is disabled
  7013                           ;	Multi-vector enable bit
  7014                           ;	MVECEN = ON, Multi-vector enabled, Vector table used for interrupts
  7015                           ;	IVTLOCK bit One-way set enable bit
  7016                           ;	IVT1WAY = ON, IVTLOCK bit can be cleared and set only once
  7017                           ;	Low Power BOR Enable bit
  7018                           ;	LPBOREN = OFF, ULPBOR disabled
  7019                           ;	Brown-out Reset Enable bits
  7020                           ;	BOREN = SBORDIS, Brown-out Reset enabled , SBOREN bit is ignored
  7021   300002                     	org	3145730
  7022   300002  FF                 	db	255
  7023                           
  7024                           ;Config register CONFIG2H @ 0x300003
  7025                           ;	Brown-out Reset Voltage Selection bits
  7026                           ;	BORV = VBOR_2P45, Brown-out Reset Voltage (VBOR) set to 2.45V
  7027                           ;	ZCD Disable bit
  7028                           ;	ZCD = OFF, ZCD disabled. ZCD can be enabled by setting the ZCDSEN bit of ZCDCON
  7029                           ;	PPSLOCK bit One-Way Set Enable bit
  7030                           ;	PPS1WAY = ON, PPSLOCK bit can be cleared and set only once; PPS registers remain locke
      +                          d after one clear/set cycle
  7031                           ;	Stack Full/Underflow Reset Enable bit
  7032                           ;	STVREN = ON, Stack full/underflow will cause Reset
  7033                           ;	Debugger Enable bit
  7034                           ;	DEBUG = OFF, Background debugger disabled
  7035                           ;	Extended Instruction Set Enable bit
  7036                           ;	XINST = OFF, Extended Instruction Set and Indexed Addressing Mode disabled
  7037   300003                     	org	3145731
  7038   300003  FF                 	db	255
  7039                           
  7040                           ;Config register CONFIG3L @ 0x300004
  7041                           ;	WDT Period selection bits
  7042                           ;	WDTCPS = WDTCPS_31, Divider ratio 1:65536; software control of WDTPS
  7043                           ;	WDT operating mode
  7044                           ;	WDTE = OFF, WDT Disabled; SWDTEN is ignored
  7045   300004                     	org	3145732
  7046   300004  9F                 	db	159
  7047                           
  7048                           ;Config register CONFIG3H @ 0x300005
  7049                           ;	WDT Window Select bits
  7050                           ;	WDTCWS = WDTCWS_7, window always open (100%); software control; keyed access not requi
      +                          red
  7051                           ;	WDT input clock selector
  7052                           ;	WDTCCS = SC, Software Control
  7053   300005                     	org	3145733
  7054   300005  FF                 	db	255
  7055                           
  7056                           ;Config register CONFIG4L @ 0x300006
  7057                           ;	Boot Block Size selection bits
  7058                           ;	BBSIZE = BBSIZE_512, Boot Block size is 512 words
  7059                           ;	Boot Block enable bit
  7060                           ;	BBEN = OFF, Boot block disabled
  7061                           ;	Storage Area Flash enable bit
  7062                           ;	SAFEN = OFF, SAF disabled
  7063                           ;	Application Block write protection bit
  7064                           ;	WRTAPP = OFF, Application Block not write protected
  7065   300006                     	org	3145734
  7066   300006  FF                 	db	255
  7067                           
  7068                           ;Config register CONFIG4H @ 0x300007
  7069                           ;	Boot Block Write Protection bit
  7070                           ;	WRTB = OFF, Boot Block not write-protected
  7071                           ;	Configuration Register Write Protection bit
  7072                           ;	WRTC = OFF, Configuration registers not write-protected
  7073                           ;	Data EEPROM Write Protection bit
  7074                           ;	WRTD = OFF, Data EEPROM not write-protected
  7075                           ;	SAF Write protection bit
  7076                           ;	WRTSAF = OFF, SAF not Write Protected
  7077                           ;	Low Voltage Programming Enable bit
  7078                           ;	LVP = ON, Low voltage programming enabled. MCLR/VPP pin function is MCLR. MCLRE config
      +                          uration bit is ignored
  7079   300007                     	org	3145735
  7080   300007  FF                 	db	255
  7081                           
  7082                           ;Config register CONFIG5L @ 0x300008
  7083                           ;	PFM and Data EEPROM Code Protection bit
  7084                           ;	CP = OFF, PFM and Data EEPROM code protection disabled
  7085   300008                     	org	3145736
  7086   300008  FF                 	db	255
  7087                           
  7088                           ;Config register CONFIG5H @ 0x300009
  7089                           ;	unspecified, using default values
  7090   300009                     	org	3145737
  7091   300009  FF                 	db	255
  7092                           tosu	equ	0x3FFF
  7093                           tosh	equ	0x3FFE
  7094                           tosl	equ	0x3FFD
  7095                           stkptr	equ	0x3FFC
  7096                           pclatu	equ	0x3FFB
  7097                           pclath	equ	0x3FFA
  7098                           pcl	equ	0x3FF9
  7099                           tblptru	equ	0x3FF8
  7100                           tblptrh	equ	0x3FF7
  7101                           tblptrl	equ	0x3FF6
  7102                           tablat	equ	0x3FF5
  7103                           prodh	equ	0x3FF4
  7104                           prodl	equ	0x3FF3
  7105                           indf0	equ	0x3FEF
  7106                           postinc0	equ	0x3FEE
  7107                           postdec0	equ	0x3FED
  7108                           preinc0	equ	0x3FEC
  7109                           plusw0	equ	0x3FEB
  7110                           fsr0h	equ	0x3FEA
  7111                           fsr0l	equ	0x3FE9
  7112                           wreg	equ	0x3FE8
  7113                           indf1	equ	0x3FE7
  7114                           postinc1	equ	0x3FE6
  7115                           postdec1	equ	0x3FE5
  7116                           preinc1	equ	0x3FE4
  7117                           plusw1	equ	0x3FE3
  7118                           fsr1h	equ	0x3FE2
  7119                           fsr1l	equ	0x3FE1
  7120                           bsr	equ	0x3FE0
  7121                           indf2	equ	0x3FDF
  7122                           postinc2	equ	0x3FDE
  7123                           postdec2	equ	0x3FDD
  7124                           preinc2	equ	0x3FDC
  7125                           plusw2	equ	0x3FDB
  7126                           fsr2h	equ	0x3FDA
  7127                           fsr2l	equ	0x3FD9
  7128                           status	equ	0x3FD8

Data Sizes:
    Strings     31
    Constant    0
    Data        0
    BSS         109
    Persistent  0
    Stack       0

Auto Spaces:
    Space          Size  Autos    Used
    COMRAM           95     93      94
    BANK0           160     50     158
    BANK1           256      0       0
    BANK2           256      0       0
    BANK3           256      0       0
    BANK4           256      0       0
    BANK5           256      0       0
    BANK6           256      0       0
    BANK7           256      0       0
    BANK8           256      0       0
    BANK9           256      0       0
    BANK10          256      0       0
    BANK11          256      0       0
    BANK12          256      0       0
    BANK13          256      0       0
    BANK14          256      0       0
    BANK15          256      0       0
    BANK16          256      0       0
    BANK17          256      0       0
    BANK18          256      0       0
    BANK19          256      0       0
    BANK20          256      0       0
    BANK21          256      0       0
    BANK22          256      0       0
    BANK23          256      0       0
    BANK24          256      0       0
    BANK25          256      0       0
    BANK26          256      0       0
    BANK27          256      0       0
    BANK28          256      0       0
    BANK29          256      0       0
    BANK30          256      0       0
    BANK31          256      0       0

Pointer List with Targets:

    efgtoa@fp	PTR struct _IO_FILE size(1) Largest target is 12
		 -> sprintf@f(COMRAM[12]), 

    f$.$buffer	PTR unsigned char  size(2) Largest target is 0

    f$.$source	PTR const unsigned char  size(2) Largest target is 0

    fputc@fp	PTR struct _IO_FILE size(1) Largest target is 12
		 -> sprintf@f(COMRAM[12]), 

    fputc@fp$.$buffer	PTR unsigned char  size(2) Largest target is 0

    fputc@fp$.$source	PTR const unsigned char  size(2) Largest target is 0

    fputs@fp	PTR struct _IO_FILE size(1) Largest target is 12
		 -> sprintf@f(COMRAM[12]), 

    fputs@s	PTR const unsigned char  size(1) Largest target is 80
		 -> dbuf(BANK0[80]), 

    LCD_String@msg	PTR const unsigned char  size(2) Largest target is 15
		 -> data(BANK0[10]), STR_3(CODE[15]), 

    LCD_String_xy@msg	PTR const unsigned char  size(2) Largest target is 15
		 -> data(BANK0[10]), STR_3(CODE[15]), 

    memcpy@d	PTR unsigned char  size(1) Largest target is 80
		 -> dbuf(BANK0[80]), 

    memcpy@d1	PTR void  size(1) Largest target is 80
		 -> dbuf(BANK0[80]), 

    memcpy@s	PTR const unsigned char  size(1) Largest target is 80
		 -> dbuf(BANK0[80]), 

    memcpy@s1	PTR const void  size(1) Largest target is 80
		 -> dbuf(BANK0[80]), 

    pad@buf	PTR unsigned char  size(1) Largest target is 80
		 -> dbuf(BANK0[80]), 

    pad@fp	PTR struct _IO_FILE size(1) Largest target is 12
		 -> sprintf@f(COMRAM[12]), 

    read_prec_or_width@ap	PTR PTR void [1] size(1) Largest target is 1
		 -> sprintf@ap(COMRAM[1]), 

    read_prec_or_width@fmt	PTR PTR const unsigned char  size(1) Largest target is 1
		 -> vfprintf@cfmt(COMRAM[1]), 

    S677$buffer	PTR unsigned char  size(2) Largest target is 0

    S677$source	PTR const unsigned char  size(2) Largest target is 0

    sp__memcpy	PTR void  size(1) Largest target is 80
		 -> dbuf(BANK0[80]), 

    sp__strcat	PTR unsigned char  size(1) Largest target is 10
		 -> data(BANK0[10]), 

    sp__strcpy	PTR unsigned char  size(1) Largest target is 80
		 -> dbuf(BANK0[80]), 

    sprintf@ap	PTR void [1] size(1) Largest target is 2
		 -> ?_sprintf(BANK0[2]), 

    sprintf@fmt	PTR const unsigned char  size(1) Largest target is 5
		 -> STR_1(CODE[5]), 

    sprintf@s	PTR unsigned char  size(1) Largest target is 10
		 -> data(BANK0[10]), 

    strcat@dest	PTR unsigned char  size(1) Largest target is 10
		 -> data(BANK0[10]), 

    strcat@src	PTR const unsigned char  size(1) Largest target is 3
		 -> STR_2(CODE[3]), 

    strcpy@d	PTR unsigned char  size(1) Largest target is 80
		 -> dbuf(BANK0[80]), 

    strcpy@dest	PTR unsigned char  size(1) Largest target is 80
		 -> dbuf(BANK0[80]), 

    strcpy@src	PTR const unsigned char  size(1) Largest target is 4
		 -> STR_4(CODE[4]), STR_7(CODE[4]), 

    vfpfcnvrt@ap	PTR PTR void  size(1) Largest target is 1
		 -> sprintf@ap(COMRAM[1]), 

    vfpfcnvrt@cp	PTR unsigned char  size(1) Largest target is 5
		 -> STR_1(CODE[5]), 

    vfpfcnvrt@fmt	PTR PTR unsigned char  size(1) Largest target is 1
		 -> vfprintf@cfmt(COMRAM[1]), 

    vfpfcnvrt@fp	PTR struct _IO_FILE size(1) Largest target is 12
		 -> sprintf@f(COMRAM[12]), 

    vfprintf@ap	PTR PTR void  size(1) Largest target is 1
		 -> sprintf@ap(COMRAM[1]), 

    vfprintf@cfmt	PTR unsigned char  size(1) Largest target is 5
		 -> STR_1(CODE[5]), 

    vfprintf@fmt	PTR const unsigned char  size(1) Largest target is 5
		 -> STR_1(CODE[5]), 

    vfprintf@fp	PTR struct _IO_FILE size(1) Largest target is 12
		 -> sprintf@f(COMRAM[12]), 


Critical Paths under _main in COMRAM

    _main->_sprintf
    _sprintf->_vfprintf
    _vfprintf->_vfpfcnvrt
    _vfpfcnvrt->_efgtoa
    _read_prec_or_width->___wmul
    _efgtoa->___flge
    _pad->_fputs
    _fputs->_fputc
    _floorf->___fldiv
    ___flsub->___flmul
    ___flmul->___xxtofl
    ___flge->___flmul
    _LCD_String_xy->_LCD_String
    _LCD_String->_LCD_Char
    _LCD_Char->_MSdelay
    _LCD_Init->_LCD_Command
    _LCD_Clear->_LCD_Command
    _LCD_Command->_MSdelay

Critical Paths under _main in BANK0

    _main->_sprintf
    _vfpfcnvrt->_efgtoa

Critical Paths under _main in BANK1

    None.

Critical Paths under _main in BANK2

    None.

Critical Paths under _main in BANK3

    None.

Critical Paths under _main in BANK4

    None.

Critical Paths under _main in BANK5

    None.

Critical Paths under _main in BANK6

    None.

Critical Paths under _main in BANK7

    None.

Critical Paths under _main in BANK8

    None.

Critical Paths under _main in BANK9

    None.

Critical Paths under _main in BANK10

    None.

Critical Paths under _main in BANK11

    None.

Critical Paths under _main in BANK12

    None.

Critical Paths under _main in BANK13

    None.

Critical Paths under _main in BANK14

    None.

Critical Paths under _main in BANK15

    None.

Critical Paths under _main in BANK16

    None.

Critical Paths under _main in BANK17

    None.

Critical Paths under _main in BANK18

    None.

Critical Paths under _main in BANK19

    None.

Critical Paths under _main in BANK20

    None.

Critical Paths under _main in BANK21

    None.

Critical Paths under _main in BANK22

    None.

Critical Paths under _main in BANK23

    None.

Critical Paths under _main in BANK24

    None.

Critical Paths under _main in BANK25

    None.

Critical Paths under _main in BANK26

    None.

Critical Paths under _main in BANK27

    None.

Critical Paths under _main in BANK28

    None.

Critical Paths under _main in BANK29

    None.

Critical Paths under _main in BANK30

    None.

Critical Paths under _main in BANK31

    None.

Call Graph Tables:

 ---------------------------------------------------------------------------------
 (Depth) Function   	        Calls       Base Space   Used Autos Params    Refs
 ---------------------------------------------------------------------------------
 (0) _main                                                12    12      0   27088
                                             85 COMRAM     8     8      0
                           _ADC_Init
                          _LCD_Clear
                           _LCD_Init
                      _LCD_String_xy
                            ___flmul
                           ___xxtofl
                            _sprintf
                             _strcat
 ---------------------------------------------------------------------------------
 (1) _strcat                                               4     2      2     272
                                              0 COMRAM     4     2      2
 ---------------------------------------------------------------------------------
 (1) _sprintf                                             21    15      6   21467
                                             72 COMRAM    13    13      0
                                             44 BANK0      6     0      6
                           _vfprintf
 ---------------------------------------------------------------------------------
 (2) _vfprintf                                             4     1      3   21112
                                             68 COMRAM     4     1      3
                          _vfpfcnvrt
 ---------------------------------------------------------------------------------
 (3) _vfpfcnvrt                                           11     8      3   20753
                                             58 COMRAM    10     7      3
                             _efgtoa
                              _fputc
                 _read_prec_or_width
 ---------------------------------------------------------------------------------
 (4) _read_prec_or_width                                   5     3      2     643
                                              6 COMRAM     5     3      2
                             ___wmul
 ---------------------------------------------------------------------------------
 (5) ___wmul                                               6     2      4     311
                                              0 COMRAM     6     2      4
 ---------------------------------------------------------------------------------
 (4) _efgtoa                                              52    46      6   18687
                                             51 COMRAM     7     1      6
                                              0 BANK0     44    44      0
                            ___fladd
                            ___fldiv
                             ___fleq
                             ___flge
                            ___flmul
                            ___flneg
                            ___flsub
                            ___fltol
                      ___fpclassifyf
                             _floorf
                               _labs
                             _memcpy
                                _pad
                             _strcpy
 ---------------------------------------------------------------------------------
 (5) _strcpy                                               4     2      2     377
                                              0 COMRAM     4     2      2
 ---------------------------------------------------------------------------------
 (5) _pad                                                  7     3      4    2432
                                             13 COMRAM     7     3      4
                              _fputc
                              _fputs
 ---------------------------------------------------------------------------------
 (6) _fputs                                                5     3      2     931
                                              8 COMRAM     5     3      2
                              _fputc
 ---------------------------------------------------------------------------------
 (4) _fputc                                                8     5      3     682
                                              0 COMRAM     8     5      3
                              _putch
 ---------------------------------------------------------------------------------
 (5) _putch                                                1     1      0       0
 ---------------------------------------------------------------------------------
 (5) _memcpy                                               7     3      4     371
                                              0 COMRAM     7     3      4
 ---------------------------------------------------------------------------------
 (5) _labs                                                 8     4      4     294
                                              0 COMRAM     8     4      4
 ---------------------------------------------------------------------------------
 (5) _floorf                                              20    16      4     490
                                             25 COMRAM    20    16      4
                            ___fldiv (ARG)
 ---------------------------------------------------------------------------------
 (5) ___fpclassifyf                                       14    10      4     287
                                              0 COMRAM    14    10      4
 ---------------------------------------------------------------------------------
 (5) ___fltol                                             10     6      4     457
                                              0 COMRAM    10     6      4
 ---------------------------------------------------------------------------------
 (5) ___flsub                                              8     0      8    2889
                                             39 COMRAM     8     0      8
                            ___fladd
                            ___flmul (ARG)
 ---------------------------------------------------------------------------------
 (6) ___fladd                                             16     8      8    2414
                                              0 COMRAM    16     8      8
 ---------------------------------------------------------------------------------
 (5) ___flneg                                              4     0      4     121
                                              0 COMRAM     4     0      4
 ---------------------------------------------------------------------------------
 (5) ___flmul                                             25    17      8    2656
                                             14 COMRAM    25    17      8
                           ___xxtofl (ARG)
 ---------------------------------------------------------------------------------
 (5) ___flge                                              12     4      8     790
                                             39 COMRAM    12     4      8
                            ___flmul (ARG)
 ---------------------------------------------------------------------------------
 (5) ___fleq                                              12     4      8     646
                                              0 COMRAM    12     4      8
 ---------------------------------------------------------------------------------
 (5) ___fldiv                                             25    17      8    2007
                                              0 COMRAM    25    17      8
 ---------------------------------------------------------------------------------
 (1) ___xxtofl                                            14    10      4     398
                                              0 COMRAM    14    10      4
 ---------------------------------------------------------------------------------
 (1) _LCD_String_xy                                        5     2      3    1244
                                              9 COMRAM     5     2      3
                        _LCD_Command
                         _LCD_String
 ---------------------------------------------------------------------------------
 (2) _LCD_String                                           2     0      2     463
                                              7 COMRAM     2     0      2
                           _LCD_Char
 ---------------------------------------------------------------------------------
 (3) _LCD_Char                                             1     1      0     342
                                              6 COMRAM     1     1      0
                            _MSdelay
 ---------------------------------------------------------------------------------
 (1) _LCD_Init                                             0     0      0     662
                        _LCD_Command
                            _MSdelay
 ---------------------------------------------------------------------------------
 (1) _LCD_Clear                                            0     0      0     342
                        _LCD_Command
 ---------------------------------------------------------------------------------
 (2) _LCD_Command                                          1     1      0     342
                                              6 COMRAM     1     1      0
                            _MSdelay
 ---------------------------------------------------------------------------------
 (4) _MSdelay                                              6     4      2     320
                                              0 COMRAM     6     4      2
 ---------------------------------------------------------------------------------
 (1) _ADC_Init                                             0     0      0       0
 ---------------------------------------------------------------------------------
 Estimated maximum stack depth 6
 ---------------------------------------------------------------------------------

 Call Graph Graphs:

 _main (ROOT)
   _ADC_Init
   _LCD_Clear
     _LCD_Command
       _MSdelay
   _LCD_Init
     _LCD_Command
     _MSdelay
   _LCD_String_xy
     _LCD_Command
     _LCD_String
       _LCD_Char
         _MSdelay
   ___flmul
     ___xxtofl (ARG)
   ___xxtofl
   _sprintf
     _vfprintf
       _vfpfcnvrt
         _efgtoa
           ___fladd
           ___fldiv
           ___fleq
           ___flge
             ___flmul (ARG)
           ___flmul
           ___flneg
           ___flsub
             ___fladd
             ___flmul (ARG)
           ___fltol
           ___fpclassifyf
           _floorf
             ___fldiv (ARG)
           _labs
           _memcpy
           _pad
             _fputc
               _putch
             _fputs
               _fputc
           _strcpy
         _fputc
         _read_prec_or_width
           ___wmul
   _strcat

 Address spaces:
Name               Size   Autos  Total    Cost      Usage
BIGRAM            1FFF      0       0      79        0.0%
BITBIGSFRllh       4AE      0       0      77        0.0%
EEDATA             400      0       0       0        0.0%
BITBIGSFRlll       240      0       0      78        0.0%
BITBANK31          100      0       0      67        0.0%
BANK31             100      0       0      68        0.0%
BITBANK30          100      0       0      65        0.0%
BANK30             100      0       0      66        0.0%
BITBANK29          100      0       0      63        0.0%
BANK29             100      0       0      64        0.0%
BITBANK28          100      0       0      61        0.0%
BANK28             100      0       0      62        0.0%
BITBANK27          100      0       0      59        0.0%
BANK27             100      0       0      60        0.0%
BITBANK26          100      0       0      57        0.0%
BANK26             100      0       0      58        0.0%
BITBANK25          100      0       0      55        0.0%
BANK25             100      0       0      56        0.0%
BITBANK24          100      0       0      53        0.0%
BANK24             100      0       0      54        0.0%
BITBANK23          100      0       0      51        0.0%
BANK23             100      0       0      52        0.0%
BITBANK22          100      0       0      49        0.0%
BANK22             100      0       0      50        0.0%
BITBANK21          100      0       0      47        0.0%
BANK21             100      0       0      48        0.0%
BITBANK20          100      0       0      45        0.0%
BANK20             100      0       0      46        0.0%
BITBANK19          100      0       0      43        0.0%
BANK19             100      0       0      44        0.0%
BITBANK18          100      0       0      41        0.0%
BANK18             100      0       0      42        0.0%
BITBANK17          100      0       0      39        0.0%
BANK17             100      0       0      40        0.0%
BITBANK16          100      0       0      37        0.0%
BANK16             100      0       0      38        0.0%
BITBANK15          100      0       0      35        0.0%
BANK15             100      0       0      36        0.0%
BITBANK14          100      0       0      33        0.0%
BANK14             100      0       0      34        0.0%
BITBANK13          100      0       0      31        0.0%
BANK13             100      0       0      32        0.0%
BITBANK12          100      0       0      29        0.0%
BANK12             100      0       0      30        0.0%
BITBANK11          100      0       0      27        0.0%
BANK11             100      0       0      28        0.0%
BITBANK10          100      0       0      25        0.0%
BANK10             100      0       0      26        0.0%
BITBANK9           100      0       0      23        0.0%
BANK9              100      0       0      24        0.0%
BITBANK8           100      0       0      21        0.0%
BANK8              100      0       0      22        0.0%
BITBANK7           100      0       0      19        0.0%
BANK7              100      0       0      20        0.0%
BITBANK6           100      0       0      17        0.0%
BANK6              100      0       0      18        0.0%
BITBANK5           100      0       0      14        0.0%
BANK5              100      0       0      15        0.0%
BITBANK4           100      0       0      12        0.0%
BANK4              100      0       0      13        0.0%
BITBANK3           100      0       0      10        0.0%
BANK3              100      0       0      11        0.0%
BITBANK2           100      0       0       8        0.0%
BANK2              100      0       0       9        0.0%
BITBANK1           100      0       0       6        0.0%
BANK1              100      0       0       7        0.0%
BITBIGSFRhllh       BB      0       0      73        0.0%
BITBANK0            A0      0       0       4        0.0%
BANK0               A0     32      9E       5       98.8%
BITCOMRAM           5F      0       0       0        0.0%
COMRAM              5F     5D      5E       1       98.9%
BITBIGSFRhhh        3A      0       0      69        0.0%
BITBIGSFRhlll        6      0       0      74        0.0%
BITBIGSFRhlhh        4      0       0      71        0.0%
BITBIGSFRlhlh        1      0       0      75        0.0%
BITBIGSFRhlhl        1      0       0      72        0.0%
BITBIGSFRhhl         1      0       0      70        0.0%
BITBIGSFRlhll        1      0       0      76        0.0%
BIGSFR               0      0       0     200        0.0%
BITSFR_8             0      0       0     200        0.0%
SFR_8                0      0       0     200        0.0%
BITSFR_7             0      0       0     200        0.0%
SFR_7                0      0       0     200        0.0%
BITSFR_6             0      0       0     200        0.0%
SFR_6                0      0       0     200        0.0%
BITSFR_5             0      0       0     200        0.0%
SFR_5                0      0       0     200        0.0%
BITSFR_4             0      0       0     200        0.0%
SFR_4                0      0       0     200        0.0%
BITSFR_3             0      0       0     200        0.0%
SFR_3                0      0       0     200        0.0%
BITSFR_2             0      0       0     200        0.0%
SFR_2                0      0       0     200        0.0%
BITSFR_1             0      0       0     200        0.0%
SFR_1                0      0       0     200        0.0%
BITSFR               0      0       0     200        0.0%
SFR                  0      0       0     200        0.0%
STACK                0      0       0       2        0.0%
NULL                 0      0       0       0        0.0%
ABS                  0      0      FC      16        0.0%
DATA                 0      0      FC       3        0.0%
CODE                 0      0       0       0        0.0%


Microchip Technology PIC18 Macro Assembler V2.46 build 20240104201356 
Symbol Table                                                                                   Wed May 01 21:41:38 2024

              ___fldiv@aexp 0019                ___fldiv@bexp 0018                ___fldiv@sign 0011  
              ?_LCD_Command 0001                          l70 4662                          l62 3F62  
                        l73 46E4                          l90 4518                          l76 46C8  
                        l85 42A8                          l79 46AA                          l98 440C  
       ___wmul@multiplicand 0003                 ?_LCD_String 0008                         l101 45FE  
                       l104 468C                         l401 3D4E                         l363 4236  
                       l700 357C                         l374 3E52                         l632 2BB8  
                       l369 3E0C                         l641 2E88                         l633 2BA6  
                       l722 32D6                         l378 45C6                         l634 2B6C  
                       l900 4496                         l725 3168                         l813 436C  
                       l718 2F4E                         l910 3F50                         l735 3298  
                       l727 31E0                         l728 31CE                         l920 39D8  
                       l824 29C8                         l649 2CD2                         l809 4322  
                       l762 3C48                         l658 2DA2                         l674 4452  
                       l691 3494                         l659 2D90                         l931 43C2  
                       l827 2398                         l773 3BE0                         l917 3A94  
                       l829 21DE                         l766 3B84                         l686 3670  
                       l782 4634                         l759 3AEC                         l688 34D0  
                       l960 46E6                         l697 3516                         l937 44D8  
                       l857 27E0                         l873 40E0                         l699 358E  
                       l949 418C                         l957 4554                         l869 40D8  
                       l893 3882                         l975 458E                         l969 430A  
                       _pad 430C                         wreg 3FE8                ___flmul@aexp 0020  
              ___flmul@bexp 0021                ___flmul@sign 001B                ___flmul@temp 0026  
              ___flmul@prod 0022                 main@digital 005C                 LCD_Char@dat 0007  
              ___fltol@exp1 000A                        l2201 2AE2                        l3001 282E  
                      l2211 2AF6                        l2203 2AE6                        l2131 40F2  
                      l3011 285E                        l3003 2834                        l2301 2D52  
                      l2213 2AFA                        l2205 2AEA                        l2221 2B0A  
                      l2133 4102                        l3013 2864                        l3005 283A  
                      l3021 28FC                        l3101 3776                        l2303 2D60  
                      l2231 2B7A                        l2223 2B0E                        l2215 2AFE  
                      l2207 2AEE                        l2151 29F6                        l2143 29CA  
                      l2135 410C                        l3031 2960                        l3023 291A  
                      l3015 28BC                        l3007 284C                        l3111 37FE  
                      l3103 37A8                        l3201 44DC                        l2401 33CA  
                      l2313 2DB2                        l2321 2E08                        l2305 2D64  
                      l2241 2BA4                        l2233 2B86                        l2225 2B38  
                      l2217 2B02                        l2209 2AF2                        l2161 2A30  
                      l2153 2A06                        l2145 29D6                        l2137 4128  
                      l2129 40E2                        l3041 29B2                        l3033 296E  
                      l3025 2936                        l3017 28F0                        l3009 285A  
                      l3131 46B4                        l3211 450C                        l3203 44EC  
                      l2411 33FA                        l2403 33D2                        l2331 2E5A  
                      l2323 2E18                        l2315 2DBE                        l2307 2D72  
                      l2251 2BFA                        l2243 2BC6                        l2235 2B8A  
                      l2227 2B54                        l2219 2B06                        l2171 2A5E  
                      l2163 2A36                        l2155 2A16                        l2147 29E4  
                      l2139 415A                        l3035 2986                        l3027 293E  
                      l3019 28F8                        l3051 4064                        l3107 37DA  
                      l3123 385A                        l3133 46B6                        l3061 4696  
                      l3141 4238                        l3205 44F4                        l3221 3B12  
                      l3213 3A98                        l2421 3438                        l2413 33FA  
                      l2405 33D6                        l2501 2EA4                        l2341 2E78  
                      l2333 2E60                        l2325 2E28                        l2317 2DCC  
                      l2309 2D88                        l2261 2C34                        l2253 2C08  
                      l2245 2BD6                        l2237 2B98                        l2229 2B64  
                      l2181 2A92                        l2173 2A60                        l2165 2A48  
                      l2157 2A18                        l2149 29E6                        l3037 2996  
                      l3029 2948                        l3053 4084                        l3045 402C  
                      l3117 3830                        l3109 37F0                        l3135 46B8  
                      l3063 4698                        l3143 423C                        l3207 44FE  
                      l3231 3B6C                        l3215 3AA8                        l2431 3484  
                      l2423 3448                        l2511 2EDC                        l2503 2EA6  
                      l2335 2E62                        l2327 2E48                        l2319 2E06  
                      l2271 2CA0                        l2263 2C36                        l2255 2C16  
                      l2239 2B9A                        l2191 2ACE                        l2175 2A70  
                      l2183 2A9A                        l2167 2A4A                        l2159 2A20  
                      l2351 4538                        l3039 29AA                        l3055 40A4  
                      l3047 4034                        l3119 384E                        l3071 3672  
                      l3151 445C                        l3137 46BA                        l3129 46AE  
                      l3161 4642                        l3065 469A                        l3145 426A  
                      l3209 4506                        l3241 3BD0                        l3233 3B6E  
                      l3225 3B26                        l3217 3AB6                        l2441 34CE  
                      l2433 3492                        l2425 3458                        l2417 340E  
                      l2409 33EA                        l2361 32E4                        l2601 320A  
                      l2521 2F08                        l2513 2EEC                        l2505 2EB6  
                      l2337 2E68                        l2329 2E4C                        l2281 2CF8  
                      l2273 2CA2                        l2265 2C40                        l2257 2C22  
                      l2249 2BEA                        l2193 2AD2                        l2185 2AAA  
                      l2177 2A80                        l2169 2A50                        l2345 451A  
                      l2353 4664                        l3049 405C                        l3057 40AC  
                      l3081 36DC                        l3073 369A                        l3153 446C  
                      l3171 45D6                        l3139 46BC                        l3163 4646  
                      l3067 469C                        l3059 4690                        l3147 426E  
                      l3251 3C28                        l3243 3BEE                        l3235 3B7A  
                      l3227 3B2E                        l3219 3AFC                        l2451 3514  
                      l2443 34E0                        l2435 349E                        l2427 3460  
                      l2419 3428                        l2371 3324                        l2363 32F2  
                      l2611 3280                        l2603 3234                        l2531 2F5E  
                      l2523 2F18                        l2515 2EF2                        l2507 2EC6  
                      l2339 2E76                        l2291 2D26                        l2275 2CB2  
                      l2259 2C26                        l2267 2C46                        l2195 2AD6  
                      l2187 2ABC                        l2179 2A90                        l2347 4526  
                      l2355 4684                        l3091 3722                        l3083 36E4  
                      l3075 36A2                        l3155 448E                        l3173 45FC  
                      l3165 45C8                        l3069 469E                        l3253 3C36  
                      l3245 3BF0                        l3237 3BB6                        l3229 3B3A  
                      l2461 3574                        l2445 34F6                        l2453 3526  
                      l2437 34BC                        l2429 3470                        l2381 334A  
                      l2373 3326                        l2365 32F4                        l2613 329C  
                      l2621 32C2                        l2605 3238                        l2541 2F9C  
                      l2533 2F6E                        l2525 2F28                        l2517 2EF8  
                      l2509 2ED6                        l2293 2D34                        l2285 2D0C  
                      l2269 2C6C                        l2277 2CC2                        l2197 2ADA  
                      l2189 2ACA                        l2701 3CDA                        l2349 4534  
                      l3093 372A                        l3085 36F8                        l3077 36B0  
                      l3149 4454                        l3181 4610                        l3261 3F56  
                      l3167 45D2                        l3175 46DE                        l3159 4636  
                      l3255 3C38                        l3247 3BF4                        l3239 3BC2  
                      l2471 35E2                        l2455 3534                        l2447 34FC  
                      l2439 34BE                        l2391 338A                        l2383 3358  
                      l2367 3304                        l2375 332E                        l2359 32D8  
                      l2623 32C6                        l2615 32AC                        l2607 3252  
                      l2551 2FF6                        l2543 2FB6                        l2527 2F38  
                      l2519 2F06                        l2295 2D3C                        l2287 2D16  
                      l2279 2CE8                        l2199 2ADE                        l2711 3D02  
                      l2703 3CE4                        l3087 3702                        l3079 36B4  
                      l3183 4618                        l3191 42B6                        l3271 3F88  
                      l3263 3F5A                        l3169 45D4                        l3249 3C18  
                      l2481 364C                        l2465 359E                        l2473 35E6  
                      l2457 3538                        l2449 3506                        l2393 338C  
                      l2385 335A                        l2377 333E                        l2369 3314  
                      l2641 420A                        l2633 418E                        l2617 32BA  
                      l2609 3266                        l2561 3044                        l2553 3004  
                      l2545 2FC2                        l2537 2F82                        l2529 2F3E  
                      l2297 2D40                        l2289 2D24                        l2713 3D0E  
                      l2705 3CEE                        l2801 44AE                        l3089 371C  
                      l3097 3732                        l3185 4628                        l3177 4600  
                      l3193 42BA                        l3273 3FD4                        l3265 3F5E  
                      l2483 3650                        l2475 3600                        l2467 35AA  
                      l2459 3546                        l2387 336A                        l2395 3394  
                      l2379 3344                        l2643 422E                        l2635 41BC  
                      l2651 3D7E                        l2619 32BC                        l2571 30C2  
                      l2563 3062                        l2555 3014                        l2547 2FDE  
                      l2539 2F92                        l2299 2D50                        l2627 440E  
                      l2715 3D1E                        l2803 44B0                        l2731 4342  
                      l2723 430C                        l3099 3750                        l3179 4608  
                      l3195 42D6                        l3275 3FF2                        l3267 3F5E  
                      l3259 3F52                        l2821 43F6                        l2485 365E  
                      l2477 3616                        l2469 35B8                        l2397 33A4  
                      l2389 337A                        l2645 4234                        l2637 41CC  
                      l2661 3DEC                        l2653 3D8E                        l2581 3158  
                      l2573 30EC                        l2565 3072                        l2557 3024  
                      l2549 2FEA                        l2629 441E                        l2717 3D2E  
                      l2741 3EDA                        l2805 44BE                        l2733 4360  
                      l2725 431A                        l2901 22EA                        l3197 42DC  
                      l3189 42AA                        l3277 3FFE                        l3269 3F70  
                      l2815 43D8                        l2807 43C4                        l3199 44DC  
                      l2487 3664                        l2479 3630                        l2399 33BA  
                      l2639 41FA                        l2663 3DFA                        l2655 3DBC  
                      l2591 3198                        l2583 3166                        l2575 3122  
                      l2567 3092                        l2559 3034                        l2671 4590  
                      l2719 3D3E                        l2743 3EE6                        l2735 3E54  
                      l2727 432E                        l2911 23A0                        l2903 231E  
                      l2831 204A                        l2823 2022                        l3279 400E  
                      l2817 43DC                        l2809 43D0                        l2489 3666  
                      l2665 3E4A                        l2657 3DCC                        l2649 3D50  
                      l2593 31C6                        l2585 3178                        l2577 3130  
                      l2569 30A2                        l2497 2E8A                        l2673 45A6  
                      l2681 3C60                        l2753 3F48                        l2737 3E74  
                      l2761 436E                        l2729 433E                        l2921 23D0  
                      l2913 23B0                        l2905 2326                        l2841 20A0  
                      l2833 206E                        l2825 2028                        l2819 43F2  
                      l2667 3E50                        l2659 3DDA                        l2587 3186  
                      l2579 314E                        l2499 2E96                        l2675 45B6  
                      l2691 3CB0                        l2739 3EB2                        l2747 3EF2  
                      l2771 38A4                        l2763 437C                        l2923 23E2  
                      l2931 2422                        l2915 23BC                        l2851 20F0  
                      l2843 20AC                        l2835 2078                        l2827 2038  
                      l2597 31F0                        l2589 318A                        l2693 3CB4  
                      l2685 3C74                        l2749 3F04                        l2781 398C  
                      l2773 38FA                        l2765 4390                        l2757 4556  
                      l2941 250A                        l2933 242A                        l2925 23F0  
                      l2917 23C4                        l2909 2366                        l2861 211A  
                      l2853 20F4                        l2845 20B4                        l2837 2080  
                      l2829 2046                        ?_pad 000E                        l2599 31FC  
                      l2695 3CC2                        l2687 3C9E                        l2679 3C4A  
                      l2791 3A74                        l2783 39C8                        l2775 390E  
                      l2759 455A                        l2951 25C8                        l2943 253E  
                      l2935 243A                        l2927 2408                        l2919 23CC  
                      l2871 216E                        l2855 20FA                        l2839 2090  
                      l2847 20B8                        l2689 3CA0                        l2793 3A84  
                      l2777 391C                        l2785 39FC                        l2769 3884  
                      l2961 2664                        l2953 25DE                        l2937 244E  
                      l2945 2544                        l2929 241A                        l2873 2174  
                      l2857 2102                        l2849 20DE                        l2865 2132  
                      l2787 3A38                        l2963 26BA                        l2971 270C  
                      l2955 2610                        l2947 2562                        l2939 24B2  
                      l2891 21F4                        l2875 217C                        l2867 2158  
                      l2883 218E                        l2859 2110                        l2789 3A4C  
                      l2797 4498                        l2981 273E                        l2973 271C  
                      l2965 26C0                        l2957 2620                        l2949 2596  
                      l2893 2228                        l2885 21A8                        l2869 216A  
                      l2799 44A4                        l2991 280C                        l2983 27B6  
                      l2975 2724                        l2967 26F4                        l2959 2630  
                      l2895 2266                        l2993 2810                        l2985 27D6  
                      l2977 272A                        l2969 2708                        l2897 2298  
                      l2889 21EE                        l2995 2816                        l2987 27F2  
                      l2979 2732                        l2899 22D6                        l2997 281E  
                      l2989 2800                        l2999 282A                        STR_1 2010  
                      STR_2 201D                        STR_3 2001                        STR_4 2015  
                      STR_7 2019                        u2000 2BB8                        u2001 2BB4  
                      u2010 2BC6                        u2011 2BC2                        u2100 2D24  
                      u2020 2BD6                        u2101 2D20                        u2021 2BD2  
                      u2110 2D34                        u2030 2C08                        u2111 2D30  
                      u2031 2C04                        u2200 2E18                        u2120 2D50  
                      u2040 2C16                        u3000 39AC                        u2201 2E14  
                      u2121 2D4C                        u2041 2C12                        u2210 2E28  
                      u2130 2D60                        u2050 2C34                        u3010 39C8  
                      u2211 2E24                        u2131 2D5C                        u2051 2C30  
                      u3011 39C4                        u2300 336A                        u2220 2E48  
                      u2140 2D72                        u2060 2C6C                        u3020 3A1C  
                      u3100 20A0                        u2301 3366                        u2221 2E44  
                      u2141 2D6E                        u2061 2C68                        u3005 39A2  
                      u3101 209C                        u2310 337A                        u2230 2E5A  
                      u2150 2D88                        u2070 2CB2                        u3030 3A38  
                      u3110 20DE                        _LATB 3FBB                        u2311 3376  
                      u2231 2E56                        u2151 2D84                        u2071 2CAE  
                      u3031 3A34                        u3111 20DA                        u2400 3534  
                      u2320 33BA                        u2240 2E76                        u2160 2D9E  
                      u2080 2CE8                        u3040 3A74                        u3200 2398  
                      u3120 20F0                        u2401 3530                        u2321 33B6  
                      u2241 2E72                        u2161 2D9A                        u2081 2CE4  
                      u3041 3A70                        u3025 3A12                        u3201 2394  
                      u3121 20EC                        u2410 3546                        u2330 33FA  
                      u2170 2DB2                        u2090 2CF8                        u3050 44D8  
                      u2250 4554                        u3210 23B0                        u3130 2158  
                      u2411 3542                        u2331 33F6                        u2171 2DAE  
                      u2091 2CF4                        u3051 44D4                        u2251 4550  
                      u3211 23AC                        u3131 2154                        u3060 43F2  
                      u2420 3574                        u2340 3470                        u2260 32F2  
                      u2500 2EB6                        u2180 2DCC                        u3300 2708  
                      u3220 23E2                        u3140 216A                        u3061 43EE  
                      u2421 3570                        u2341 346C                        u2261 32EE  
                      u2501 2EB2                        u2181 2DC8                        u3301 2704  
                      u3221 23DE                        u3141 2166                        u3070 440C  
                      u2430 358A                        u2350 3492                        u2270 3304  
                      u2510 2EC6                        u2190 2E06                        u3310 27B6  
                      u3230 23F0                        u3150 21DA                        u3071 4408  
                      u2431 3586                        u2351 348E                        u2271 3300  
                      u2511 2EC2                        u2191 2E02                        u3311 27B2  
                      u3231 23EC                        u3151 21D6                        u2440 359E  
                      u2360 34BC                        u2280 3314                        u2600 3198  
                      u2520 2F06                        u3320 27F2                        u3240 241A  
                      u3160 2266                        u3080 2046                        u3400 405C  
                      u2441 359A                        u2361 34B8                        u2281 3310  
                      u2601 3194                        u2521 2F02                        u3321 27EE  
                      u3241 2416                        u3161 2262                        u3081 2042  
                      u3401 4058                        u2450 35B8                        u2370 34E0  
                      u2290 3358                        u2610 31C6                        u2530 2F18  
                      u3330 2800                        u3250 2562                        u3170 2298  
                      u3090 2090                        u3410 40D8                        u2451 35B4  
                      u2371 34DC                        u2291 3354                        u2611 31C2  
                      u2531 2F14                        u3331 27FC                        u3251 255E  
                      u3171 2294                        u3091 208C                        u3411 40D4  
                      u2460 3600                        u2380 34F6                        u2700 422E  
                      u2620 31DC                        u2540 2F28                        u1900 2A5E  
                      u1820 40F2                        u3340 284C                        u3260 25C8  
                      u3180 22D6                        u3420 369A                        u3500 430A  
                      u2461 35FC                        u2381 34F2                        u2701 422A  
                      u2621 31D8                        u2541 2F24                        u1901 2A5A  
                      u1821 40EE                        u3341 2848                        u3261 25C4  
                      u3181 22D2                        u3421 3696                        u3501 4306  
                      u3510 44EC                        u2470 3630                        u2390 3514  
                      u2710 3D7E                        u2630 31F0                        u2550 2F5E  
                      u1910 2A70                        u1830 4102                        u3350 291A  
                      u3270 2610                        u3190 2362                        u3430 36DC  
                      u3511 44E8                        u2471 362C                        u2391 3510  
                      u2711 3D7A                        u2631 31EC                        u2551 2F5A  
                      u1911 2A6C                        u1831 40FE                        u3351 2916  
                      u3271 260C                        u3191 235E                        u3431 36D8  
                      u3600 3C28                        u3520 3AA8                        u2480 365E  
                      u2720 3DBC                        u2640 320A                        u2560 2F6E  
                      u1920 2A80                        u2800 3CD6                        u1840 4128  
                      u3360 2936                        u3280 2620                        u3440 3772  
                      u3601 3C24                        u3521 3AA4                        u2481 365A  
                      u2721 3DB8                        u2641 3206                        u2561 2F6A  
                      u1921 2A7C                        u2801 3CD2                        u1841 4124  
                      u3361 2932                        u3281 261C                        u3441 376E  
                      u3450 4266                        u3610 3C36                        u3530 3AB6  
                      u2730 3DDA                        u2650 3252                        u2570 310C  
                      u2490 2EA4                        u1930 2ABC                        u2810 3CFE  
                      u1850 415A                        u3370 2980                        u3290 26BA  
                      u3611 3C32                        u3531 3AB2                        u2731 3DD6  
                      u2651 324E                        u2491 2EA0                        u1931 2AB8  
                      u2811 3CFA                        u1851 4156                        u3371 297A  
                      u3291 26B6                        u3460 4298                        u3540 3B12  
                      u2740 3DFA                        u2660 3280                        u2580 3166  
                      u1940 2ACA                        u1860 29E4                        u2820 3D1E  
                      u3380 2982                        u3620 3F70                        u3541 3B0E  
                      u2741 3DF6                        u2661 327C                        u2581 3162  
                      u1941 2AC6                        u1861 29E0                        u2821 3D1A  
                      u3621 3F6C                        u3470 42A8                        u3550 3B68  
                      u2750 3E4A                        u2670 32BA                        u2590 3186  
                      u1950 2B38                        u1870 29F6                        u2830 3D2E  
                      u2910 3F3E                        u3390 2996                        u3471 42A4  
                      u3551 3B64                        u2751 3E46                        u2671 32B6  
                      u2591 3182                        u2575 3102                        u1951 2B34  
                      u1871 29F2                        u2831 3D2A                        u2911 3F38  
                      u3391 2992                        u3560 3BB2                        u2680 41BC  
                      u2760 45A6                        u1960 2B50                        u1880 2A06  
                      u2920 3F40                        u2840 431A                        u3480 448E  
                      u3457 4258                        u3561 3BAE                        u2681 41B8  
                      u2761 45A2                        u1961 2B4A                        u1881 2A02  
                      u2905 3F16                        u2841 4316                        u3481 448A  
                      u3570 3BD0                        u2690 41FA                        u1970 2B52  
                      u1890 2A48                        u2770 3C60                        u2850 4360  
                      u2930 458E                        u3490 42D2                        u3467 428A  
                      u3571 3BCC                        u2691 41F6                        u1891 2A44  
                      u2771 3C5C                        u2851 435C                        u2931 458A  
                      u3491 42CE                        u3580 3BE0                        u1980 2B7A  
                      u2780 3C94                        u2860 3E94                        u2940 437C  
                      u3581 3BDC                        u1981 2B76                        u2941 4378  
                      u3590 3BEE                        u1990 2B98                        u2790 3CC2  
                      u2870 3EB2                        u2950 38CC                        u3591 3BEA  
                      u1991 2B94                        u2791 3CBE                        u2871 3EAE  
                      u2880 3EDA                        u2960 38FA                        u2785 3C8A  
                      u2881 3ED6                        u2865 3E8A                        u2961 38F6  
                      u2890 3F04                        u2970 391C                        u2891 3F00  
                      u2971 3918                        u2955 38C2                        u2990 3988  
                      u2991 3984                        u2985 3930                        u2986 393A  
                      u2987 394A                        _data 00C2                        _dbuf 0072  
                      _labs 436E                        _main 3F52                        _prec 006E  
                      pad@i 0013                        pad@p 0010                        fsr1h 3FE2  
                      fsr2h 3FDA                        indf1 3FE7                        indf2 3FDF  
                      fsr1l 3FE1                        fsr2l 3FD9            __end_of_ADC_Init 4600  
             ___fpclassifyf 3E54                        prodh 3FF4                        prodl 3FF3  
                      start FFFC             __end_of_MSdelay 440E             ___fldiv@new_exp 0012  
               main@voltage 0058               _LCD_String_xy 44DA                ___param_bank 0000  
                     ??_pad 0012            __end_of_LCD_Char 46AC            __end_of_LCD_Init 4664  
             ___fltol@sign1 0009                       ?_labs 0001             __end_of___fladd 2E8A  
                     ?_main 0001                       _ADCLK 3EFF                       _ADPCH 3EF1  
           __end_of___fldiv 3672             __end_of___flneg 45C8             __end_of___flmul 32D8  
           __end_of___flsub 4454             __end_of___fltol 3D50                       _LATD0 1FDE8  
                     _LATD1 1FDE9                vfpfcnvrt@fmt 003C                       _TRISB 3FC3  
                     _TRISD 3FC5                       _flags 005E         read_prec_or_width@c 0009  
       read_prec_or_width@n 000A                       _fputc 40E2                       _fputs 451A  
                     labs@a 0001                       pad@fp 000E                       _width 006C  
                     _putch 46E6                       tablat 3FF5                       status 3FD8  
           __end_of_sprintf 4636              ?___fpclassifyf 0001              ?_LCD_String_xy 000A  
           __initialization 46CA                __end_of_labs 43C4                __end_of_main 402C  
                    ??_labs 0005                      ??_main 0056           __end_of_LCD_Clear 46E6  
             __activetblptr 0003  __end_of_read_prec_or_width 40E2                      _ADACQH 3EF4  
                    _ADACQL 3EF3                      ?_fputc 0001                      ?_fputs 0009  
                    _ADRESH 3EF0                      _ADRESL 3EEF                      _ADPREH 3EF7  
                    _ADPREL 3EF6                      ?_putch 0001            LCD_String_xy@msg 000B  
          LCD_String_xy@pos 000A            LCD_String_xy@row 000D                   ??_MSdelay 0003  
          __end_of___xxtofl 3C4A                vfprintf@cfmt 0048                      ___flge 3D50  
                    ___fleq 418E                   ??___fladd 0009                      ___wmul 4664  
                 ??___fldiv 0009                   ??___flneg 0005                   ??___flmul 0017  
                 ??___flsub 0030                   ??___fltol 0005                      _efgtoa 2022  
                    _floorf 3884                      _memcpy 4498        read_prec_or_width@ap 0008  
                    clear_0 46D0                      isa$std 0001                      pad@buf 000F  
                    _strcat 42AA                      _strcpy 4556                      fputc@c 0001  
                    fputs@c 000B                      fputs@i 000C                      fputs@s 0009  
           ___fpclassifyf@e 0009                   ?_ADC_Init 0001             ___fpclassifyf@u 000B  
           ___fpclassifyf@x 0001                __mediumconst 0000                      tblptrh 3FF7  
                    tblptrl 3FF6                      tblptru 3FF8                      putch@c 0001  
          __end_of_vfprintf 4498                   ??_sprintf 0049                  ___flge@ff1 0028  
                ___flge@ff2 002C             ??___fpclassifyf 0005                ___xxtofl@arg 000B  
              ___xxtofl@exp 000A                ___xxtofl@val 0001                  ___fleq@ff1 0001  
                ___fleq@ff2 0005                   ?_LCD_Char 0001                  __accesstop 0060  
   __end_of__initialization 46D8                   ?_LCD_Init 0001             ??_LCD_String_xy 000D  
                ___flneg@f1 0001               ___rparam_used 0001                  ___fltol@f1 0001  
            __pcstackCOMRAM 0001               __end_of_fputc 418E               __end_of_fputs 4556  
             __end_of_putch 46E8                ??_LCD_String 000A                  ??_ADC_Init 0001  
                   ??_fputc 0004                     ??_fputs 000B                     ??_putch 0001  
                __pbssBANK0 0060                  ??_LCD_Char 0007                  ??_LCD_Init 0008  
        __end_of_LCD_String 42AA                  _efgtoa$802 00D2                     ?___flge 0028  
                   ?___fleq 0001                     ?___wmul 0001                     ?_efgtoa 0034  
                   ?_floorf 001A                     ?_memcpy 0001                     ?_strcat 0001  
                   ?_strcpy 0001                   ?___xxtofl 0001                     _MSdelay 43C4  
             LCD_String@msg 0008                     __Hparam 0000                     __Lparam 0000  
                   ___fladd 29CA                     ___fldiv 32D8                     ___flneg 4590  
                   ___flmul 2E8A                     ___flsub 440E                     ___fltol 3C4A  
                 ?_vfprintf 0045                __psmallconst 2000                     __pcinit 46CA  
                   __ramtop 2000                     _digital 0070                     __ptext0 3F52  
                   __ptext1 42AA                     __ptext2 4600                     __ptext3 4454  
                   __ptext4 3672                     __ptext5 402C                     __ptext6 4664  
                   __ptext7 2022                     __ptext8 4556                     __ptext9 430C  
     read_prec_or_width@fmt 0007                  ??___xxtofl 0005                     efgtoa@c 0039  
                   efgtoa@d 00D7                     efgtoa@e 00DB                     efgtoa@f 0035  
                   efgtoa@g 00F0                     efgtoa@h 00E5                     efgtoa@i 00E3  
                   efgtoa@l 00E9                     efgtoa@m 00D9                     efgtoa@n 00EE  
                   efgtoa@p 00CE                     efgtoa@t 00D0                     efgtoa@u 00F4  
                   efgtoa@w 00DD                   _LCD_Clear 46DE                     _sprintf 4600  
                   _voltage 0068        end_of_initialization 46D8                     floorf@e 0028  
                   floorf@m 0024                     floorf@u 002A                     floorf@x 001A  
                   memcpy@d 0006                     memcpy@n 0003                     memcpy@s 0007  
                   fputc@fp 0003              LCD_Command@cmd 0007                     fputs@fp 000A  
        _read_prec_or_width 402C           __end_of_vfpfcnvrt 3884                  efgtoa@mode 00D5  
                efgtoa@sign 00ED                     postdec2 3FDD         ?_read_prec_or_width 0007  
                   postinc0 3FEE                     postinc1 3FE6                     postinc2 3FDE  
          vfpfcnvrt@convarg 003F                  ??_vfprintf 0048                     strcat@i 0003  
                   strcpy@d 0004                 ___fladd@grs 0010               ___xxtofl@sign 0009  
                 _TRISAbits 3FC2                  ?_LCD_Clear 0001        ??_read_prec_or_width 0009  
               ___fldiv@grs 0014                 ___fldiv@rem 000D                 ___flmul@grs 001C  
             ??_LCD_Command 0007              __end_of___flge 3E54              __end_of___fleq 4238  
               vfpfcnvrt@ap 003D                 vfpfcnvrt@cp 0044                 vfpfcnvrt@fp 003B  
            __end_of___wmul 468E              __end_of_efgtoa 29CA              __end_of_floorf 3A96  
            __end_of_memcpy 44DA                  floorf@F521 0060              __end_of_strcat 430C  
            __end_of_strcpy 4590         start_initialization 46CA                 __end_of_pad 436E  
     __end_of___fpclassifyf 3F52       __end_of_LCD_String_xy 451A                 vfprintf@fmt 0046  
                  ??___flge 0030                    ??___fleq 0009                    ??___wmul 0005  
                  ??_efgtoa 003A                    ??_floorf 001E                    ??_memcpy 0005  
                  ??_strcat 0003                    ??_strcpy 0003                   ___fladd@a 0005  
                 ___fladd@b 0001                   ___fldiv@a 0005                   ___fldiv@b 0001  
       __end_of_LCD_Command 46CA                   ___flmul@a 0013                   ___flmul@b 000F  
               __pbssCOMRAM 005E                   ___flsub@a 002C                   ___flsub@b 0028  
             __pcstackBANK0 00CC                 ??_LCD_Clear 0008                    ?_MSdelay 0001  
                  ?___fladd 0001                    ?___fldiv 0001                    ?___flneg 0001  
                  ?___flmul 000F                    ?___flsub 0028                    ?___fltol 0001  
               __smallconst 2000                    _ADC_Init 45C8       LCD_String_xy@location 000E  
                  ?_sprintf 00F8                    MSdelay@i 0003                    MSdelay@j 0005  
                  _LCD_Char 468E                    _LCD_Init 4636              ___wmul@product 0005  
               _LCD_Command 46AC                   _vfpfcnvrt 3672                  _ADCON0bits 3EF8  
         ___wmul@multiplier 0001                  vfpfcnvrt@c 0043                    __Hrparam 0000  
                 memcpy@tmp 0005                  vfprintf@ap 0047                    __Lrparam 0000  
                vfprintf@fp 0045                  ?_vfpfcnvrt 003B                  _ANSELAbits 3A40  
        ___fpclassifyf@F465 0064                  sprintf@fmt 00F9                    ___xxtofl 3A96  
                strcat@dest 0001                    __ptext10 451A                    __ptext11 40E2  
                  __ptext20 4590                    __ptext12 46E6                    __ptext21 2E8A  
                  __ptext13 4498                    __ptext30 46DE                    __ptext22 3D50  
                  __ptext14 436E                    __ptext31 46AC                    __ptext23 418E  
                  __ptext15 3884                    __ptext32 43C4                    __ptext24 32D8  
                  __ptext16 3E54                    __ptext33 45C8                    __ptext25 3A96  
                  __ptext17 3C4A                    __ptext26 44DA                    __ptext18 440E  
                  __ptext27 4238                    __ptext19 29CA                    __ptext28 468E  
                  __ptext29 4636                  strcpy@dest 0001                  MSdelay@val 0001  
                  efgtoa@fp 0034                    efgtoa@ne 00CC                    efgtoa@pp 00D4  
                  efgtoa@ou 00DF                    isa$xinst 0000                    _vfprintf 4454  
                _LCD_String 4238                    memcpy@d1 0001                    memcpy@s1 0002  
                 sprintf@ap 0049                   strcat@src 0002                   strcpy@src 0002  
               efgtoa@nmode 00D6                 ??_vfpfcnvrt 003E                    sprintf@f 004A  
                  sprintf@s 00F8               ___fladd@signs 000D                ___fladd@aexp 000E  
              ___fladd@bexp 000F  
